
canBus.elf:     file format elf32-littlearm

Sections:
Idx Name          Size      VMA       LMA       File off  Algn
  0 .isr_vector   00000188  08000000  08000000  00010000  2**0
                  CONTENTS, ALLOC, LOAD, READONLY, DATA
  1 .text         00003538  08000188  08000188  00010188  2**2
                  CONTENTS, ALLOC, LOAD, READONLY, CODE
  2 .rodata       00000048  080036c0  080036c0  000136c0  2**2
                  CONTENTS, ALLOC, LOAD, READONLY, DATA
  3 .ARM.extab    00000000  08003708  08003708  0002000c  2**0
                  CONTENTS
  4 .ARM          00000008  08003708  08003708  00013708  2**2
                  CONTENTS, ALLOC, LOAD, READONLY, DATA
  5 .preinit_array 00000000  08003710  08003710  0002000c  2**0
                  CONTENTS, ALLOC, LOAD, DATA
  6 .init_array   00000004  08003710  08003710  00013710  2**2
                  CONTENTS, ALLOC, LOAD, DATA
  7 .fini_array   00000004  08003714  08003714  00013714  2**2
                  CONTENTS, ALLOC, LOAD, DATA
  8 .data         0000000c  20000000  08003718  00020000  2**2
                  CONTENTS, ALLOC, LOAD, DATA
  9 .bss          0000012c  2000000c  08003724  0002000c  2**2
                  ALLOC
 10 ._user_heap_stack 00000600  20000138  08003724  00020138  2**0
                  ALLOC
 11 .ARM.attributes 00000030  00000000  00000000  0002000c  2**0
                  CONTENTS, READONLY
 12 .debug_info   0000baeb  00000000  00000000  0002003c  2**0
                  CONTENTS, READONLY, DEBUGGING, OCTETS
 13 .debug_abbrev 00001a2d  00000000  00000000  0002bb27  2**0
                  CONTENTS, READONLY, DEBUGGING, OCTETS
 14 .debug_aranges 000009e0  00000000  00000000  0002d558  2**3
                  CONTENTS, READONLY, DEBUGGING, OCTETS
 15 .debug_ranges 00000948  00000000  00000000  0002df38  2**3
                  CONTENTS, READONLY, DEBUGGING, OCTETS
 16 .debug_macro  00025567  00000000  00000000  0002e880  2**0
                  CONTENTS, READONLY, DEBUGGING, OCTETS
 17 .debug_line   0000a0ed  00000000  00000000  00053de7  2**0
                  CONTENTS, READONLY, DEBUGGING, OCTETS
 18 .debug_str    000e7ae5  00000000  00000000  0005ded4  2**0
                  CONTENTS, READONLY, DEBUGGING, OCTETS
 19 .comment      00000053  00000000  00000000  001459b9  2**0
                  CONTENTS, READONLY
 20 .debug_frame  00002804  00000000  00000000  00145a0c  2**2
                  CONTENTS, READONLY, DEBUGGING, OCTETS

Disassembly of section .text:

08000188 <__do_global_dtors_aux>:
 8000188:	b510      	push	{r4, lr}
 800018a:	4c05      	ldr	r4, [pc, #20]	; (80001a0 <__do_global_dtors_aux+0x18>)
 800018c:	7823      	ldrb	r3, [r4, #0]
 800018e:	b933      	cbnz	r3, 800019e <__do_global_dtors_aux+0x16>
 8000190:	4b04      	ldr	r3, [pc, #16]	; (80001a4 <__do_global_dtors_aux+0x1c>)
 8000192:	b113      	cbz	r3, 800019a <__do_global_dtors_aux+0x12>
 8000194:	4804      	ldr	r0, [pc, #16]	; (80001a8 <__do_global_dtors_aux+0x20>)
 8000196:	f3af 8000 	nop.w
 800019a:	2301      	movs	r3, #1
 800019c:	7023      	strb	r3, [r4, #0]
 800019e:	bd10      	pop	{r4, pc}
 80001a0:	2000000c 	.word	0x2000000c
 80001a4:	00000000 	.word	0x00000000
 80001a8:	080036a8 	.word	0x080036a8

080001ac <frame_dummy>:
 80001ac:	b508      	push	{r3, lr}
 80001ae:	4b03      	ldr	r3, [pc, #12]	; (80001bc <frame_dummy+0x10>)
 80001b0:	b11b      	cbz	r3, 80001ba <frame_dummy+0xe>
 80001b2:	4903      	ldr	r1, [pc, #12]	; (80001c0 <frame_dummy+0x14>)
 80001b4:	4803      	ldr	r0, [pc, #12]	; (80001c4 <frame_dummy+0x18>)
 80001b6:	f3af 8000 	nop.w
 80001ba:	bd08      	pop	{r3, pc}
 80001bc:	00000000 	.word	0x00000000
 80001c0:	20000010 	.word	0x20000010
 80001c4:	080036a8 	.word	0x080036a8

080001c8 <__aeabi_uldivmod>:
 80001c8:	b953      	cbnz	r3, 80001e0 <__aeabi_uldivmod+0x18>
 80001ca:	b94a      	cbnz	r2, 80001e0 <__aeabi_uldivmod+0x18>
 80001cc:	2900      	cmp	r1, #0
 80001ce:	bf08      	it	eq
 80001d0:	2800      	cmpeq	r0, #0
 80001d2:	bf1c      	itt	ne
 80001d4:	f04f 31ff 	movne.w	r1, #4294967295
 80001d8:	f04f 30ff 	movne.w	r0, #4294967295
 80001dc:	f000 b96e 	b.w	80004bc <__aeabi_idiv0>
 80001e0:	f1ad 0c08 	sub.w	ip, sp, #8
 80001e4:	e96d ce04 	strd	ip, lr, [sp, #-16]!
 80001e8:	f000 f806 	bl	80001f8 <__udivmoddi4>
 80001ec:	f8dd e004 	ldr.w	lr, [sp, #4]
 80001f0:	e9dd 2302 	ldrd	r2, r3, [sp, #8]
 80001f4:	b004      	add	sp, #16
 80001f6:	4770      	bx	lr

080001f8 <__udivmoddi4>:
 80001f8:	e92d 47f0 	stmdb	sp!, {r4, r5, r6, r7, r8, r9, sl, lr}
 80001fc:	9d08      	ldr	r5, [sp, #32]
 80001fe:	4604      	mov	r4, r0
 8000200:	468c      	mov	ip, r1
 8000202:	2b00      	cmp	r3, #0
 8000204:	f040 8083 	bne.w	800030e <__udivmoddi4+0x116>
 8000208:	428a      	cmp	r2, r1
 800020a:	4617      	mov	r7, r2
 800020c:	d947      	bls.n	800029e <__udivmoddi4+0xa6>
 800020e:	fab2 f282 	clz	r2, r2
 8000212:	b142      	cbz	r2, 8000226 <__udivmoddi4+0x2e>
 8000214:	f1c2 0020 	rsb	r0, r2, #32
 8000218:	fa24 f000 	lsr.w	r0, r4, r0
 800021c:	4091      	lsls	r1, r2
 800021e:	4097      	lsls	r7, r2
 8000220:	ea40 0c01 	orr.w	ip, r0, r1
 8000224:	4094      	lsls	r4, r2
 8000226:	ea4f 4817 	mov.w	r8, r7, lsr #16
 800022a:	0c23      	lsrs	r3, r4, #16
 800022c:	fbbc f6f8 	udiv	r6, ip, r8
 8000230:	fa1f fe87 	uxth.w	lr, r7
 8000234:	fb08 c116 	mls	r1, r8, r6, ip
 8000238:	ea43 4301 	orr.w	r3, r3, r1, lsl #16
 800023c:	fb06 f10e 	mul.w	r1, r6, lr
 8000240:	4299      	cmp	r1, r3
 8000242:	d909      	bls.n	8000258 <__udivmoddi4+0x60>
 8000244:	18fb      	adds	r3, r7, r3
 8000246:	f106 30ff 	add.w	r0, r6, #4294967295
 800024a:	f080 8119 	bcs.w	8000480 <__udivmoddi4+0x288>
 800024e:	4299      	cmp	r1, r3
 8000250:	f240 8116 	bls.w	8000480 <__udivmoddi4+0x288>
 8000254:	3e02      	subs	r6, #2
 8000256:	443b      	add	r3, r7
 8000258:	1a5b      	subs	r3, r3, r1
 800025a:	b2a4      	uxth	r4, r4
 800025c:	fbb3 f0f8 	udiv	r0, r3, r8
 8000260:	fb08 3310 	mls	r3, r8, r0, r3
 8000264:	ea44 4403 	orr.w	r4, r4, r3, lsl #16
 8000268:	fb00 fe0e 	mul.w	lr, r0, lr
 800026c:	45a6      	cmp	lr, r4
 800026e:	d909      	bls.n	8000284 <__udivmoddi4+0x8c>
 8000270:	193c      	adds	r4, r7, r4
 8000272:	f100 33ff 	add.w	r3, r0, #4294967295
 8000276:	f080 8105 	bcs.w	8000484 <__udivmoddi4+0x28c>
 800027a:	45a6      	cmp	lr, r4
 800027c:	f240 8102 	bls.w	8000484 <__udivmoddi4+0x28c>
 8000280:	3802      	subs	r0, #2
 8000282:	443c      	add	r4, r7
 8000284:	ea40 4006 	orr.w	r0, r0, r6, lsl #16
 8000288:	eba4 040e 	sub.w	r4, r4, lr
 800028c:	2600      	movs	r6, #0
 800028e:	b11d      	cbz	r5, 8000298 <__udivmoddi4+0xa0>
 8000290:	40d4      	lsrs	r4, r2
 8000292:	2300      	movs	r3, #0
 8000294:	e9c5 4300 	strd	r4, r3, [r5]
 8000298:	4631      	mov	r1, r6
 800029a:	e8bd 87f0 	ldmia.w	sp!, {r4, r5, r6, r7, r8, r9, sl, pc}
 800029e:	b902      	cbnz	r2, 80002a2 <__udivmoddi4+0xaa>
 80002a0:	deff      	udf	#255	; 0xff
 80002a2:	fab2 f282 	clz	r2, r2
 80002a6:	2a00      	cmp	r2, #0
 80002a8:	d150      	bne.n	800034c <__udivmoddi4+0x154>
 80002aa:	1bcb      	subs	r3, r1, r7
 80002ac:	ea4f 4e17 	mov.w	lr, r7, lsr #16
 80002b0:	fa1f f887 	uxth.w	r8, r7
 80002b4:	2601      	movs	r6, #1
 80002b6:	fbb3 fcfe 	udiv	ip, r3, lr
 80002ba:	0c21      	lsrs	r1, r4, #16
 80002bc:	fb0e 331c 	mls	r3, lr, ip, r3
 80002c0:	ea41 4103 	orr.w	r1, r1, r3, lsl #16
 80002c4:	fb08 f30c 	mul.w	r3, r8, ip
 80002c8:	428b      	cmp	r3, r1
 80002ca:	d907      	bls.n	80002dc <__udivmoddi4+0xe4>
 80002cc:	1879      	adds	r1, r7, r1
 80002ce:	f10c 30ff 	add.w	r0, ip, #4294967295
 80002d2:	d202      	bcs.n	80002da <__udivmoddi4+0xe2>
 80002d4:	428b      	cmp	r3, r1
 80002d6:	f200 80e9 	bhi.w	80004ac <__udivmoddi4+0x2b4>
 80002da:	4684      	mov	ip, r0
 80002dc:	1ac9      	subs	r1, r1, r3
 80002de:	b2a3      	uxth	r3, r4
 80002e0:	fbb1 f0fe 	udiv	r0, r1, lr
 80002e4:	fb0e 1110 	mls	r1, lr, r0, r1
 80002e8:	ea43 4401 	orr.w	r4, r3, r1, lsl #16
 80002ec:	fb08 f800 	mul.w	r8, r8, r0
 80002f0:	45a0      	cmp	r8, r4
 80002f2:	d907      	bls.n	8000304 <__udivmoddi4+0x10c>
 80002f4:	193c      	adds	r4, r7, r4
 80002f6:	f100 33ff 	add.w	r3, r0, #4294967295
 80002fa:	d202      	bcs.n	8000302 <__udivmoddi4+0x10a>
 80002fc:	45a0      	cmp	r8, r4
 80002fe:	f200 80d9 	bhi.w	80004b4 <__udivmoddi4+0x2bc>
 8000302:	4618      	mov	r0, r3
 8000304:	eba4 0408 	sub.w	r4, r4, r8
 8000308:	ea40 400c 	orr.w	r0, r0, ip, lsl #16
 800030c:	e7bf      	b.n	800028e <__udivmoddi4+0x96>
 800030e:	428b      	cmp	r3, r1
 8000310:	d909      	bls.n	8000326 <__udivmoddi4+0x12e>
 8000312:	2d00      	cmp	r5, #0
 8000314:	f000 80b1 	beq.w	800047a <__udivmoddi4+0x282>
 8000318:	2600      	movs	r6, #0
 800031a:	e9c5 0100 	strd	r0, r1, [r5]
 800031e:	4630      	mov	r0, r6
 8000320:	4631      	mov	r1, r6
 8000322:	e8bd 87f0 	ldmia.w	sp!, {r4, r5, r6, r7, r8, r9, sl, pc}
 8000326:	fab3 f683 	clz	r6, r3
 800032a:	2e00      	cmp	r6, #0
 800032c:	d14a      	bne.n	80003c4 <__udivmoddi4+0x1cc>
 800032e:	428b      	cmp	r3, r1
 8000330:	d302      	bcc.n	8000338 <__udivmoddi4+0x140>
 8000332:	4282      	cmp	r2, r0
 8000334:	f200 80b8 	bhi.w	80004a8 <__udivmoddi4+0x2b0>
 8000338:	1a84      	subs	r4, r0, r2
 800033a:	eb61 0103 	sbc.w	r1, r1, r3
 800033e:	2001      	movs	r0, #1
 8000340:	468c      	mov	ip, r1
 8000342:	2d00      	cmp	r5, #0
 8000344:	d0a8      	beq.n	8000298 <__udivmoddi4+0xa0>
 8000346:	e9c5 4c00 	strd	r4, ip, [r5]
 800034a:	e7a5      	b.n	8000298 <__udivmoddi4+0xa0>
 800034c:	f1c2 0320 	rsb	r3, r2, #32
 8000350:	fa20 f603 	lsr.w	r6, r0, r3
 8000354:	4097      	lsls	r7, r2
 8000356:	fa01 f002 	lsl.w	r0, r1, r2
 800035a:	ea4f 4e17 	mov.w	lr, r7, lsr #16
 800035e:	40d9      	lsrs	r1, r3
 8000360:	4330      	orrs	r0, r6
 8000362:	0c03      	lsrs	r3, r0, #16
 8000364:	fbb1 f6fe 	udiv	r6, r1, lr
 8000368:	fa1f f887 	uxth.w	r8, r7
 800036c:	fb0e 1116 	mls	r1, lr, r6, r1
 8000370:	ea43 4301 	orr.w	r3, r3, r1, lsl #16
 8000374:	fb06 f108 	mul.w	r1, r6, r8
 8000378:	4299      	cmp	r1, r3
 800037a:	fa04 f402 	lsl.w	r4, r4, r2
 800037e:	d909      	bls.n	8000394 <__udivmoddi4+0x19c>
 8000380:	18fb      	adds	r3, r7, r3
 8000382:	f106 3cff 	add.w	ip, r6, #4294967295
 8000386:	f080 808d 	bcs.w	80004a4 <__udivmoddi4+0x2ac>
 800038a:	4299      	cmp	r1, r3
 800038c:	f240 808a 	bls.w	80004a4 <__udivmoddi4+0x2ac>
 8000390:	3e02      	subs	r6, #2
 8000392:	443b      	add	r3, r7
 8000394:	1a5b      	subs	r3, r3, r1
 8000396:	b281      	uxth	r1, r0
 8000398:	fbb3 f0fe 	udiv	r0, r3, lr
 800039c:	fb0e 3310 	mls	r3, lr, r0, r3
 80003a0:	ea41 4103 	orr.w	r1, r1, r3, lsl #16
 80003a4:	fb00 f308 	mul.w	r3, r0, r8
 80003a8:	428b      	cmp	r3, r1
 80003aa:	d907      	bls.n	80003bc <__udivmoddi4+0x1c4>
 80003ac:	1879      	adds	r1, r7, r1
 80003ae:	f100 3cff 	add.w	ip, r0, #4294967295
 80003b2:	d273      	bcs.n	800049c <__udivmoddi4+0x2a4>
 80003b4:	428b      	cmp	r3, r1
 80003b6:	d971      	bls.n	800049c <__udivmoddi4+0x2a4>
 80003b8:	3802      	subs	r0, #2
 80003ba:	4439      	add	r1, r7
 80003bc:	1acb      	subs	r3, r1, r3
 80003be:	ea40 4606 	orr.w	r6, r0, r6, lsl #16
 80003c2:	e778      	b.n	80002b6 <__udivmoddi4+0xbe>
 80003c4:	f1c6 0c20 	rsb	ip, r6, #32
 80003c8:	fa03 f406 	lsl.w	r4, r3, r6
 80003cc:	fa22 f30c 	lsr.w	r3, r2, ip
 80003d0:	431c      	orrs	r4, r3
 80003d2:	fa20 f70c 	lsr.w	r7, r0, ip
 80003d6:	fa01 f306 	lsl.w	r3, r1, r6
 80003da:	ea4f 4e14 	mov.w	lr, r4, lsr #16
 80003de:	fa21 f10c 	lsr.w	r1, r1, ip
 80003e2:	431f      	orrs	r7, r3
 80003e4:	0c3b      	lsrs	r3, r7, #16
 80003e6:	fbb1 f9fe 	udiv	r9, r1, lr
 80003ea:	fa1f f884 	uxth.w	r8, r4
 80003ee:	fb0e 1119 	mls	r1, lr, r9, r1
 80003f2:	ea43 4101 	orr.w	r1, r3, r1, lsl #16
 80003f6:	fb09 fa08 	mul.w	sl, r9, r8
 80003fa:	458a      	cmp	sl, r1
 80003fc:	fa02 f206 	lsl.w	r2, r2, r6
 8000400:	fa00 f306 	lsl.w	r3, r0, r6
 8000404:	d908      	bls.n	8000418 <__udivmoddi4+0x220>
 8000406:	1861      	adds	r1, r4, r1
 8000408:	f109 30ff 	add.w	r0, r9, #4294967295
 800040c:	d248      	bcs.n	80004a0 <__udivmoddi4+0x2a8>
 800040e:	458a      	cmp	sl, r1
 8000410:	d946      	bls.n	80004a0 <__udivmoddi4+0x2a8>
 8000412:	f1a9 0902 	sub.w	r9, r9, #2
 8000416:	4421      	add	r1, r4
 8000418:	eba1 010a 	sub.w	r1, r1, sl
 800041c:	b2bf      	uxth	r7, r7
 800041e:	fbb1 f0fe 	udiv	r0, r1, lr
 8000422:	fb0e 1110 	mls	r1, lr, r0, r1
 8000426:	ea47 4701 	orr.w	r7, r7, r1, lsl #16
 800042a:	fb00 f808 	mul.w	r8, r0, r8
 800042e:	45b8      	cmp	r8, r7
 8000430:	d907      	bls.n	8000442 <__udivmoddi4+0x24a>
 8000432:	19e7      	adds	r7, r4, r7
 8000434:	f100 31ff 	add.w	r1, r0, #4294967295
 8000438:	d22e      	bcs.n	8000498 <__udivmoddi4+0x2a0>
 800043a:	45b8      	cmp	r8, r7
 800043c:	d92c      	bls.n	8000498 <__udivmoddi4+0x2a0>
 800043e:	3802      	subs	r0, #2
 8000440:	4427      	add	r7, r4
 8000442:	ea40 4009 	orr.w	r0, r0, r9, lsl #16
 8000446:	eba7 0708 	sub.w	r7, r7, r8
 800044a:	fba0 8902 	umull	r8, r9, r0, r2
 800044e:	454f      	cmp	r7, r9
 8000450:	46c6      	mov	lr, r8
 8000452:	4649      	mov	r1, r9
 8000454:	d31a      	bcc.n	800048c <__udivmoddi4+0x294>
 8000456:	d017      	beq.n	8000488 <__udivmoddi4+0x290>
 8000458:	b15d      	cbz	r5, 8000472 <__udivmoddi4+0x27a>
 800045a:	ebb3 020e 	subs.w	r2, r3, lr
 800045e:	eb67 0701 	sbc.w	r7, r7, r1
 8000462:	fa07 fc0c 	lsl.w	ip, r7, ip
 8000466:	40f2      	lsrs	r2, r6
 8000468:	ea4c 0202 	orr.w	r2, ip, r2
 800046c:	40f7      	lsrs	r7, r6
 800046e:	e9c5 2700 	strd	r2, r7, [r5]
 8000472:	2600      	movs	r6, #0
 8000474:	4631      	mov	r1, r6
 8000476:	e8bd 87f0 	ldmia.w	sp!, {r4, r5, r6, r7, r8, r9, sl, pc}
 800047a:	462e      	mov	r6, r5
 800047c:	4628      	mov	r0, r5
 800047e:	e70b      	b.n	8000298 <__udivmoddi4+0xa0>
 8000480:	4606      	mov	r6, r0
 8000482:	e6e9      	b.n	8000258 <__udivmoddi4+0x60>
 8000484:	4618      	mov	r0, r3
 8000486:	e6fd      	b.n	8000284 <__udivmoddi4+0x8c>
 8000488:	4543      	cmp	r3, r8
 800048a:	d2e5      	bcs.n	8000458 <__udivmoddi4+0x260>
 800048c:	ebb8 0e02 	subs.w	lr, r8, r2
 8000490:	eb69 0104 	sbc.w	r1, r9, r4
 8000494:	3801      	subs	r0, #1
 8000496:	e7df      	b.n	8000458 <__udivmoddi4+0x260>
 8000498:	4608      	mov	r0, r1
 800049a:	e7d2      	b.n	8000442 <__udivmoddi4+0x24a>
 800049c:	4660      	mov	r0, ip
 800049e:	e78d      	b.n	80003bc <__udivmoddi4+0x1c4>
 80004a0:	4681      	mov	r9, r0
 80004a2:	e7b9      	b.n	8000418 <__udivmoddi4+0x220>
 80004a4:	4666      	mov	r6, ip
 80004a6:	e775      	b.n	8000394 <__udivmoddi4+0x19c>
 80004a8:	4630      	mov	r0, r6
 80004aa:	e74a      	b.n	8000342 <__udivmoddi4+0x14a>
 80004ac:	f1ac 0c02 	sub.w	ip, ip, #2
 80004b0:	4439      	add	r1, r7
 80004b2:	e713      	b.n	80002dc <__udivmoddi4+0xe4>
 80004b4:	3802      	subs	r0, #2
 80004b6:	443c      	add	r4, r7
 80004b8:	e724      	b.n	8000304 <__udivmoddi4+0x10c>
 80004ba:	bf00      	nop

080004bc <__aeabi_idiv0>:
 80004bc:	4770      	bx	lr
 80004be:	bf00      	nop

080004c0 <main>:
/**
  * @brief  The application entry point.
  * @retval int
  */
int main(void)
{
 80004c0:	b580      	push	{r7, lr}
 80004c2:	af00      	add	r7, sp, #0
  /* USER CODE END 1 */

  /* MCU Configuration--------------------------------------------------------*/

  /* Reset of all peripherals, Initializes the Flash interface and the Systick. */
  HAL_Init();
 80004c4:	f000 fad0 	bl	8000a68 <HAL_Init>
  /* USER CODE BEGIN Init */

  /* USER CODE END Init */

  /* Configure the system clock */
  SystemClock_Config();
 80004c8:	f000 f83c 	bl	8000544 <SystemClock_Config>
  /* USER CODE BEGIN SysInit */

  /* USER CODE END SysInit */

  /* Initialize all configured peripherals */
  MX_GPIO_Init();
 80004cc:	f000 f8f2 	bl	80006b4 <MX_GPIO_Init>
  MX_USART2_UART_Init();
 80004d0:	f000 f8c0 	bl	8000654 <MX_USART2_UART_Init>
  MX_CAN1_Init();
 80004d4:	f000 f888 	bl	80005e8 <MX_CAN1_Init>
  /* USER CODE BEGIN 2 */
  FilterConfig.FilterBank = 0;
 80004d8:	4b18      	ldr	r3, [pc, #96]	; (800053c <main+0x7c>)
 80004da:	2200      	movs	r2, #0
 80004dc:	615a      	str	r2, [r3, #20]
  FilterConfig.FilterMode = CAN_FILTERMODE_IDMASK;
 80004de:	4b17      	ldr	r3, [pc, #92]	; (800053c <main+0x7c>)
 80004e0:	2200      	movs	r2, #0
 80004e2:	619a      	str	r2, [r3, #24]
  FilterConfig.FilterFIFOAssignment = CAN_FILTER_FIFO0;
 80004e4:	4b15      	ldr	r3, [pc, #84]	; (800053c <main+0x7c>)
 80004e6:	2200      	movs	r2, #0
 80004e8:	611a      	str	r2, [r3, #16]
  FilterConfig.FilterIdHigh = 0x011<<5;
 80004ea:	4b14      	ldr	r3, [pc, #80]	; (800053c <main+0x7c>)
 80004ec:	f44f 7208 	mov.w	r2, #544	; 0x220
 80004f0:	601a      	str	r2, [r3, #0]
  FilterConfig.FilterIdLow = 0;
 80004f2:	4b12      	ldr	r3, [pc, #72]	; (800053c <main+0x7c>)
 80004f4:	2200      	movs	r2, #0
 80004f6:	605a      	str	r2, [r3, #4]
  FilterConfig.FilterMaskIdHigh = 0;
 80004f8:	4b10      	ldr	r3, [pc, #64]	; (800053c <main+0x7c>)
 80004fa:	2200      	movs	r2, #0
 80004fc:	609a      	str	r2, [r3, #8]
  FilterConfig.FilterMaskIdLow = 0;
 80004fe:	4b0f      	ldr	r3, [pc, #60]	; (800053c <main+0x7c>)
 8000500:	2200      	movs	r2, #0
 8000502:	60da      	str	r2, [r3, #12]
  FilterConfig.FilterScale=CAN_FILTERSCALE_32BIT;
 8000504:	4b0d      	ldr	r3, [pc, #52]	; (800053c <main+0x7c>)
 8000506:	2201      	movs	r2, #1
 8000508:	61da      	str	r2, [r3, #28]
  FilterConfig.FilterActivation= ENABLE;
 800050a:	4b0c      	ldr	r3, [pc, #48]	; (800053c <main+0x7c>)
 800050c:	2201      	movs	r2, #1
 800050e:	621a      	str	r2, [r3, #32]
  FilterConfig.SlaveStartFilterBank = 14;
 8000510:	4b0a      	ldr	r3, [pc, #40]	; (800053c <main+0x7c>)
 8000512:	220e      	movs	r2, #14
 8000514:	625a      	str	r2, [r3, #36]	; 0x24

  TxHeader.DLC = 8;            			// grote van bericht 1 - 8
 8000516:	4b0a      	ldr	r3, [pc, #40]	; (8000540 <main+0x80>)
 8000518:	2208      	movs	r2, #8
 800051a:	611a      	str	r2, [r3, #16]
  TxHeader.IDE = CAN_ID_STD;   			// standaard
 800051c:	4b08      	ldr	r3, [pc, #32]	; (8000540 <main+0x80>)
 800051e:	2200      	movs	r2, #0
 8000520:	609a      	str	r2, [r3, #8]
  TxHeader.RTR = CAN_RTR_DATA;
 8000522:	4b07      	ldr	r3, [pc, #28]	; (8000540 <main+0x80>)
 8000524:	2200      	movs	r2, #0
 8000526:	60da      	str	r2, [r3, #12]
  TxHeader.StdId = 0x031;        			// identificatie nummer
 8000528:	4b05      	ldr	r3, [pc, #20]	; (8000540 <main+0x80>)
 800052a:	2231      	movs	r2, #49	; 0x31
 800052c:	601a      	str	r2, [r3, #0]
  TxHeader.ExtId = 0x02;
 800052e:	4b04      	ldr	r3, [pc, #16]	; (8000540 <main+0x80>)
 8000530:	2202      	movs	r2, #2
 8000532:	605a      	str	r2, [r3, #4]
  TxHeader.TransmitGlobalTime = DISABLE;
 8000534:	4b02      	ldr	r3, [pc, #8]	; (8000540 <main+0x80>)
 8000536:	2200      	movs	r2, #0
 8000538:	751a      	strb	r2, [r3, #20]
  /* USER CODE END 2 */

  /* Infinite loop */
  /* USER CODE BEGIN WHILE */
  while (1)
 800053a:	e7fe      	b.n	800053a <main+0x7a>
 800053c:	20000028 	.word	0x20000028
 8000540:	20000100 	.word	0x20000100

08000544 <SystemClock_Config>:
/**
  * @brief System Clock Configuration
  * @retval None
  */
void SystemClock_Config(void)
{
 8000544:	b580      	push	{r7, lr}
 8000546:	b096      	sub	sp, #88	; 0x58
 8000548:	af00      	add	r7, sp, #0
  RCC_OscInitTypeDef RCC_OscInitStruct = {0};
 800054a:	f107 0314 	add.w	r3, r7, #20
 800054e:	2244      	movs	r2, #68	; 0x44
 8000550:	2100      	movs	r1, #0
 8000552:	4618      	mov	r0, r3
 8000554:	f003 f8a0 	bl	8003698 <memset>
  RCC_ClkInitTypeDef RCC_ClkInitStruct = {0};
 8000558:	463b      	mov	r3, r7
 800055a:	2200      	movs	r2, #0
 800055c:	601a      	str	r2, [r3, #0]
 800055e:	605a      	str	r2, [r3, #4]
 8000560:	609a      	str	r2, [r3, #8]
 8000562:	60da      	str	r2, [r3, #12]
 8000564:	611a      	str	r2, [r3, #16]

  /** Configure the main internal regulator output voltage
  */
  if (HAL_PWREx_ControlVoltageScaling(PWR_REGULATOR_VOLTAGE_SCALE1) != HAL_OK)
 8000566:	f44f 7000 	mov.w	r0, #512	; 0x200
 800056a:	f001 f933 	bl	80017d4 <HAL_PWREx_ControlVoltageScaling>
 800056e:	4603      	mov	r3, r0
 8000570:	2b00      	cmp	r3, #0
 8000572:	d001      	beq.n	8000578 <SystemClock_Config+0x34>
  {
    Error_Handler();
 8000574:	f000 f90e 	bl	8000794 <Error_Handler>
  }
  /** Initializes the RCC Oscillators according to the specified parameters
  * in the RCC_OscInitTypeDef structure.
  */
  RCC_OscInitStruct.OscillatorType = RCC_OSCILLATORTYPE_HSI;
 8000578:	2302      	movs	r3, #2
 800057a:	617b      	str	r3, [r7, #20]
  RCC_OscInitStruct.HSIState = RCC_HSI_ON;
 800057c:	f44f 7380 	mov.w	r3, #256	; 0x100
 8000580:	623b      	str	r3, [r7, #32]
  RCC_OscInitStruct.HSICalibrationValue = RCC_HSICALIBRATION_DEFAULT;
 8000582:	2310      	movs	r3, #16
 8000584:	627b      	str	r3, [r7, #36]	; 0x24
  RCC_OscInitStruct.PLL.PLLState = RCC_PLL_ON;
 8000586:	2302      	movs	r3, #2
 8000588:	63fb      	str	r3, [r7, #60]	; 0x3c
  RCC_OscInitStruct.PLL.PLLSource = RCC_PLLSOURCE_HSI;
 800058a:	2302      	movs	r3, #2
 800058c:	643b      	str	r3, [r7, #64]	; 0x40
  RCC_OscInitStruct.PLL.PLLM = 1;
 800058e:	2301      	movs	r3, #1
 8000590:	647b      	str	r3, [r7, #68]	; 0x44
  RCC_OscInitStruct.PLL.PLLN = 10;
 8000592:	230a      	movs	r3, #10
 8000594:	64bb      	str	r3, [r7, #72]	; 0x48
  RCC_OscInitStruct.PLL.PLLP = RCC_PLLP_DIV7;
 8000596:	2307      	movs	r3, #7
 8000598:	64fb      	str	r3, [r7, #76]	; 0x4c
  RCC_OscInitStruct.PLL.PLLQ = RCC_PLLQ_DIV2;
 800059a:	2302      	movs	r3, #2
 800059c:	653b      	str	r3, [r7, #80]	; 0x50
  RCC_OscInitStruct.PLL.PLLR = RCC_PLLR_DIV2;
 800059e:	2302      	movs	r3, #2
 80005a0:	657b      	str	r3, [r7, #84]	; 0x54
  if (HAL_RCC_OscConfig(&RCC_OscInitStruct) != HAL_OK)
 80005a2:	f107 0314 	add.w	r3, r7, #20
 80005a6:	4618      	mov	r0, r3
 80005a8:	f001 f96a 	bl	8001880 <HAL_RCC_OscConfig>
 80005ac:	4603      	mov	r3, r0
 80005ae:	2b00      	cmp	r3, #0
 80005b0:	d001      	beq.n	80005b6 <SystemClock_Config+0x72>
  {
    Error_Handler();
 80005b2:	f000 f8ef 	bl	8000794 <Error_Handler>
  }
  /** Initializes the CPU, AHB and APB buses clocks
  */
  RCC_ClkInitStruct.ClockType = RCC_CLOCKTYPE_HCLK|RCC_CLOCKTYPE_SYSCLK
 80005b6:	230f      	movs	r3, #15
 80005b8:	603b      	str	r3, [r7, #0]
                              |RCC_CLOCKTYPE_PCLK1|RCC_CLOCKTYPE_PCLK2;
  RCC_ClkInitStruct.SYSCLKSource = RCC_SYSCLKSOURCE_PLLCLK;
 80005ba:	2303      	movs	r3, #3
 80005bc:	607b      	str	r3, [r7, #4]
  RCC_ClkInitStruct.AHBCLKDivider = RCC_SYSCLK_DIV1;
 80005be:	2300      	movs	r3, #0
 80005c0:	60bb      	str	r3, [r7, #8]
  RCC_ClkInitStruct.APB1CLKDivider = RCC_HCLK_DIV1;
 80005c2:	2300      	movs	r3, #0
 80005c4:	60fb      	str	r3, [r7, #12]
  RCC_ClkInitStruct.APB2CLKDivider = RCC_HCLK_DIV1;
 80005c6:	2300      	movs	r3, #0
 80005c8:	613b      	str	r3, [r7, #16]

  if (HAL_RCC_ClockConfig(&RCC_ClkInitStruct, FLASH_LATENCY_4) != HAL_OK)
 80005ca:	463b      	mov	r3, r7
 80005cc:	2104      	movs	r1, #4
 80005ce:	4618      	mov	r0, r3
 80005d0:	f001 fd3c 	bl	800204c <HAL_RCC_ClockConfig>
 80005d4:	4603      	mov	r3, r0
 80005d6:	2b00      	cmp	r3, #0
 80005d8:	d001      	beq.n	80005de <SystemClock_Config+0x9a>
  {
    Error_Handler();
 80005da:	f000 f8db 	bl	8000794 <Error_Handler>
  }
}
 80005de:	bf00      	nop
 80005e0:	3758      	adds	r7, #88	; 0x58
 80005e2:	46bd      	mov	sp, r7
 80005e4:	bd80      	pop	{r7, pc}
	...

080005e8 <MX_CAN1_Init>:
  * @brief CAN1 Initialization Function
  * @param None
  * @retval None
  */
static void MX_CAN1_Init(void)
{
 80005e8:	b580      	push	{r7, lr}
 80005ea:	af00      	add	r7, sp, #0
  /* USER CODE END CAN1_Init 0 */

  /* USER CODE BEGIN CAN1_Init 1 */

  /* USER CODE END CAN1_Init 1 */
  hcan1.Instance = CAN1;
 80005ec:	4b17      	ldr	r3, [pc, #92]	; (800064c <MX_CAN1_Init+0x64>)
 80005ee:	4a18      	ldr	r2, [pc, #96]	; (8000650 <MX_CAN1_Init+0x68>)
 80005f0:	601a      	str	r2, [r3, #0]
  hcan1.Init.Prescaler = 5;
 80005f2:	4b16      	ldr	r3, [pc, #88]	; (800064c <MX_CAN1_Init+0x64>)
 80005f4:	2205      	movs	r2, #5
 80005f6:	605a      	str	r2, [r3, #4]
  hcan1.Init.Mode = CAN_MODE_NORMAL;
 80005f8:	4b14      	ldr	r3, [pc, #80]	; (800064c <MX_CAN1_Init+0x64>)
 80005fa:	2200      	movs	r2, #0
 80005fc:	609a      	str	r2, [r3, #8]
  hcan1.Init.SyncJumpWidth = CAN_SJW_1TQ;
 80005fe:	4b13      	ldr	r3, [pc, #76]	; (800064c <MX_CAN1_Init+0x64>)
 8000600:	2200      	movs	r2, #0
 8000602:	60da      	str	r2, [r3, #12]
  hcan1.Init.TimeSeg1 = CAN_BS1_12TQ;
 8000604:	4b11      	ldr	r3, [pc, #68]	; (800064c <MX_CAN1_Init+0x64>)
 8000606:	f44f 2230 	mov.w	r2, #720896	; 0xb0000
 800060a:	611a      	str	r2, [r3, #16]
  hcan1.Init.TimeSeg2 = CAN_BS2_3TQ;
 800060c:	4b0f      	ldr	r3, [pc, #60]	; (800064c <MX_CAN1_Init+0x64>)
 800060e:	f44f 1200 	mov.w	r2, #2097152	; 0x200000
 8000612:	615a      	str	r2, [r3, #20]
  hcan1.Init.TimeTriggeredMode = DISABLE;
 8000614:	4b0d      	ldr	r3, [pc, #52]	; (800064c <MX_CAN1_Init+0x64>)
 8000616:	2200      	movs	r2, #0
 8000618:	761a      	strb	r2, [r3, #24]
  hcan1.Init.AutoBusOff = DISABLE;
 800061a:	4b0c      	ldr	r3, [pc, #48]	; (800064c <MX_CAN1_Init+0x64>)
 800061c:	2200      	movs	r2, #0
 800061e:	765a      	strb	r2, [r3, #25]
  hcan1.Init.AutoWakeUp = DISABLE;
 8000620:	4b0a      	ldr	r3, [pc, #40]	; (800064c <MX_CAN1_Init+0x64>)
 8000622:	2200      	movs	r2, #0
 8000624:	769a      	strb	r2, [r3, #26]
  hcan1.Init.AutoRetransmission = DISABLE;
 8000626:	4b09      	ldr	r3, [pc, #36]	; (800064c <MX_CAN1_Init+0x64>)
 8000628:	2200      	movs	r2, #0
 800062a:	76da      	strb	r2, [r3, #27]
  hcan1.Init.ReceiveFifoLocked = DISABLE;
 800062c:	4b07      	ldr	r3, [pc, #28]	; (800064c <MX_CAN1_Init+0x64>)
 800062e:	2200      	movs	r2, #0
 8000630:	771a      	strb	r2, [r3, #28]
  hcan1.Init.TransmitFifoPriority = DISABLE;
 8000632:	4b06      	ldr	r3, [pc, #24]	; (800064c <MX_CAN1_Init+0x64>)
 8000634:	2200      	movs	r2, #0
 8000636:	775a      	strb	r2, [r3, #29]
  if (HAL_CAN_Init(&hcan1) != HAL_OK)
 8000638:	4804      	ldr	r0, [pc, #16]	; (800064c <MX_CAN1_Init+0x64>)
 800063a:	f000 fa91 	bl	8000b60 <HAL_CAN_Init>
 800063e:	4603      	mov	r3, r0
 8000640:	2b00      	cmp	r3, #0
 8000642:	d001      	beq.n	8000648 <MX_CAN1_Init+0x60>
  {
    Error_Handler();
 8000644:	f000 f8a6 	bl	8000794 <Error_Handler>
  }
  /* USER CODE BEGIN CAN1_Init 2 */

  /* USER CODE END CAN1_Init 2 */

}
 8000648:	bf00      	nop
 800064a:	bd80      	pop	{r7, pc}
 800064c:	200000d8 	.word	0x200000d8
 8000650:	40006400 	.word	0x40006400

08000654 <MX_USART2_UART_Init>:
  * @brief USART2 Initialization Function
  * @param None
  * @retval None
  */
static void MX_USART2_UART_Init(void)
{
 8000654:	b580      	push	{r7, lr}
 8000656:	af00      	add	r7, sp, #0
  /* USER CODE END USART2_Init 0 */

  /* USER CODE BEGIN USART2_Init 1 */

  /* USER CODE END USART2_Init 1 */
  huart2.Instance = USART2;
 8000658:	4b14      	ldr	r3, [pc, #80]	; (80006ac <MX_USART2_UART_Init+0x58>)
 800065a:	4a15      	ldr	r2, [pc, #84]	; (80006b0 <MX_USART2_UART_Init+0x5c>)
 800065c:	601a      	str	r2, [r3, #0]
  huart2.Init.BaudRate = 115200;
 800065e:	4b13      	ldr	r3, [pc, #76]	; (80006ac <MX_USART2_UART_Init+0x58>)
 8000660:	f44f 32e1 	mov.w	r2, #115200	; 0x1c200
 8000664:	605a      	str	r2, [r3, #4]
  huart2.Init.WordLength = UART_WORDLENGTH_8B;
 8000666:	4b11      	ldr	r3, [pc, #68]	; (80006ac <MX_USART2_UART_Init+0x58>)
 8000668:	2200      	movs	r2, #0
 800066a:	609a      	str	r2, [r3, #8]
  huart2.Init.StopBits = UART_STOPBITS_1;
 800066c:	4b0f      	ldr	r3, [pc, #60]	; (80006ac <MX_USART2_UART_Init+0x58>)
 800066e:	2200      	movs	r2, #0
 8000670:	60da      	str	r2, [r3, #12]
  huart2.Init.Parity = UART_PARITY_NONE;
 8000672:	4b0e      	ldr	r3, [pc, #56]	; (80006ac <MX_USART2_UART_Init+0x58>)
 8000674:	2200      	movs	r2, #0
 8000676:	611a      	str	r2, [r3, #16]
  huart2.Init.Mode = UART_MODE_TX_RX;
 8000678:	4b0c      	ldr	r3, [pc, #48]	; (80006ac <MX_USART2_UART_Init+0x58>)
 800067a:	220c      	movs	r2, #12
 800067c:	615a      	str	r2, [r3, #20]
  huart2.Init.HwFlowCtl = UART_HWCONTROL_NONE;
 800067e:	4b0b      	ldr	r3, [pc, #44]	; (80006ac <MX_USART2_UART_Init+0x58>)
 8000680:	2200      	movs	r2, #0
 8000682:	619a      	str	r2, [r3, #24]
  huart2.Init.OverSampling = UART_OVERSAMPLING_16;
 8000684:	4b09      	ldr	r3, [pc, #36]	; (80006ac <MX_USART2_UART_Init+0x58>)
 8000686:	2200      	movs	r2, #0
 8000688:	61da      	str	r2, [r3, #28]
  huart2.Init.OneBitSampling = UART_ONE_BIT_SAMPLE_DISABLE;
 800068a:	4b08      	ldr	r3, [pc, #32]	; (80006ac <MX_USART2_UART_Init+0x58>)
 800068c:	2200      	movs	r2, #0
 800068e:	621a      	str	r2, [r3, #32]
  huart2.AdvancedInit.AdvFeatureInit = UART_ADVFEATURE_NO_INIT;
 8000690:	4b06      	ldr	r3, [pc, #24]	; (80006ac <MX_USART2_UART_Init+0x58>)
 8000692:	2200      	movs	r2, #0
 8000694:	625a      	str	r2, [r3, #36]	; 0x24
  if (HAL_UART_Init(&huart2) != HAL_OK)
 8000696:	4805      	ldr	r0, [pc, #20]	; (80006ac <MX_USART2_UART_Init+0x58>)
 8000698:	f002 fb9a 	bl	8002dd0 <HAL_UART_Init>
 800069c:	4603      	mov	r3, r0
 800069e:	2b00      	cmp	r3, #0
 80006a0:	d001      	beq.n	80006a6 <MX_USART2_UART_Init+0x52>
  {
    Error_Handler();
 80006a2:	f000 f877 	bl	8000794 <Error_Handler>
  }
  /* USER CODE BEGIN USART2_Init 2 */

  /* USER CODE END USART2_Init 2 */

}
 80006a6:	bf00      	nop
 80006a8:	bd80      	pop	{r7, pc}
 80006aa:	bf00      	nop
 80006ac:	20000054 	.word	0x20000054
 80006b0:	40004400 	.word	0x40004400

080006b4 <MX_GPIO_Init>:
  * @brief GPIO Initialization Function
  * @param None
  * @retval None
  */
static void MX_GPIO_Init(void)
{
 80006b4:	b580      	push	{r7, lr}
 80006b6:	b08a      	sub	sp, #40	; 0x28
 80006b8:	af00      	add	r7, sp, #0
  GPIO_InitTypeDef GPIO_InitStruct = {0};
 80006ba:	f107 0314 	add.w	r3, r7, #20
 80006be:	2200      	movs	r2, #0
 80006c0:	601a      	str	r2, [r3, #0]
 80006c2:	605a      	str	r2, [r3, #4]
 80006c4:	609a      	str	r2, [r3, #8]
 80006c6:	60da      	str	r2, [r3, #12]
 80006c8:	611a      	str	r2, [r3, #16]

  /* GPIO Ports Clock Enable */
  __HAL_RCC_GPIOC_CLK_ENABLE();
 80006ca:	4b2f      	ldr	r3, [pc, #188]	; (8000788 <MX_GPIO_Init+0xd4>)
 80006cc:	6cdb      	ldr	r3, [r3, #76]	; 0x4c
 80006ce:	4a2e      	ldr	r2, [pc, #184]	; (8000788 <MX_GPIO_Init+0xd4>)
 80006d0:	f043 0304 	orr.w	r3, r3, #4
 80006d4:	64d3      	str	r3, [r2, #76]	; 0x4c
 80006d6:	4b2c      	ldr	r3, [pc, #176]	; (8000788 <MX_GPIO_Init+0xd4>)
 80006d8:	6cdb      	ldr	r3, [r3, #76]	; 0x4c
 80006da:	f003 0304 	and.w	r3, r3, #4
 80006de:	613b      	str	r3, [r7, #16]
 80006e0:	693b      	ldr	r3, [r7, #16]
  __HAL_RCC_GPIOH_CLK_ENABLE();
 80006e2:	4b29      	ldr	r3, [pc, #164]	; (8000788 <MX_GPIO_Init+0xd4>)
 80006e4:	6cdb      	ldr	r3, [r3, #76]	; 0x4c
 80006e6:	4a28      	ldr	r2, [pc, #160]	; (8000788 <MX_GPIO_Init+0xd4>)
 80006e8:	f043 0380 	orr.w	r3, r3, #128	; 0x80
 80006ec:	64d3      	str	r3, [r2, #76]	; 0x4c
 80006ee:	4b26      	ldr	r3, [pc, #152]	; (8000788 <MX_GPIO_Init+0xd4>)
 80006f0:	6cdb      	ldr	r3, [r3, #76]	; 0x4c
 80006f2:	f003 0380 	and.w	r3, r3, #128	; 0x80
 80006f6:	60fb      	str	r3, [r7, #12]
 80006f8:	68fb      	ldr	r3, [r7, #12]
  __HAL_RCC_GPIOA_CLK_ENABLE();
 80006fa:	4b23      	ldr	r3, [pc, #140]	; (8000788 <MX_GPIO_Init+0xd4>)
 80006fc:	6cdb      	ldr	r3, [r3, #76]	; 0x4c
 80006fe:	4a22      	ldr	r2, [pc, #136]	; (8000788 <MX_GPIO_Init+0xd4>)
 8000700:	f043 0301 	orr.w	r3, r3, #1
 8000704:	64d3      	str	r3, [r2, #76]	; 0x4c
 8000706:	4b20      	ldr	r3, [pc, #128]	; (8000788 <MX_GPIO_Init+0xd4>)
 8000708:	6cdb      	ldr	r3, [r3, #76]	; 0x4c
 800070a:	f003 0301 	and.w	r3, r3, #1
 800070e:	60bb      	str	r3, [r7, #8]
 8000710:	68bb      	ldr	r3, [r7, #8]
  __HAL_RCC_GPIOB_CLK_ENABLE();
 8000712:	4b1d      	ldr	r3, [pc, #116]	; (8000788 <MX_GPIO_Init+0xd4>)
 8000714:	6cdb      	ldr	r3, [r3, #76]	; 0x4c
 8000716:	4a1c      	ldr	r2, [pc, #112]	; (8000788 <MX_GPIO_Init+0xd4>)
 8000718:	f043 0302 	orr.w	r3, r3, #2
 800071c:	64d3      	str	r3, [r2, #76]	; 0x4c
 800071e:	4b1a      	ldr	r3, [pc, #104]	; (8000788 <MX_GPIO_Init+0xd4>)
 8000720:	6cdb      	ldr	r3, [r3, #76]	; 0x4c
 8000722:	f003 0302 	and.w	r3, r3, #2
 8000726:	607b      	str	r3, [r7, #4]
 8000728:	687b      	ldr	r3, [r7, #4]

  /*Configure GPIO pin Output Level */
  HAL_GPIO_WritePin(LD2_GPIO_Port, LD2_Pin, GPIO_PIN_RESET);
 800072a:	2200      	movs	r2, #0
 800072c:	2120      	movs	r1, #32
 800072e:	f04f 4090 	mov.w	r0, #1207959552	; 0x48000000
 8000732:	f001 f805 	bl	8001740 <HAL_GPIO_WritePin>

  /*Configure GPIO pin : B1_Pin */
  GPIO_InitStruct.Pin = B1_Pin;
 8000736:	f44f 5300 	mov.w	r3, #8192	; 0x2000
 800073a:	617b      	str	r3, [r7, #20]
  GPIO_InitStruct.Mode = GPIO_MODE_IT_FALLING;
 800073c:	4b13      	ldr	r3, [pc, #76]	; (800078c <MX_GPIO_Init+0xd8>)
 800073e:	61bb      	str	r3, [r7, #24]
  GPIO_InitStruct.Pull = GPIO_NOPULL;
 8000740:	2300      	movs	r3, #0
 8000742:	61fb      	str	r3, [r7, #28]
  HAL_GPIO_Init(B1_GPIO_Port, &GPIO_InitStruct);
 8000744:	f107 0314 	add.w	r3, r7, #20
 8000748:	4619      	mov	r1, r3
 800074a:	4811      	ldr	r0, [pc, #68]	; (8000790 <MX_GPIO_Init+0xdc>)
 800074c:	f000 fe4e 	bl	80013ec <HAL_GPIO_Init>

  /*Configure GPIO pin : LD2_Pin */
  GPIO_InitStruct.Pin = LD2_Pin;
 8000750:	2320      	movs	r3, #32
 8000752:	617b      	str	r3, [r7, #20]
  GPIO_InitStruct.Mode = GPIO_MODE_OUTPUT_PP;
 8000754:	2301      	movs	r3, #1
 8000756:	61bb      	str	r3, [r7, #24]
  GPIO_InitStruct.Pull = GPIO_NOPULL;
 8000758:	2300      	movs	r3, #0
 800075a:	61fb      	str	r3, [r7, #28]
  GPIO_InitStruct.Speed = GPIO_SPEED_FREQ_LOW;
 800075c:	2300      	movs	r3, #0
 800075e:	623b      	str	r3, [r7, #32]
  HAL_GPIO_Init(LD2_GPIO_Port, &GPIO_InitStruct);
 8000760:	f107 0314 	add.w	r3, r7, #20
 8000764:	4619      	mov	r1, r3
 8000766:	f04f 4090 	mov.w	r0, #1207959552	; 0x48000000
 800076a:	f000 fe3f 	bl	80013ec <HAL_GPIO_Init>

  /* EXTI interrupt init*/
  HAL_NVIC_SetPriority(EXTI15_10_IRQn, 1, 0);
 800076e:	2200      	movs	r2, #0
 8000770:	2101      	movs	r1, #1
 8000772:	2028      	movs	r0, #40	; 0x28
 8000774:	f000 fe03 	bl	800137e <HAL_NVIC_SetPriority>
  HAL_NVIC_EnableIRQ(EXTI15_10_IRQn);
 8000778:	2028      	movs	r0, #40	; 0x28
 800077a:	f000 fe1c 	bl	80013b6 <HAL_NVIC_EnableIRQ>

}
 800077e:	bf00      	nop
 8000780:	3728      	adds	r7, #40	; 0x28
 8000782:	46bd      	mov	sp, r7
 8000784:	bd80      	pop	{r7, pc}
 8000786:	bf00      	nop
 8000788:	40021000 	.word	0x40021000
 800078c:	10210000 	.word	0x10210000
 8000790:	48000800 	.word	0x48000800

08000794 <Error_Handler>:
/**
  * @brief  This function is executed in case of error occurrence.
  * @retval None
  */
void Error_Handler(void)
{
 8000794:	b480      	push	{r7}
 8000796:	af00      	add	r7, sp, #0
  \details Disables IRQ interrupts by setting the I-bit in the CPSR.
           Can only be executed in Privileged modes.
 */
__STATIC_FORCEINLINE void __disable_irq(void)
{
  __ASM volatile ("cpsid i" : : : "memory");
 8000798:	b672      	cpsid	i
}
 800079a:	bf00      	nop
  /* USER CODE BEGIN Error_Handler_Debug */
  /* User can add his own implementation to report the HAL error return state */
  __disable_irq();
  while (1)
 800079c:	e7fe      	b.n	800079c <Error_Handler+0x8>
	...

080007a0 <HAL_MspInit>:
/* USER CODE END 0 */
/**
  * Initializes the Global MSP.
  */
void HAL_MspInit(void)
{
 80007a0:	b480      	push	{r7}
 80007a2:	b083      	sub	sp, #12
 80007a4:	af00      	add	r7, sp, #0
  /* USER CODE BEGIN MspInit 0 */

  /* USER CODE END MspInit 0 */

  __HAL_RCC_SYSCFG_CLK_ENABLE();
 80007a6:	4b0f      	ldr	r3, [pc, #60]	; (80007e4 <HAL_MspInit+0x44>)
 80007a8:	6e1b      	ldr	r3, [r3, #96]	; 0x60
 80007aa:	4a0e      	ldr	r2, [pc, #56]	; (80007e4 <HAL_MspInit+0x44>)
 80007ac:	f043 0301 	orr.w	r3, r3, #1
 80007b0:	6613      	str	r3, [r2, #96]	; 0x60
 80007b2:	4b0c      	ldr	r3, [pc, #48]	; (80007e4 <HAL_MspInit+0x44>)
 80007b4:	6e1b      	ldr	r3, [r3, #96]	; 0x60
 80007b6:	f003 0301 	and.w	r3, r3, #1
 80007ba:	607b      	str	r3, [r7, #4]
 80007bc:	687b      	ldr	r3, [r7, #4]
  __HAL_RCC_PWR_CLK_ENABLE();
 80007be:	4b09      	ldr	r3, [pc, #36]	; (80007e4 <HAL_MspInit+0x44>)
 80007c0:	6d9b      	ldr	r3, [r3, #88]	; 0x58
 80007c2:	4a08      	ldr	r2, [pc, #32]	; (80007e4 <HAL_MspInit+0x44>)
 80007c4:	f043 5380 	orr.w	r3, r3, #268435456	; 0x10000000
 80007c8:	6593      	str	r3, [r2, #88]	; 0x58
 80007ca:	4b06      	ldr	r3, [pc, #24]	; (80007e4 <HAL_MspInit+0x44>)
 80007cc:	6d9b      	ldr	r3, [r3, #88]	; 0x58
 80007ce:	f003 5380 	and.w	r3, r3, #268435456	; 0x10000000
 80007d2:	603b      	str	r3, [r7, #0]
 80007d4:	683b      	ldr	r3, [r7, #0]
  /* System interrupt init*/

  /* USER CODE BEGIN MspInit 1 */

  /* USER CODE END MspInit 1 */
}
 80007d6:	bf00      	nop
 80007d8:	370c      	adds	r7, #12
 80007da:	46bd      	mov	sp, r7
 80007dc:	f85d 7b04 	ldr.w	r7, [sp], #4
 80007e0:	4770      	bx	lr
 80007e2:	bf00      	nop
 80007e4:	40021000 	.word	0x40021000

080007e8 <HAL_CAN_MspInit>:
* This function configures the hardware resources used in this example
* @param hcan: CAN handle pointer
* @retval None
*/
void HAL_CAN_MspInit(CAN_HandleTypeDef* hcan)
{
 80007e8:	b580      	push	{r7, lr}
 80007ea:	b08a      	sub	sp, #40	; 0x28
 80007ec:	af00      	add	r7, sp, #0
 80007ee:	6078      	str	r0, [r7, #4]
  GPIO_InitTypeDef GPIO_InitStruct = {0};
 80007f0:	f107 0314 	add.w	r3, r7, #20
 80007f4:	2200      	movs	r2, #0
 80007f6:	601a      	str	r2, [r3, #0]
 80007f8:	605a      	str	r2, [r3, #4]
 80007fa:	609a      	str	r2, [r3, #8]
 80007fc:	60da      	str	r2, [r3, #12]
 80007fe:	611a      	str	r2, [r3, #16]
  if(hcan->Instance==CAN1)
 8000800:	687b      	ldr	r3, [r7, #4]
 8000802:	681b      	ldr	r3, [r3, #0]
 8000804:	4a1c      	ldr	r2, [pc, #112]	; (8000878 <HAL_CAN_MspInit+0x90>)
 8000806:	4293      	cmp	r3, r2
 8000808:	d131      	bne.n	800086e <HAL_CAN_MspInit+0x86>
  {
  /* USER CODE BEGIN CAN1_MspInit 0 */

  /* USER CODE END CAN1_MspInit 0 */
    /* Peripheral clock enable */
    __HAL_RCC_CAN1_CLK_ENABLE();
 800080a:	4b1c      	ldr	r3, [pc, #112]	; (800087c <HAL_CAN_MspInit+0x94>)
 800080c:	6d9b      	ldr	r3, [r3, #88]	; 0x58
 800080e:	4a1b      	ldr	r2, [pc, #108]	; (800087c <HAL_CAN_MspInit+0x94>)
 8000810:	f043 7300 	orr.w	r3, r3, #33554432	; 0x2000000
 8000814:	6593      	str	r3, [r2, #88]	; 0x58
 8000816:	4b19      	ldr	r3, [pc, #100]	; (800087c <HAL_CAN_MspInit+0x94>)
 8000818:	6d9b      	ldr	r3, [r3, #88]	; 0x58
 800081a:	f003 7300 	and.w	r3, r3, #33554432	; 0x2000000
 800081e:	613b      	str	r3, [r7, #16]
 8000820:	693b      	ldr	r3, [r7, #16]

    __HAL_RCC_GPIOA_CLK_ENABLE();
 8000822:	4b16      	ldr	r3, [pc, #88]	; (800087c <HAL_CAN_MspInit+0x94>)
 8000824:	6cdb      	ldr	r3, [r3, #76]	; 0x4c
 8000826:	4a15      	ldr	r2, [pc, #84]	; (800087c <HAL_CAN_MspInit+0x94>)
 8000828:	f043 0301 	orr.w	r3, r3, #1
 800082c:	64d3      	str	r3, [r2, #76]	; 0x4c
 800082e:	4b13      	ldr	r3, [pc, #76]	; (800087c <HAL_CAN_MspInit+0x94>)
 8000830:	6cdb      	ldr	r3, [r3, #76]	; 0x4c
 8000832:	f003 0301 	and.w	r3, r3, #1
 8000836:	60fb      	str	r3, [r7, #12]
 8000838:	68fb      	ldr	r3, [r7, #12]
    /**CAN1 GPIO Configuration
    PA11     ------> CAN1_RX
    PA12     ------> CAN1_TX
    */
    GPIO_InitStruct.Pin = GPIO_PIN_11|GPIO_PIN_12;
 800083a:	f44f 53c0 	mov.w	r3, #6144	; 0x1800
 800083e:	617b      	str	r3, [r7, #20]
    GPIO_InitStruct.Mode = GPIO_MODE_AF_PP;
 8000840:	2302      	movs	r3, #2
 8000842:	61bb      	str	r3, [r7, #24]
    GPIO_InitStruct.Pull = GPIO_NOPULL;
 8000844:	2300      	movs	r3, #0
 8000846:	61fb      	str	r3, [r7, #28]
    GPIO_InitStruct.Speed = GPIO_SPEED_FREQ_VERY_HIGH;
 8000848:	2303      	movs	r3, #3
 800084a:	623b      	str	r3, [r7, #32]
    GPIO_InitStruct.Alternate = GPIO_AF9_CAN1;
 800084c:	2309      	movs	r3, #9
 800084e:	627b      	str	r3, [r7, #36]	; 0x24
    HAL_GPIO_Init(GPIOA, &GPIO_InitStruct);
 8000850:	f107 0314 	add.w	r3, r7, #20
 8000854:	4619      	mov	r1, r3
 8000856:	f04f 4090 	mov.w	r0, #1207959552	; 0x48000000
 800085a:	f000 fdc7 	bl	80013ec <HAL_GPIO_Init>

    /* CAN1 interrupt Init */
    HAL_NVIC_SetPriority(CAN1_RX0_IRQn, 2, 0);
 800085e:	2200      	movs	r2, #0
 8000860:	2102      	movs	r1, #2
 8000862:	2014      	movs	r0, #20
 8000864:	f000 fd8b 	bl	800137e <HAL_NVIC_SetPriority>
    HAL_NVIC_EnableIRQ(CAN1_RX0_IRQn);
 8000868:	2014      	movs	r0, #20
 800086a:	f000 fda4 	bl	80013b6 <HAL_NVIC_EnableIRQ>
  /* USER CODE BEGIN CAN1_MspInit 1 */

  /* USER CODE END CAN1_MspInit 1 */
  }

}
 800086e:	bf00      	nop
 8000870:	3728      	adds	r7, #40	; 0x28
 8000872:	46bd      	mov	sp, r7
 8000874:	bd80      	pop	{r7, pc}
 8000876:	bf00      	nop
 8000878:	40006400 	.word	0x40006400
 800087c:	40021000 	.word	0x40021000

08000880 <HAL_UART_MspInit>:
* This function configures the hardware resources used in this example
* @param huart: UART handle pointer
* @retval None
*/
void HAL_UART_MspInit(UART_HandleTypeDef* huart)
{
 8000880:	b580      	push	{r7, lr}
 8000882:	b0ac      	sub	sp, #176	; 0xb0
 8000884:	af00      	add	r7, sp, #0
 8000886:	6078      	str	r0, [r7, #4]
  GPIO_InitTypeDef GPIO_InitStruct = {0};
 8000888:	f107 039c 	add.w	r3, r7, #156	; 0x9c
 800088c:	2200      	movs	r2, #0
 800088e:	601a      	str	r2, [r3, #0]
 8000890:	605a      	str	r2, [r3, #4]
 8000892:	609a      	str	r2, [r3, #8]
 8000894:	60da      	str	r2, [r3, #12]
 8000896:	611a      	str	r2, [r3, #16]
  RCC_PeriphCLKInitTypeDef PeriphClkInit = {0};
 8000898:	f107 0314 	add.w	r3, r7, #20
 800089c:	2288      	movs	r2, #136	; 0x88
 800089e:	2100      	movs	r1, #0
 80008a0:	4618      	mov	r0, r3
 80008a2:	f002 fef9 	bl	8003698 <memset>
  if(huart->Instance==USART2)
 80008a6:	687b      	ldr	r3, [r7, #4]
 80008a8:	681b      	ldr	r3, [r3, #0]
 80008aa:	4a21      	ldr	r2, [pc, #132]	; (8000930 <HAL_UART_MspInit+0xb0>)
 80008ac:	4293      	cmp	r3, r2
 80008ae:	d13b      	bne.n	8000928 <HAL_UART_MspInit+0xa8>
  /* USER CODE BEGIN USART2_MspInit 0 */

  /* USER CODE END USART2_MspInit 0 */
  /** Initializes the peripherals clock
  */
    PeriphClkInit.PeriphClockSelection = RCC_PERIPHCLK_USART2;
 80008b0:	2302      	movs	r3, #2
 80008b2:	617b      	str	r3, [r7, #20]
    PeriphClkInit.Usart2ClockSelection = RCC_USART2CLKSOURCE_PCLK1;
 80008b4:	2300      	movs	r3, #0
 80008b6:	653b      	str	r3, [r7, #80]	; 0x50
    if (HAL_RCCEx_PeriphCLKConfig(&PeriphClkInit) != HAL_OK)
 80008b8:	f107 0314 	add.w	r3, r7, #20
 80008bc:	4618      	mov	r0, r3
 80008be:	f001 fdcb 	bl	8002458 <HAL_RCCEx_PeriphCLKConfig>
 80008c2:	4603      	mov	r3, r0
 80008c4:	2b00      	cmp	r3, #0
 80008c6:	d001      	beq.n	80008cc <HAL_UART_MspInit+0x4c>
    {
      Error_Handler();
 80008c8:	f7ff ff64 	bl	8000794 <Error_Handler>
    }

    /* Peripheral clock enable */
    __HAL_RCC_USART2_CLK_ENABLE();
 80008cc:	4b19      	ldr	r3, [pc, #100]	; (8000934 <HAL_UART_MspInit+0xb4>)
 80008ce:	6d9b      	ldr	r3, [r3, #88]	; 0x58
 80008d0:	4a18      	ldr	r2, [pc, #96]	; (8000934 <HAL_UART_MspInit+0xb4>)
 80008d2:	f443 3300 	orr.w	r3, r3, #131072	; 0x20000
 80008d6:	6593      	str	r3, [r2, #88]	; 0x58
 80008d8:	4b16      	ldr	r3, [pc, #88]	; (8000934 <HAL_UART_MspInit+0xb4>)
 80008da:	6d9b      	ldr	r3, [r3, #88]	; 0x58
 80008dc:	f403 3300 	and.w	r3, r3, #131072	; 0x20000
 80008e0:	613b      	str	r3, [r7, #16]
 80008e2:	693b      	ldr	r3, [r7, #16]

    __HAL_RCC_GPIOA_CLK_ENABLE();
 80008e4:	4b13      	ldr	r3, [pc, #76]	; (8000934 <HAL_UART_MspInit+0xb4>)
 80008e6:	6cdb      	ldr	r3, [r3, #76]	; 0x4c
 80008e8:	4a12      	ldr	r2, [pc, #72]	; (8000934 <HAL_UART_MspInit+0xb4>)
 80008ea:	f043 0301 	orr.w	r3, r3, #1
 80008ee:	64d3      	str	r3, [r2, #76]	; 0x4c
 80008f0:	4b10      	ldr	r3, [pc, #64]	; (8000934 <HAL_UART_MspInit+0xb4>)
 80008f2:	6cdb      	ldr	r3, [r3, #76]	; 0x4c
 80008f4:	f003 0301 	and.w	r3, r3, #1
 80008f8:	60fb      	str	r3, [r7, #12]
 80008fa:	68fb      	ldr	r3, [r7, #12]
    /**USART2 GPIO Configuration
    PA2     ------> USART2_TX
    PA3     ------> USART2_RX
    */
    GPIO_InitStruct.Pin = USART_TX_Pin|USART_RX_Pin;
 80008fc:	230c      	movs	r3, #12
 80008fe:	f8c7 309c 	str.w	r3, [r7, #156]	; 0x9c
    GPIO_InitStruct.Mode = GPIO_MODE_AF_PP;
 8000902:	2302      	movs	r3, #2
 8000904:	f8c7 30a0 	str.w	r3, [r7, #160]	; 0xa0
    GPIO_InitStruct.Pull = GPIO_NOPULL;
 8000908:	2300      	movs	r3, #0
 800090a:	f8c7 30a4 	str.w	r3, [r7, #164]	; 0xa4
    GPIO_InitStruct.Speed = GPIO_SPEED_FREQ_VERY_HIGH;
 800090e:	2303      	movs	r3, #3
 8000910:	f8c7 30a8 	str.w	r3, [r7, #168]	; 0xa8
    GPIO_InitStruct.Alternate = GPIO_AF7_USART2;
 8000914:	2307      	movs	r3, #7
 8000916:	f8c7 30ac 	str.w	r3, [r7, #172]	; 0xac
    HAL_GPIO_Init(GPIOA, &GPIO_InitStruct);
 800091a:	f107 039c 	add.w	r3, r7, #156	; 0x9c
 800091e:	4619      	mov	r1, r3
 8000920:	f04f 4090 	mov.w	r0, #1207959552	; 0x48000000
 8000924:	f000 fd62 	bl	80013ec <HAL_GPIO_Init>
  /* USER CODE BEGIN USART2_MspInit 1 */

  /* USER CODE END USART2_MspInit 1 */
  }

}
 8000928:	bf00      	nop
 800092a:	37b0      	adds	r7, #176	; 0xb0
 800092c:	46bd      	mov	sp, r7
 800092e:	bd80      	pop	{r7, pc}
 8000930:	40004400 	.word	0x40004400
 8000934:	40021000 	.word	0x40021000

08000938 <NMI_Handler>:
/******************************************************************************/
/**
  * @brief This function handles Non maskable interrupt.
  */
void NMI_Handler(void)
{
 8000938:	b480      	push	{r7}
 800093a:	af00      	add	r7, sp, #0
  /* USER CODE BEGIN NonMaskableInt_IRQn 0 */

  /* USER CODE END NonMaskableInt_IRQn 0 */
  /* USER CODE BEGIN NonMaskableInt_IRQn 1 */
  while (1)
 800093c:	e7fe      	b.n	800093c <NMI_Handler+0x4>

0800093e <HardFault_Handler>:

/**
  * @brief This function handles Hard fault interrupt.
  */
void HardFault_Handler(void)
{
 800093e:	b480      	push	{r7}
 8000940:	af00      	add	r7, sp, #0
  /* USER CODE BEGIN HardFault_IRQn 0 */

  /* USER CODE END HardFault_IRQn 0 */
  while (1)
 8000942:	e7fe      	b.n	8000942 <HardFault_Handler+0x4>

08000944 <MemManage_Handler>:

/**
  * @brief This function handles Memory management fault.
  */
void MemManage_Handler(void)
{
 8000944:	b480      	push	{r7}
 8000946:	af00      	add	r7, sp, #0
  /* USER CODE BEGIN MemoryManagement_IRQn 0 */

  /* USER CODE END MemoryManagement_IRQn 0 */
  while (1)
 8000948:	e7fe      	b.n	8000948 <MemManage_Handler+0x4>

0800094a <BusFault_Handler>:

/**
  * @brief This function handles Prefetch fault, memory access fault.
  */
void BusFault_Handler(void)
{
 800094a:	b480      	push	{r7}
 800094c:	af00      	add	r7, sp, #0
  /* USER CODE BEGIN BusFault_IRQn 0 */

  /* USER CODE END BusFault_IRQn 0 */
  while (1)
 800094e:	e7fe      	b.n	800094e <BusFault_Handler+0x4>

08000950 <UsageFault_Handler>:

/**
  * @brief This function handles Undefined instruction or illegal state.
  */
void UsageFault_Handler(void)
{
 8000950:	b480      	push	{r7}
 8000952:	af00      	add	r7, sp, #0
  /* USER CODE BEGIN UsageFault_IRQn 0 */

  /* USER CODE END UsageFault_IRQn 0 */
  while (1)
 8000954:	e7fe      	b.n	8000954 <UsageFault_Handler+0x4>

08000956 <SVC_Handler>:

/**
  * @brief This function handles System service call via SWI instruction.
  */
void SVC_Handler(void)
{
 8000956:	b480      	push	{r7}
 8000958:	af00      	add	r7, sp, #0

  /* USER CODE END SVCall_IRQn 0 */
  /* USER CODE BEGIN SVCall_IRQn 1 */

  /* USER CODE END SVCall_IRQn 1 */
}
 800095a:	bf00      	nop
 800095c:	46bd      	mov	sp, r7
 800095e:	f85d 7b04 	ldr.w	r7, [sp], #4
 8000962:	4770      	bx	lr

08000964 <DebugMon_Handler>:

/**
  * @brief This function handles Debug monitor.
  */
void DebugMon_Handler(void)
{
 8000964:	b480      	push	{r7}
 8000966:	af00      	add	r7, sp, #0

  /* USER CODE END DebugMonitor_IRQn 0 */
  /* USER CODE BEGIN DebugMonitor_IRQn 1 */

  /* USER CODE END DebugMonitor_IRQn 1 */
}
 8000968:	bf00      	nop
 800096a:	46bd      	mov	sp, r7
 800096c:	f85d 7b04 	ldr.w	r7, [sp], #4
 8000970:	4770      	bx	lr

08000972 <PendSV_Handler>:

/**
  * @brief This function handles Pendable request for system service.
  */
void PendSV_Handler(void)
{
 8000972:	b480      	push	{r7}
 8000974:	af00      	add	r7, sp, #0

  /* USER CODE END PendSV_IRQn 0 */
  /* USER CODE BEGIN PendSV_IRQn 1 */

  /* USER CODE END PendSV_IRQn 1 */
}
 8000976:	bf00      	nop
 8000978:	46bd      	mov	sp, r7
 800097a:	f85d 7b04 	ldr.w	r7, [sp], #4
 800097e:	4770      	bx	lr

08000980 <SysTick_Handler>:

/**
  * @brief This function handles System tick timer.
  */
void SysTick_Handler(void)
{
 8000980:	b580      	push	{r7, lr}
 8000982:	af00      	add	r7, sp, #0
  /* USER CODE BEGIN SysTick_IRQn 0 */

  /* USER CODE END SysTick_IRQn 0 */
  HAL_IncTick();
 8000984:	f000 f8cc 	bl	8000b20 <HAL_IncTick>
  /* USER CODE BEGIN SysTick_IRQn 1 */

  /* USER CODE END SysTick_IRQn 1 */
}
 8000988:	bf00      	nop
 800098a:	bd80      	pop	{r7, pc}

0800098c <CAN1_RX0_IRQHandler>:

/**
  * @brief This function handles CAN1 RX0 interrupt.
  */
void CAN1_RX0_IRQHandler(void)
{
 800098c:	b580      	push	{r7, lr}
 800098e:	af00      	add	r7, sp, #0
  /* USER CODE BEGIN CAN1_RX0_IRQn 0 */

  /* USER CODE END CAN1_RX0_IRQn 0 */
  HAL_CAN_IRQHandler(&hcan1);
 8000990:	4802      	ldr	r0, [pc, #8]	; (800099c <CAN1_RX0_IRQHandler+0x10>)
 8000992:	f000 f9e0 	bl	8000d56 <HAL_CAN_IRQHandler>
  /* USER CODE BEGIN CAN1_RX0_IRQn 1 */

  /* USER CODE END CAN1_RX0_IRQn 1 */
}
 8000996:	bf00      	nop
 8000998:	bd80      	pop	{r7, pc}
 800099a:	bf00      	nop
 800099c:	200000d8 	.word	0x200000d8

080009a0 <EXTI15_10_IRQHandler>:

/**
  * @brief This function handles EXTI line[15:10] interrupts.
  */
void EXTI15_10_IRQHandler(void)
{
 80009a0:	b580      	push	{r7, lr}
 80009a2:	af00      	add	r7, sp, #0
  /* USER CODE BEGIN EXTI15_10_IRQn 0 */

  /* USER CODE END EXTI15_10_IRQn 0 */
  HAL_GPIO_EXTI_IRQHandler(GPIO_PIN_13);
 80009a4:	f44f 5000 	mov.w	r0, #8192	; 0x2000
 80009a8:	f000 fee2 	bl	8001770 <HAL_GPIO_EXTI_IRQHandler>
  /* USER CODE BEGIN EXTI15_10_IRQn 1 */

  /* USER CODE END EXTI15_10_IRQn 1 */
}
 80009ac:	bf00      	nop
 80009ae:	bd80      	pop	{r7, pc}

080009b0 <SystemInit>:
  * @brief  Setup the microcontroller system.
  * @retval None
  */

void SystemInit(void)
{
 80009b0:	b480      	push	{r7}
 80009b2:	af00      	add	r7, sp, #0
  SCB->VTOR = VECT_TAB_BASE_ADDRESS | VECT_TAB_OFFSET;
#endif

  /* FPU settings ------------------------------------------------------------*/
#if (__FPU_PRESENT == 1) && (__FPU_USED == 1)
  SCB->CPACR |= ((3UL << 20U)|(3UL << 22U));  /* set CP10 and CP11 Full Access */
 80009b4:	4b15      	ldr	r3, [pc, #84]	; (8000a0c <SystemInit+0x5c>)
 80009b6:	f8d3 3088 	ldr.w	r3, [r3, #136]	; 0x88
 80009ba:	4a14      	ldr	r2, [pc, #80]	; (8000a0c <SystemInit+0x5c>)
 80009bc:	f443 0370 	orr.w	r3, r3, #15728640	; 0xf00000
 80009c0:	f8c2 3088 	str.w	r3, [r2, #136]	; 0x88
#endif

  /* Reset the RCC clock configuration to the default reset state ------------*/
  /* Set MSION bit */
  RCC->CR |= RCC_CR_MSION;
 80009c4:	4b12      	ldr	r3, [pc, #72]	; (8000a10 <SystemInit+0x60>)
 80009c6:	681b      	ldr	r3, [r3, #0]
 80009c8:	4a11      	ldr	r2, [pc, #68]	; (8000a10 <SystemInit+0x60>)
 80009ca:	f043 0301 	orr.w	r3, r3, #1
 80009ce:	6013      	str	r3, [r2, #0]

  /* Reset CFGR register */
  RCC->CFGR = 0x00000000U;
 80009d0:	4b0f      	ldr	r3, [pc, #60]	; (8000a10 <SystemInit+0x60>)
 80009d2:	2200      	movs	r2, #0
 80009d4:	609a      	str	r2, [r3, #8]

  /* Reset HSEON, CSSON , HSION, and PLLON bits */
  RCC->CR &= 0xEAF6FFFFU;
 80009d6:	4b0e      	ldr	r3, [pc, #56]	; (8000a10 <SystemInit+0x60>)
 80009d8:	681b      	ldr	r3, [r3, #0]
 80009da:	4a0d      	ldr	r2, [pc, #52]	; (8000a10 <SystemInit+0x60>)
 80009dc:	f023 53a8 	bic.w	r3, r3, #352321536	; 0x15000000
 80009e0:	f423 2310 	bic.w	r3, r3, #589824	; 0x90000
 80009e4:	6013      	str	r3, [r2, #0]

  /* Reset PLLCFGR register */
  RCC->PLLCFGR = 0x00001000U;
 80009e6:	4b0a      	ldr	r3, [pc, #40]	; (8000a10 <SystemInit+0x60>)
 80009e8:	f44f 5280 	mov.w	r2, #4096	; 0x1000
 80009ec:	60da      	str	r2, [r3, #12]

  /* Reset HSEBYP bit */
  RCC->CR &= 0xFFFBFFFFU;
 80009ee:	4b08      	ldr	r3, [pc, #32]	; (8000a10 <SystemInit+0x60>)
 80009f0:	681b      	ldr	r3, [r3, #0]
 80009f2:	4a07      	ldr	r2, [pc, #28]	; (8000a10 <SystemInit+0x60>)
 80009f4:	f423 2380 	bic.w	r3, r3, #262144	; 0x40000
 80009f8:	6013      	str	r3, [r2, #0]

  /* Disable all interrupts */
  RCC->CIER = 0x00000000U;
 80009fa:	4b05      	ldr	r3, [pc, #20]	; (8000a10 <SystemInit+0x60>)
 80009fc:	2200      	movs	r2, #0
 80009fe:	619a      	str	r2, [r3, #24]
}
 8000a00:	bf00      	nop
 8000a02:	46bd      	mov	sp, r7
 8000a04:	f85d 7b04 	ldr.w	r7, [sp], #4
 8000a08:	4770      	bx	lr
 8000a0a:	bf00      	nop
 8000a0c:	e000ed00 	.word	0xe000ed00
 8000a10:	40021000 	.word	0x40021000

08000a14 <Reset_Handler>:

    .section	.text.Reset_Handler
	.weak	Reset_Handler
	.type	Reset_Handler, %function
Reset_Handler:
  ldr   sp, =_estack    /* Set stack pointer */
 8000a14:	f8df d034 	ldr.w	sp, [pc, #52]	; 8000a4c <LoopForever+0x2>

/* Call the clock system initialization function.*/
    bl  SystemInit
 8000a18:	f7ff ffca 	bl	80009b0 <SystemInit>

/* Copy the data segment initializers from flash to SRAM */
  movs	r1, #0
 8000a1c:	2100      	movs	r1, #0
  b	LoopCopyDataInit
 8000a1e:	e003      	b.n	8000a28 <LoopCopyDataInit>

08000a20 <CopyDataInit>:

CopyDataInit:
	ldr	r3, =_sidata
 8000a20:	4b0b      	ldr	r3, [pc, #44]	; (8000a50 <LoopForever+0x6>)
	ldr	r3, [r3, r1]
 8000a22:	585b      	ldr	r3, [r3, r1]
	str	r3, [r0, r1]
 8000a24:	5043      	str	r3, [r0, r1]
	adds	r1, r1, #4
 8000a26:	3104      	adds	r1, #4

08000a28 <LoopCopyDataInit>:

LoopCopyDataInit:
	ldr	r0, =_sdata
 8000a28:	480a      	ldr	r0, [pc, #40]	; (8000a54 <LoopForever+0xa>)
	ldr	r3, =_edata
 8000a2a:	4b0b      	ldr	r3, [pc, #44]	; (8000a58 <LoopForever+0xe>)
	adds	r2, r0, r1
 8000a2c:	1842      	adds	r2, r0, r1
	cmp	r2, r3
 8000a2e:	429a      	cmp	r2, r3
	bcc	CopyDataInit
 8000a30:	d3f6      	bcc.n	8000a20 <CopyDataInit>
	ldr	r2, =_sbss
 8000a32:	4a0a      	ldr	r2, [pc, #40]	; (8000a5c <LoopForever+0x12>)
	b	LoopFillZerobss
 8000a34:	e002      	b.n	8000a3c <LoopFillZerobss>

08000a36 <FillZerobss>:
/* Zero fill the bss segment. */
FillZerobss:
	movs	r3, #0
 8000a36:	2300      	movs	r3, #0
	str	r3, [r2], #4
 8000a38:	f842 3b04 	str.w	r3, [r2], #4

08000a3c <LoopFillZerobss>:

LoopFillZerobss:
	ldr	r3, = _ebss
 8000a3c:	4b08      	ldr	r3, [pc, #32]	; (8000a60 <LoopForever+0x16>)
	cmp	r2, r3
 8000a3e:	429a      	cmp	r2, r3
	bcc	FillZerobss
 8000a40:	d3f9      	bcc.n	8000a36 <FillZerobss>

/* Call static constructors */
    bl __libc_init_array
 8000a42:	f002 fe05 	bl	8003650 <__libc_init_array>
/* Call the application's entry point.*/
	bl	main
 8000a46:	f7ff fd3b 	bl	80004c0 <main>

08000a4a <LoopForever>:

LoopForever:
    b LoopForever
 8000a4a:	e7fe      	b.n	8000a4a <LoopForever>
  ldr   sp, =_estack    /* Set stack pointer */
 8000a4c:	20018000 	.word	0x20018000
	ldr	r3, =_sidata
 8000a50:	08003718 	.word	0x08003718
	ldr	r0, =_sdata
 8000a54:	20000000 	.word	0x20000000
	ldr	r3, =_edata
 8000a58:	2000000c 	.word	0x2000000c
	ldr	r2, =_sbss
 8000a5c:	2000000c 	.word	0x2000000c
	ldr	r3, = _ebss
 8000a60:	20000138 	.word	0x20000138

08000a64 <ADC1_2_IRQHandler>:
 * @retval : None
*/
    .section	.text.Default_Handler,"ax",%progbits
Default_Handler:
Infinite_Loop:
	b	Infinite_Loop
 8000a64:	e7fe      	b.n	8000a64 <ADC1_2_IRQHandler>
	...

08000a68 <HAL_Init>:
  *         each 1ms in the SysTick_Handler() interrupt handler.
  *
  * @retval HAL status
  */
HAL_StatusTypeDef HAL_Init(void)
{
 8000a68:	b580      	push	{r7, lr}
 8000a6a:	b082      	sub	sp, #8
 8000a6c:	af00      	add	r7, sp, #0
  HAL_StatusTypeDef  status = HAL_OK;
 8000a6e:	2300      	movs	r3, #0
 8000a70:	71fb      	strb	r3, [r7, #7]
#if (DATA_CACHE_ENABLE == 0)
   __HAL_FLASH_DATA_CACHE_DISABLE();
#endif /* DATA_CACHE_ENABLE */

#if (PREFETCH_ENABLE != 0)
  __HAL_FLASH_PREFETCH_BUFFER_ENABLE();
 8000a72:	4b0c      	ldr	r3, [pc, #48]	; (8000aa4 <HAL_Init+0x3c>)
 8000a74:	681b      	ldr	r3, [r3, #0]
 8000a76:	4a0b      	ldr	r2, [pc, #44]	; (8000aa4 <HAL_Init+0x3c>)
 8000a78:	f443 7380 	orr.w	r3, r3, #256	; 0x100
 8000a7c:	6013      	str	r3, [r2, #0]
#endif /* PREFETCH_ENABLE */

  /* Set Interrupt Group Priority */
  HAL_NVIC_SetPriorityGrouping(NVIC_PRIORITYGROUP_4);
 8000a7e:	2003      	movs	r0, #3
 8000a80:	f000 fc72 	bl	8001368 <HAL_NVIC_SetPriorityGrouping>

  /* Use SysTick as time base source and configure 1ms tick (default clock after Reset is MSI) */
  if (HAL_InitTick(TICK_INT_PRIORITY) != HAL_OK)
 8000a84:	2000      	movs	r0, #0
 8000a86:	f000 f80f 	bl	8000aa8 <HAL_InitTick>
 8000a8a:	4603      	mov	r3, r0
 8000a8c:	2b00      	cmp	r3, #0
 8000a8e:	d002      	beq.n	8000a96 <HAL_Init+0x2e>
  {
    status = HAL_ERROR;
 8000a90:	2301      	movs	r3, #1
 8000a92:	71fb      	strb	r3, [r7, #7]
 8000a94:	e001      	b.n	8000a9a <HAL_Init+0x32>
  }
  else
  {
    /* Init the low level hardware */
    HAL_MspInit();
 8000a96:	f7ff fe83 	bl	80007a0 <HAL_MspInit>
  }

  /* Return function status */
  return status;
 8000a9a:	79fb      	ldrb	r3, [r7, #7]
}
 8000a9c:	4618      	mov	r0, r3
 8000a9e:	3708      	adds	r7, #8
 8000aa0:	46bd      	mov	sp, r7
 8000aa2:	bd80      	pop	{r7, pc}
 8000aa4:	40022000 	.word	0x40022000

08000aa8 <HAL_InitTick>:
  *       implementation  in user file.
  * @param TickPriority  Tick interrupt priority.
  * @retval HAL status
  */
__weak HAL_StatusTypeDef HAL_InitTick(uint32_t TickPriority)
{
 8000aa8:	b580      	push	{r7, lr}
 8000aaa:	b084      	sub	sp, #16
 8000aac:	af00      	add	r7, sp, #0
 8000aae:	6078      	str	r0, [r7, #4]
  HAL_StatusTypeDef  status = HAL_OK;
 8000ab0:	2300      	movs	r3, #0
 8000ab2:	73fb      	strb	r3, [r7, #15]

  /* Check uwTickFreq for MisraC 2012 (even if uwTickFreq is a enum type that doesn't take the value zero)*/
  if ((uint32_t)uwTickFreq != 0U)
 8000ab4:	4b17      	ldr	r3, [pc, #92]	; (8000b14 <HAL_InitTick+0x6c>)
 8000ab6:	781b      	ldrb	r3, [r3, #0]
 8000ab8:	2b00      	cmp	r3, #0
 8000aba:	d023      	beq.n	8000b04 <HAL_InitTick+0x5c>
  {
    /*Configure the SysTick to have interrupt in 1ms time basis*/
    if (HAL_SYSTICK_Config(SystemCoreClock / (1000U / (uint32_t)uwTickFreq)) == 0U)
 8000abc:	4b16      	ldr	r3, [pc, #88]	; (8000b18 <HAL_InitTick+0x70>)
 8000abe:	681a      	ldr	r2, [r3, #0]
 8000ac0:	4b14      	ldr	r3, [pc, #80]	; (8000b14 <HAL_InitTick+0x6c>)
 8000ac2:	781b      	ldrb	r3, [r3, #0]
 8000ac4:	4619      	mov	r1, r3
 8000ac6:	f44f 737a 	mov.w	r3, #1000	; 0x3e8
 8000aca:	fbb3 f3f1 	udiv	r3, r3, r1
 8000ace:	fbb2 f3f3 	udiv	r3, r2, r3
 8000ad2:	4618      	mov	r0, r3
 8000ad4:	f000 fc7d 	bl	80013d2 <HAL_SYSTICK_Config>
 8000ad8:	4603      	mov	r3, r0
 8000ada:	2b00      	cmp	r3, #0
 8000adc:	d10f      	bne.n	8000afe <HAL_InitTick+0x56>
    {
      /* Configure the SysTick IRQ priority */
      if (TickPriority < (1UL << __NVIC_PRIO_BITS))
 8000ade:	687b      	ldr	r3, [r7, #4]
 8000ae0:	2b0f      	cmp	r3, #15
 8000ae2:	d809      	bhi.n	8000af8 <HAL_InitTick+0x50>
      {
        HAL_NVIC_SetPriority(SysTick_IRQn, TickPriority, 0U);
 8000ae4:	2200      	movs	r2, #0
 8000ae6:	6879      	ldr	r1, [r7, #4]
 8000ae8:	f04f 30ff 	mov.w	r0, #4294967295
 8000aec:	f000 fc47 	bl	800137e <HAL_NVIC_SetPriority>
        uwTickPrio = TickPriority;
 8000af0:	4a0a      	ldr	r2, [pc, #40]	; (8000b1c <HAL_InitTick+0x74>)
 8000af2:	687b      	ldr	r3, [r7, #4]
 8000af4:	6013      	str	r3, [r2, #0]
 8000af6:	e007      	b.n	8000b08 <HAL_InitTick+0x60>
      }
      else
      {
        status = HAL_ERROR;
 8000af8:	2301      	movs	r3, #1
 8000afa:	73fb      	strb	r3, [r7, #15]
 8000afc:	e004      	b.n	8000b08 <HAL_InitTick+0x60>
      }
    }
    else
    {
      status = HAL_ERROR;
 8000afe:	2301      	movs	r3, #1
 8000b00:	73fb      	strb	r3, [r7, #15]
 8000b02:	e001      	b.n	8000b08 <HAL_InitTick+0x60>
    }
  }
  else
  {
    status = HAL_ERROR;
 8000b04:	2301      	movs	r3, #1
 8000b06:	73fb      	strb	r3, [r7, #15]
  }

  /* Return function status */
  return status;
 8000b08:	7bfb      	ldrb	r3, [r7, #15]
}
 8000b0a:	4618      	mov	r0, r3
 8000b0c:	3710      	adds	r7, #16
 8000b0e:	46bd      	mov	sp, r7
 8000b10:	bd80      	pop	{r7, pc}
 8000b12:	bf00      	nop
 8000b14:	20000008 	.word	0x20000008
 8000b18:	20000000 	.word	0x20000000
 8000b1c:	20000004 	.word	0x20000004

08000b20 <HAL_IncTick>:
 * @note This function is declared as __weak to be overwritten in case of other
  *      implementations in user file.
  * @retval None
  */
__weak void HAL_IncTick(void)
{
 8000b20:	b480      	push	{r7}
 8000b22:	af00      	add	r7, sp, #0
  uwTick += (uint32_t)uwTickFreq;
 8000b24:	4b06      	ldr	r3, [pc, #24]	; (8000b40 <HAL_IncTick+0x20>)
 8000b26:	781b      	ldrb	r3, [r3, #0]
 8000b28:	461a      	mov	r2, r3
 8000b2a:	4b06      	ldr	r3, [pc, #24]	; (8000b44 <HAL_IncTick+0x24>)
 8000b2c:	681b      	ldr	r3, [r3, #0]
 8000b2e:	4413      	add	r3, r2
 8000b30:	4a04      	ldr	r2, [pc, #16]	; (8000b44 <HAL_IncTick+0x24>)
 8000b32:	6013      	str	r3, [r2, #0]
}
 8000b34:	bf00      	nop
 8000b36:	46bd      	mov	sp, r7
 8000b38:	f85d 7b04 	ldr.w	r7, [sp], #4
 8000b3c:	4770      	bx	lr
 8000b3e:	bf00      	nop
 8000b40:	20000008 	.word	0x20000008
 8000b44:	20000134 	.word	0x20000134

08000b48 <HAL_GetTick>:
  * @note This function is declared as __weak to be overwritten in case of other
  *       implementations in user file.
  * @retval tick value
  */
__weak uint32_t HAL_GetTick(void)
{
 8000b48:	b480      	push	{r7}
 8000b4a:	af00      	add	r7, sp, #0
  return uwTick;
 8000b4c:	4b03      	ldr	r3, [pc, #12]	; (8000b5c <HAL_GetTick+0x14>)
 8000b4e:	681b      	ldr	r3, [r3, #0]
}
 8000b50:	4618      	mov	r0, r3
 8000b52:	46bd      	mov	sp, r7
 8000b54:	f85d 7b04 	ldr.w	r7, [sp], #4
 8000b58:	4770      	bx	lr
 8000b5a:	bf00      	nop
 8000b5c:	20000134 	.word	0x20000134

08000b60 <HAL_CAN_Init>:
  * @param  hcan pointer to a CAN_HandleTypeDef structure that contains
  *         the configuration information for the specified CAN.
  * @retval HAL status
  */
HAL_StatusTypeDef HAL_CAN_Init(CAN_HandleTypeDef *hcan)
{
 8000b60:	b580      	push	{r7, lr}
 8000b62:	b084      	sub	sp, #16
 8000b64:	af00      	add	r7, sp, #0
 8000b66:	6078      	str	r0, [r7, #4]
  uint32_t tickstart;

  /* Check CAN handle */
  if (hcan == NULL)
 8000b68:	687b      	ldr	r3, [r7, #4]
 8000b6a:	2b00      	cmp	r3, #0
 8000b6c:	d101      	bne.n	8000b72 <HAL_CAN_Init+0x12>
  {
    return HAL_ERROR;
 8000b6e:	2301      	movs	r3, #1
 8000b70:	e0ed      	b.n	8000d4e <HAL_CAN_Init+0x1ee>
    /* Init the low level hardware: CLOCK, NVIC */
    hcan->MspInitCallback(hcan);
  }

#else
  if (hcan->State == HAL_CAN_STATE_RESET)
 8000b72:	687b      	ldr	r3, [r7, #4]
 8000b74:	f893 3020 	ldrb.w	r3, [r3, #32]
 8000b78:	b2db      	uxtb	r3, r3
 8000b7a:	2b00      	cmp	r3, #0
 8000b7c:	d102      	bne.n	8000b84 <HAL_CAN_Init+0x24>
  {
    /* Init the low level hardware: CLOCK, NVIC */
    HAL_CAN_MspInit(hcan);
 8000b7e:	6878      	ldr	r0, [r7, #4]
 8000b80:	f7ff fe32 	bl	80007e8 <HAL_CAN_MspInit>
  }
#endif /* (USE_HAL_CAN_REGISTER_CALLBACKS) */

  /* Exit from sleep mode */
  CLEAR_BIT(hcan->Instance->MCR, CAN_MCR_SLEEP);
 8000b84:	687b      	ldr	r3, [r7, #4]
 8000b86:	681b      	ldr	r3, [r3, #0]
 8000b88:	681a      	ldr	r2, [r3, #0]
 8000b8a:	687b      	ldr	r3, [r7, #4]
 8000b8c:	681b      	ldr	r3, [r3, #0]
 8000b8e:	f022 0202 	bic.w	r2, r2, #2
 8000b92:	601a      	str	r2, [r3, #0]

  /* Get tick */
  tickstart = HAL_GetTick();
 8000b94:	f7ff ffd8 	bl	8000b48 <HAL_GetTick>
 8000b98:	60f8      	str	r0, [r7, #12]

  /* Check Sleep mode leave acknowledge */
  while ((hcan->Instance->MSR & CAN_MSR_SLAK) != 0U)
 8000b9a:	e012      	b.n	8000bc2 <HAL_CAN_Init+0x62>
  {
    if ((HAL_GetTick() - tickstart) > CAN_TIMEOUT_VALUE)
 8000b9c:	f7ff ffd4 	bl	8000b48 <HAL_GetTick>
 8000ba0:	4602      	mov	r2, r0
 8000ba2:	68fb      	ldr	r3, [r7, #12]
 8000ba4:	1ad3      	subs	r3, r2, r3
 8000ba6:	2b0a      	cmp	r3, #10
 8000ba8:	d90b      	bls.n	8000bc2 <HAL_CAN_Init+0x62>
    {
      /* Update error code */
      hcan->ErrorCode |= HAL_CAN_ERROR_TIMEOUT;
 8000baa:	687b      	ldr	r3, [r7, #4]
 8000bac:	6a5b      	ldr	r3, [r3, #36]	; 0x24
 8000bae:	f443 3200 	orr.w	r2, r3, #131072	; 0x20000
 8000bb2:	687b      	ldr	r3, [r7, #4]
 8000bb4:	625a      	str	r2, [r3, #36]	; 0x24

      /* Change CAN state */
      hcan->State = HAL_CAN_STATE_ERROR;
 8000bb6:	687b      	ldr	r3, [r7, #4]
 8000bb8:	2205      	movs	r2, #5
 8000bba:	f883 2020 	strb.w	r2, [r3, #32]

      return HAL_ERROR;
 8000bbe:	2301      	movs	r3, #1
 8000bc0:	e0c5      	b.n	8000d4e <HAL_CAN_Init+0x1ee>
  while ((hcan->Instance->MSR & CAN_MSR_SLAK) != 0U)
 8000bc2:	687b      	ldr	r3, [r7, #4]
 8000bc4:	681b      	ldr	r3, [r3, #0]
 8000bc6:	685b      	ldr	r3, [r3, #4]
 8000bc8:	f003 0302 	and.w	r3, r3, #2
 8000bcc:	2b00      	cmp	r3, #0
 8000bce:	d1e5      	bne.n	8000b9c <HAL_CAN_Init+0x3c>
    }
  }

  /* Request initialisation */
  SET_BIT(hcan->Instance->MCR, CAN_MCR_INRQ);
 8000bd0:	687b      	ldr	r3, [r7, #4]
 8000bd2:	681b      	ldr	r3, [r3, #0]
 8000bd4:	681a      	ldr	r2, [r3, #0]
 8000bd6:	687b      	ldr	r3, [r7, #4]
 8000bd8:	681b      	ldr	r3, [r3, #0]
 8000bda:	f042 0201 	orr.w	r2, r2, #1
 8000bde:	601a      	str	r2, [r3, #0]

  /* Get tick */
  tickstart = HAL_GetTick();
 8000be0:	f7ff ffb2 	bl	8000b48 <HAL_GetTick>
 8000be4:	60f8      	str	r0, [r7, #12]

  /* Wait initialisation acknowledge */
  while ((hcan->Instance->MSR & CAN_MSR_INAK) == 0U)
 8000be6:	e012      	b.n	8000c0e <HAL_CAN_Init+0xae>
  {
    if ((HAL_GetTick() - tickstart) > CAN_TIMEOUT_VALUE)
 8000be8:	f7ff ffae 	bl	8000b48 <HAL_GetTick>
 8000bec:	4602      	mov	r2, r0
 8000bee:	68fb      	ldr	r3, [r7, #12]
 8000bf0:	1ad3      	subs	r3, r2, r3
 8000bf2:	2b0a      	cmp	r3, #10
 8000bf4:	d90b      	bls.n	8000c0e <HAL_CAN_Init+0xae>
    {
      /* Update error code */
      hcan->ErrorCode |= HAL_CAN_ERROR_TIMEOUT;
 8000bf6:	687b      	ldr	r3, [r7, #4]
 8000bf8:	6a5b      	ldr	r3, [r3, #36]	; 0x24
 8000bfa:	f443 3200 	orr.w	r2, r3, #131072	; 0x20000
 8000bfe:	687b      	ldr	r3, [r7, #4]
 8000c00:	625a      	str	r2, [r3, #36]	; 0x24

      /* Change CAN state */
      hcan->State = HAL_CAN_STATE_ERROR;
 8000c02:	687b      	ldr	r3, [r7, #4]
 8000c04:	2205      	movs	r2, #5
 8000c06:	f883 2020 	strb.w	r2, [r3, #32]

      return HAL_ERROR;
 8000c0a:	2301      	movs	r3, #1
 8000c0c:	e09f      	b.n	8000d4e <HAL_CAN_Init+0x1ee>
  while ((hcan->Instance->MSR & CAN_MSR_INAK) == 0U)
 8000c0e:	687b      	ldr	r3, [r7, #4]
 8000c10:	681b      	ldr	r3, [r3, #0]
 8000c12:	685b      	ldr	r3, [r3, #4]
 8000c14:	f003 0301 	and.w	r3, r3, #1
 8000c18:	2b00      	cmp	r3, #0
 8000c1a:	d0e5      	beq.n	8000be8 <HAL_CAN_Init+0x88>
    }
  }

  /* Set the time triggered communication mode */
  if (hcan->Init.TimeTriggeredMode == ENABLE)
 8000c1c:	687b      	ldr	r3, [r7, #4]
 8000c1e:	7e1b      	ldrb	r3, [r3, #24]
 8000c20:	2b01      	cmp	r3, #1
 8000c22:	d108      	bne.n	8000c36 <HAL_CAN_Init+0xd6>
  {
    SET_BIT(hcan->Instance->MCR, CAN_MCR_TTCM);
 8000c24:	687b      	ldr	r3, [r7, #4]
 8000c26:	681b      	ldr	r3, [r3, #0]
 8000c28:	681a      	ldr	r2, [r3, #0]
 8000c2a:	687b      	ldr	r3, [r7, #4]
 8000c2c:	681b      	ldr	r3, [r3, #0]
 8000c2e:	f042 0280 	orr.w	r2, r2, #128	; 0x80
 8000c32:	601a      	str	r2, [r3, #0]
 8000c34:	e007      	b.n	8000c46 <HAL_CAN_Init+0xe6>
  }
  else
  {
    CLEAR_BIT(hcan->Instance->MCR, CAN_MCR_TTCM);
 8000c36:	687b      	ldr	r3, [r7, #4]
 8000c38:	681b      	ldr	r3, [r3, #0]
 8000c3a:	681a      	ldr	r2, [r3, #0]
 8000c3c:	687b      	ldr	r3, [r7, #4]
 8000c3e:	681b      	ldr	r3, [r3, #0]
 8000c40:	f022 0280 	bic.w	r2, r2, #128	; 0x80
 8000c44:	601a      	str	r2, [r3, #0]
  }

  /* Set the automatic bus-off management */
  if (hcan->Init.AutoBusOff == ENABLE)
 8000c46:	687b      	ldr	r3, [r7, #4]
 8000c48:	7e5b      	ldrb	r3, [r3, #25]
 8000c4a:	2b01      	cmp	r3, #1
 8000c4c:	d108      	bne.n	8000c60 <HAL_CAN_Init+0x100>
  {
    SET_BIT(hcan->Instance->MCR, CAN_MCR_ABOM);
 8000c4e:	687b      	ldr	r3, [r7, #4]
 8000c50:	681b      	ldr	r3, [r3, #0]
 8000c52:	681a      	ldr	r2, [r3, #0]
 8000c54:	687b      	ldr	r3, [r7, #4]
 8000c56:	681b      	ldr	r3, [r3, #0]
 8000c58:	f042 0240 	orr.w	r2, r2, #64	; 0x40
 8000c5c:	601a      	str	r2, [r3, #0]
 8000c5e:	e007      	b.n	8000c70 <HAL_CAN_Init+0x110>
  }
  else
  {
    CLEAR_BIT(hcan->Instance->MCR, CAN_MCR_ABOM);
 8000c60:	687b      	ldr	r3, [r7, #4]
 8000c62:	681b      	ldr	r3, [r3, #0]
 8000c64:	681a      	ldr	r2, [r3, #0]
 8000c66:	687b      	ldr	r3, [r7, #4]
 8000c68:	681b      	ldr	r3, [r3, #0]
 8000c6a:	f022 0240 	bic.w	r2, r2, #64	; 0x40
 8000c6e:	601a      	str	r2, [r3, #0]
  }

  /* Set the automatic wake-up mode */
  if (hcan->Init.AutoWakeUp == ENABLE)
 8000c70:	687b      	ldr	r3, [r7, #4]
 8000c72:	7e9b      	ldrb	r3, [r3, #26]
 8000c74:	2b01      	cmp	r3, #1
 8000c76:	d108      	bne.n	8000c8a <HAL_CAN_Init+0x12a>
  {
    SET_BIT(hcan->Instance->MCR, CAN_MCR_AWUM);
 8000c78:	687b      	ldr	r3, [r7, #4]
 8000c7a:	681b      	ldr	r3, [r3, #0]
 8000c7c:	681a      	ldr	r2, [r3, #0]
 8000c7e:	687b      	ldr	r3, [r7, #4]
 8000c80:	681b      	ldr	r3, [r3, #0]
 8000c82:	f042 0220 	orr.w	r2, r2, #32
 8000c86:	601a      	str	r2, [r3, #0]
 8000c88:	e007      	b.n	8000c9a <HAL_CAN_Init+0x13a>
  }
  else
  {
    CLEAR_BIT(hcan->Instance->MCR, CAN_MCR_AWUM);
 8000c8a:	687b      	ldr	r3, [r7, #4]
 8000c8c:	681b      	ldr	r3, [r3, #0]
 8000c8e:	681a      	ldr	r2, [r3, #0]
 8000c90:	687b      	ldr	r3, [r7, #4]
 8000c92:	681b      	ldr	r3, [r3, #0]
 8000c94:	f022 0220 	bic.w	r2, r2, #32
 8000c98:	601a      	str	r2, [r3, #0]
  }

  /* Set the automatic retransmission */
  if (hcan->Init.AutoRetransmission == ENABLE)
 8000c9a:	687b      	ldr	r3, [r7, #4]
 8000c9c:	7edb      	ldrb	r3, [r3, #27]
 8000c9e:	2b01      	cmp	r3, #1
 8000ca0:	d108      	bne.n	8000cb4 <HAL_CAN_Init+0x154>
  {
    CLEAR_BIT(hcan->Instance->MCR, CAN_MCR_NART);
 8000ca2:	687b      	ldr	r3, [r7, #4]
 8000ca4:	681b      	ldr	r3, [r3, #0]
 8000ca6:	681a      	ldr	r2, [r3, #0]
 8000ca8:	687b      	ldr	r3, [r7, #4]
 8000caa:	681b      	ldr	r3, [r3, #0]
 8000cac:	f022 0210 	bic.w	r2, r2, #16
 8000cb0:	601a      	str	r2, [r3, #0]
 8000cb2:	e007      	b.n	8000cc4 <HAL_CAN_Init+0x164>
  }
  else
  {
    SET_BIT(hcan->Instance->MCR, CAN_MCR_NART);
 8000cb4:	687b      	ldr	r3, [r7, #4]
 8000cb6:	681b      	ldr	r3, [r3, #0]
 8000cb8:	681a      	ldr	r2, [r3, #0]
 8000cba:	687b      	ldr	r3, [r7, #4]
 8000cbc:	681b      	ldr	r3, [r3, #0]
 8000cbe:	f042 0210 	orr.w	r2, r2, #16
 8000cc2:	601a      	str	r2, [r3, #0]
  }

  /* Set the receive FIFO locked mode */
  if (hcan->Init.ReceiveFifoLocked == ENABLE)
 8000cc4:	687b      	ldr	r3, [r7, #4]
 8000cc6:	7f1b      	ldrb	r3, [r3, #28]
 8000cc8:	2b01      	cmp	r3, #1
 8000cca:	d108      	bne.n	8000cde <HAL_CAN_Init+0x17e>
  {
    SET_BIT(hcan->Instance->MCR, CAN_MCR_RFLM);
 8000ccc:	687b      	ldr	r3, [r7, #4]
 8000cce:	681b      	ldr	r3, [r3, #0]
 8000cd0:	681a      	ldr	r2, [r3, #0]
 8000cd2:	687b      	ldr	r3, [r7, #4]
 8000cd4:	681b      	ldr	r3, [r3, #0]
 8000cd6:	f042 0208 	orr.w	r2, r2, #8
 8000cda:	601a      	str	r2, [r3, #0]
 8000cdc:	e007      	b.n	8000cee <HAL_CAN_Init+0x18e>
  }
  else
  {
    CLEAR_BIT(hcan->Instance->MCR, CAN_MCR_RFLM);
 8000cde:	687b      	ldr	r3, [r7, #4]
 8000ce0:	681b      	ldr	r3, [r3, #0]
 8000ce2:	681a      	ldr	r2, [r3, #0]
 8000ce4:	687b      	ldr	r3, [r7, #4]
 8000ce6:	681b      	ldr	r3, [r3, #0]
 8000ce8:	f022 0208 	bic.w	r2, r2, #8
 8000cec:	601a      	str	r2, [r3, #0]
  }

  /* Set the transmit FIFO priority */
  if (hcan->Init.TransmitFifoPriority == ENABLE)
 8000cee:	687b      	ldr	r3, [r7, #4]
 8000cf0:	7f5b      	ldrb	r3, [r3, #29]
 8000cf2:	2b01      	cmp	r3, #1
 8000cf4:	d108      	bne.n	8000d08 <HAL_CAN_Init+0x1a8>
  {
    SET_BIT(hcan->Instance->MCR, CAN_MCR_TXFP);
 8000cf6:	687b      	ldr	r3, [r7, #4]
 8000cf8:	681b      	ldr	r3, [r3, #0]
 8000cfa:	681a      	ldr	r2, [r3, #0]
 8000cfc:	687b      	ldr	r3, [r7, #4]
 8000cfe:	681b      	ldr	r3, [r3, #0]
 8000d00:	f042 0204 	orr.w	r2, r2, #4
 8000d04:	601a      	str	r2, [r3, #0]
 8000d06:	e007      	b.n	8000d18 <HAL_CAN_Init+0x1b8>
  }
  else
  {
    CLEAR_BIT(hcan->Instance->MCR, CAN_MCR_TXFP);
 8000d08:	687b      	ldr	r3, [r7, #4]
 8000d0a:	681b      	ldr	r3, [r3, #0]
 8000d0c:	681a      	ldr	r2, [r3, #0]
 8000d0e:	687b      	ldr	r3, [r7, #4]
 8000d10:	681b      	ldr	r3, [r3, #0]
 8000d12:	f022 0204 	bic.w	r2, r2, #4
 8000d16:	601a      	str	r2, [r3, #0]
  }

  /* Set the bit timing register */
  WRITE_REG(hcan->Instance->BTR, (uint32_t)(hcan->Init.Mode           |
 8000d18:	687b      	ldr	r3, [r7, #4]
 8000d1a:	689a      	ldr	r2, [r3, #8]
 8000d1c:	687b      	ldr	r3, [r7, #4]
 8000d1e:	68db      	ldr	r3, [r3, #12]
 8000d20:	431a      	orrs	r2, r3
 8000d22:	687b      	ldr	r3, [r7, #4]
 8000d24:	691b      	ldr	r3, [r3, #16]
 8000d26:	431a      	orrs	r2, r3
 8000d28:	687b      	ldr	r3, [r7, #4]
 8000d2a:	695b      	ldr	r3, [r3, #20]
 8000d2c:	ea42 0103 	orr.w	r1, r2, r3
 8000d30:	687b      	ldr	r3, [r7, #4]
 8000d32:	685b      	ldr	r3, [r3, #4]
 8000d34:	1e5a      	subs	r2, r3, #1
 8000d36:	687b      	ldr	r3, [r7, #4]
 8000d38:	681b      	ldr	r3, [r3, #0]
 8000d3a:	430a      	orrs	r2, r1
 8000d3c:	61da      	str	r2, [r3, #28]
                                            hcan->Init.TimeSeg1       |
                                            hcan->Init.TimeSeg2       |
                                            (hcan->Init.Prescaler - 1U)));

  /* Initialize the error code */
  hcan->ErrorCode = HAL_CAN_ERROR_NONE;
 8000d3e:	687b      	ldr	r3, [r7, #4]
 8000d40:	2200      	movs	r2, #0
 8000d42:	625a      	str	r2, [r3, #36]	; 0x24

  /* Initialize the CAN state */
  hcan->State = HAL_CAN_STATE_READY;
 8000d44:	687b      	ldr	r3, [r7, #4]
 8000d46:	2201      	movs	r2, #1
 8000d48:	f883 2020 	strb.w	r2, [r3, #32]

  /* Return function status */
  return HAL_OK;
 8000d4c:	2300      	movs	r3, #0
}
 8000d4e:	4618      	mov	r0, r3
 8000d50:	3710      	adds	r7, #16
 8000d52:	46bd      	mov	sp, r7
 8000d54:	bd80      	pop	{r7, pc}

08000d56 <HAL_CAN_IRQHandler>:
  * @param  hcan pointer to a CAN_HandleTypeDef structure that contains
  *         the configuration information for the specified CAN.
  * @retval None
  */
void HAL_CAN_IRQHandler(CAN_HandleTypeDef *hcan)
{
 8000d56:	b580      	push	{r7, lr}
 8000d58:	b08a      	sub	sp, #40	; 0x28
 8000d5a:	af00      	add	r7, sp, #0
 8000d5c:	6078      	str	r0, [r7, #4]
  uint32_t errorcode = HAL_CAN_ERROR_NONE;
 8000d5e:	2300      	movs	r3, #0
 8000d60:	627b      	str	r3, [r7, #36]	; 0x24
  uint32_t interrupts = READ_REG(hcan->Instance->IER);
 8000d62:	687b      	ldr	r3, [r7, #4]
 8000d64:	681b      	ldr	r3, [r3, #0]
 8000d66:	695b      	ldr	r3, [r3, #20]
 8000d68:	623b      	str	r3, [r7, #32]
  uint32_t msrflags = READ_REG(hcan->Instance->MSR);
 8000d6a:	687b      	ldr	r3, [r7, #4]
 8000d6c:	681b      	ldr	r3, [r3, #0]
 8000d6e:	685b      	ldr	r3, [r3, #4]
 8000d70:	61fb      	str	r3, [r7, #28]
  uint32_t tsrflags = READ_REG(hcan->Instance->TSR);
 8000d72:	687b      	ldr	r3, [r7, #4]
 8000d74:	681b      	ldr	r3, [r3, #0]
 8000d76:	689b      	ldr	r3, [r3, #8]
 8000d78:	61bb      	str	r3, [r7, #24]
  uint32_t rf0rflags = READ_REG(hcan->Instance->RF0R);
 8000d7a:	687b      	ldr	r3, [r7, #4]
 8000d7c:	681b      	ldr	r3, [r3, #0]
 8000d7e:	68db      	ldr	r3, [r3, #12]
 8000d80:	617b      	str	r3, [r7, #20]
  uint32_t rf1rflags = READ_REG(hcan->Instance->RF1R);
 8000d82:	687b      	ldr	r3, [r7, #4]
 8000d84:	681b      	ldr	r3, [r3, #0]
 8000d86:	691b      	ldr	r3, [r3, #16]
 8000d88:	613b      	str	r3, [r7, #16]
  uint32_t esrflags = READ_REG(hcan->Instance->ESR);
 8000d8a:	687b      	ldr	r3, [r7, #4]
 8000d8c:	681b      	ldr	r3, [r3, #0]
 8000d8e:	699b      	ldr	r3, [r3, #24]
 8000d90:	60fb      	str	r3, [r7, #12]

  /* Transmit Mailbox empty interrupt management *****************************/
  if ((interrupts & CAN_IT_TX_MAILBOX_EMPTY) != 0U)
 8000d92:	6a3b      	ldr	r3, [r7, #32]
 8000d94:	f003 0301 	and.w	r3, r3, #1
 8000d98:	2b00      	cmp	r3, #0
 8000d9a:	d07c      	beq.n	8000e96 <HAL_CAN_IRQHandler+0x140>
  {
    /* Transmit Mailbox 0 management *****************************************/
    if ((tsrflags & CAN_TSR_RQCP0) != 0U)
 8000d9c:	69bb      	ldr	r3, [r7, #24]
 8000d9e:	f003 0301 	and.w	r3, r3, #1
 8000da2:	2b00      	cmp	r3, #0
 8000da4:	d023      	beq.n	8000dee <HAL_CAN_IRQHandler+0x98>
    {
      /* Clear the Transmission Complete flag (and TXOK0,ALST0,TERR0 bits) */
      __HAL_CAN_CLEAR_FLAG(hcan, CAN_FLAG_RQCP0);
 8000da6:	687b      	ldr	r3, [r7, #4]
 8000da8:	681b      	ldr	r3, [r3, #0]
 8000daa:	2201      	movs	r2, #1
 8000dac:	609a      	str	r2, [r3, #8]

      if ((tsrflags & CAN_TSR_TXOK0) != 0U)
 8000dae:	69bb      	ldr	r3, [r7, #24]
 8000db0:	f003 0302 	and.w	r3, r3, #2
 8000db4:	2b00      	cmp	r3, #0
 8000db6:	d003      	beq.n	8000dc0 <HAL_CAN_IRQHandler+0x6a>
#if USE_HAL_CAN_REGISTER_CALLBACKS == 1
        /* Call registered callback*/
        hcan->TxMailbox0CompleteCallback(hcan);
#else
        /* Call weak (surcharged) callback */
        HAL_CAN_TxMailbox0CompleteCallback(hcan);
 8000db8:	6878      	ldr	r0, [r7, #4]
 8000dba:	f000 f983 	bl	80010c4 <HAL_CAN_TxMailbox0CompleteCallback>
 8000dbe:	e016      	b.n	8000dee <HAL_CAN_IRQHandler+0x98>
#endif /* USE_HAL_CAN_REGISTER_CALLBACKS */
      }
      else
      {
        if ((tsrflags & CAN_TSR_ALST0) != 0U)
 8000dc0:	69bb      	ldr	r3, [r7, #24]
 8000dc2:	f003 0304 	and.w	r3, r3, #4
 8000dc6:	2b00      	cmp	r3, #0
 8000dc8:	d004      	beq.n	8000dd4 <HAL_CAN_IRQHandler+0x7e>
        {
          /* Update error code */
          errorcode |= HAL_CAN_ERROR_TX_ALST0;
 8000dca:	6a7b      	ldr	r3, [r7, #36]	; 0x24
 8000dcc:	f443 6300 	orr.w	r3, r3, #2048	; 0x800
 8000dd0:	627b      	str	r3, [r7, #36]	; 0x24
 8000dd2:	e00c      	b.n	8000dee <HAL_CAN_IRQHandler+0x98>
        }
        else if ((tsrflags & CAN_TSR_TERR0) != 0U)
 8000dd4:	69bb      	ldr	r3, [r7, #24]
 8000dd6:	f003 0308 	and.w	r3, r3, #8
 8000dda:	2b00      	cmp	r3, #0
 8000ddc:	d004      	beq.n	8000de8 <HAL_CAN_IRQHandler+0x92>
        {
          /* Update error code */
          errorcode |= HAL_CAN_ERROR_TX_TERR0;
 8000dde:	6a7b      	ldr	r3, [r7, #36]	; 0x24
 8000de0:	f443 5380 	orr.w	r3, r3, #4096	; 0x1000
 8000de4:	627b      	str	r3, [r7, #36]	; 0x24
 8000de6:	e002      	b.n	8000dee <HAL_CAN_IRQHandler+0x98>
#if USE_HAL_CAN_REGISTER_CALLBACKS == 1
          /* Call registered callback*/
          hcan->TxMailbox0AbortCallback(hcan);
#else
          /* Call weak (surcharged) callback */
          HAL_CAN_TxMailbox0AbortCallback(hcan);
 8000de8:	6878      	ldr	r0, [r7, #4]
 8000dea:	f000 f989 	bl	8001100 <HAL_CAN_TxMailbox0AbortCallback>
        }
      }
    }

    /* Transmit Mailbox 1 management *****************************************/
    if ((tsrflags & CAN_TSR_RQCP1) != 0U)
 8000dee:	69bb      	ldr	r3, [r7, #24]
 8000df0:	f403 7380 	and.w	r3, r3, #256	; 0x100
 8000df4:	2b00      	cmp	r3, #0
 8000df6:	d024      	beq.n	8000e42 <HAL_CAN_IRQHandler+0xec>
    {
      /* Clear the Transmission Complete flag (and TXOK1,ALST1,TERR1 bits) */
      __HAL_CAN_CLEAR_FLAG(hcan, CAN_FLAG_RQCP1);
 8000df8:	687b      	ldr	r3, [r7, #4]
 8000dfa:	681b      	ldr	r3, [r3, #0]
 8000dfc:	f44f 7280 	mov.w	r2, #256	; 0x100
 8000e00:	609a      	str	r2, [r3, #8]

      if ((tsrflags & CAN_TSR_TXOK1) != 0U)
 8000e02:	69bb      	ldr	r3, [r7, #24]
 8000e04:	f403 7300 	and.w	r3, r3, #512	; 0x200
 8000e08:	2b00      	cmp	r3, #0
 8000e0a:	d003      	beq.n	8000e14 <HAL_CAN_IRQHandler+0xbe>
#if USE_HAL_CAN_REGISTER_CALLBACKS == 1
        /* Call registered callback*/
        hcan->TxMailbox1CompleteCallback(hcan);
#else
        /* Call weak (surcharged) callback */
        HAL_CAN_TxMailbox1CompleteCallback(hcan);
 8000e0c:	6878      	ldr	r0, [r7, #4]
 8000e0e:	f000 f963 	bl	80010d8 <HAL_CAN_TxMailbox1CompleteCallback>
 8000e12:	e016      	b.n	8000e42 <HAL_CAN_IRQHandler+0xec>
#endif /* USE_HAL_CAN_REGISTER_CALLBACKS */
      }
      else
      {
        if ((tsrflags & CAN_TSR_ALST1) != 0U)
 8000e14:	69bb      	ldr	r3, [r7, #24]
 8000e16:	f403 6380 	and.w	r3, r3, #1024	; 0x400
 8000e1a:	2b00      	cmp	r3, #0
 8000e1c:	d004      	beq.n	8000e28 <HAL_CAN_IRQHandler+0xd2>
        {
          /* Update error code */
          errorcode |= HAL_CAN_ERROR_TX_ALST1;
 8000e1e:	6a7b      	ldr	r3, [r7, #36]	; 0x24
 8000e20:	f443 5300 	orr.w	r3, r3, #8192	; 0x2000
 8000e24:	627b      	str	r3, [r7, #36]	; 0x24
 8000e26:	e00c      	b.n	8000e42 <HAL_CAN_IRQHandler+0xec>
        }
        else if ((tsrflags & CAN_TSR_TERR1) != 0U)
 8000e28:	69bb      	ldr	r3, [r7, #24]
 8000e2a:	f403 6300 	and.w	r3, r3, #2048	; 0x800
 8000e2e:	2b00      	cmp	r3, #0
 8000e30:	d004      	beq.n	8000e3c <HAL_CAN_IRQHandler+0xe6>
        {
          /* Update error code */
          errorcode |= HAL_CAN_ERROR_TX_TERR1;
 8000e32:	6a7b      	ldr	r3, [r7, #36]	; 0x24
 8000e34:	f443 4380 	orr.w	r3, r3, #16384	; 0x4000
 8000e38:	627b      	str	r3, [r7, #36]	; 0x24
 8000e3a:	e002      	b.n	8000e42 <HAL_CAN_IRQHandler+0xec>
#if USE_HAL_CAN_REGISTER_CALLBACKS == 1
          /* Call registered callback*/
          hcan->TxMailbox1AbortCallback(hcan);
#else
          /* Call weak (surcharged) callback */
          HAL_CAN_TxMailbox1AbortCallback(hcan);
 8000e3c:	6878      	ldr	r0, [r7, #4]
 8000e3e:	f000 f969 	bl	8001114 <HAL_CAN_TxMailbox1AbortCallback>
        }
      }
    }

    /* Transmit Mailbox 2 management *****************************************/
    if ((tsrflags & CAN_TSR_RQCP2) != 0U)
 8000e42:	69bb      	ldr	r3, [r7, #24]
 8000e44:	f403 3380 	and.w	r3, r3, #65536	; 0x10000
 8000e48:	2b00      	cmp	r3, #0
 8000e4a:	d024      	beq.n	8000e96 <HAL_CAN_IRQHandler+0x140>
    {
      /* Clear the Transmission Complete flag (and TXOK2,ALST2,TERR2 bits) */
      __HAL_CAN_CLEAR_FLAG(hcan, CAN_FLAG_RQCP2);
 8000e4c:	687b      	ldr	r3, [r7, #4]
 8000e4e:	681b      	ldr	r3, [r3, #0]
 8000e50:	f44f 3280 	mov.w	r2, #65536	; 0x10000
 8000e54:	609a      	str	r2, [r3, #8]

      if ((tsrflags & CAN_TSR_TXOK2) != 0U)
 8000e56:	69bb      	ldr	r3, [r7, #24]
 8000e58:	f403 3300 	and.w	r3, r3, #131072	; 0x20000
 8000e5c:	2b00      	cmp	r3, #0
 8000e5e:	d003      	beq.n	8000e68 <HAL_CAN_IRQHandler+0x112>
#if USE_HAL_CAN_REGISTER_CALLBACKS == 1
        /* Call registered callback*/
        hcan->TxMailbox2CompleteCallback(hcan);
#else
        /* Call weak (surcharged) callback */
        HAL_CAN_TxMailbox2CompleteCallback(hcan);
 8000e60:	6878      	ldr	r0, [r7, #4]
 8000e62:	f000 f943 	bl	80010ec <HAL_CAN_TxMailbox2CompleteCallback>
 8000e66:	e016      	b.n	8000e96 <HAL_CAN_IRQHandler+0x140>
#endif /* USE_HAL_CAN_REGISTER_CALLBACKS */
      }
      else
      {
        if ((tsrflags & CAN_TSR_ALST2) != 0U)
 8000e68:	69bb      	ldr	r3, [r7, #24]
 8000e6a:	f403 2380 	and.w	r3, r3, #262144	; 0x40000
 8000e6e:	2b00      	cmp	r3, #0
 8000e70:	d004      	beq.n	8000e7c <HAL_CAN_IRQHandler+0x126>
        {
          /* Update error code */
          errorcode |= HAL_CAN_ERROR_TX_ALST2;
 8000e72:	6a7b      	ldr	r3, [r7, #36]	; 0x24
 8000e74:	f443 4300 	orr.w	r3, r3, #32768	; 0x8000
 8000e78:	627b      	str	r3, [r7, #36]	; 0x24
 8000e7a:	e00c      	b.n	8000e96 <HAL_CAN_IRQHandler+0x140>
        }
        else if ((tsrflags & CAN_TSR_TERR2) != 0U)
 8000e7c:	69bb      	ldr	r3, [r7, #24]
 8000e7e:	f403 2300 	and.w	r3, r3, #524288	; 0x80000
 8000e82:	2b00      	cmp	r3, #0
 8000e84:	d004      	beq.n	8000e90 <HAL_CAN_IRQHandler+0x13a>
        {
          /* Update error code */
          errorcode |= HAL_CAN_ERROR_TX_TERR2;
 8000e86:	6a7b      	ldr	r3, [r7, #36]	; 0x24
 8000e88:	f443 3380 	orr.w	r3, r3, #65536	; 0x10000
 8000e8c:	627b      	str	r3, [r7, #36]	; 0x24
 8000e8e:	e002      	b.n	8000e96 <HAL_CAN_IRQHandler+0x140>
#if USE_HAL_CAN_REGISTER_CALLBACKS == 1
          /* Call registered callback*/
          hcan->TxMailbox2AbortCallback(hcan);
#else
          /* Call weak (surcharged) callback */
          HAL_CAN_TxMailbox2AbortCallback(hcan);
 8000e90:	6878      	ldr	r0, [r7, #4]
 8000e92:	f000 f949 	bl	8001128 <HAL_CAN_TxMailbox2AbortCallback>
      }
    }
  }

  /* Receive FIFO 0 overrun interrupt management *****************************/
  if ((interrupts & CAN_IT_RX_FIFO0_OVERRUN) != 0U)
 8000e96:	6a3b      	ldr	r3, [r7, #32]
 8000e98:	f003 0308 	and.w	r3, r3, #8
 8000e9c:	2b00      	cmp	r3, #0
 8000e9e:	d00c      	beq.n	8000eba <HAL_CAN_IRQHandler+0x164>
  {
    if ((rf0rflags & CAN_RF0R_FOVR0) != 0U)
 8000ea0:	697b      	ldr	r3, [r7, #20]
 8000ea2:	f003 0310 	and.w	r3, r3, #16
 8000ea6:	2b00      	cmp	r3, #0
 8000ea8:	d007      	beq.n	8000eba <HAL_CAN_IRQHandler+0x164>
    {
      /* Set CAN error code to Rx Fifo 0 overrun error */
      errorcode |= HAL_CAN_ERROR_RX_FOV0;
 8000eaa:	6a7b      	ldr	r3, [r7, #36]	; 0x24
 8000eac:	f443 7300 	orr.w	r3, r3, #512	; 0x200
 8000eb0:	627b      	str	r3, [r7, #36]	; 0x24

      /* Clear FIFO0 Overrun Flag */
      __HAL_CAN_CLEAR_FLAG(hcan, CAN_FLAG_FOV0);
 8000eb2:	687b      	ldr	r3, [r7, #4]
 8000eb4:	681b      	ldr	r3, [r3, #0]
 8000eb6:	2210      	movs	r2, #16
 8000eb8:	60da      	str	r2, [r3, #12]
    }
  }

  /* Receive FIFO 0 full interrupt management ********************************/
  if ((interrupts & CAN_IT_RX_FIFO0_FULL) != 0U)
 8000eba:	6a3b      	ldr	r3, [r7, #32]
 8000ebc:	f003 0304 	and.w	r3, r3, #4
 8000ec0:	2b00      	cmp	r3, #0
 8000ec2:	d00b      	beq.n	8000edc <HAL_CAN_IRQHandler+0x186>
  {
    if ((rf0rflags & CAN_RF0R_FULL0) != 0U)
 8000ec4:	697b      	ldr	r3, [r7, #20]
 8000ec6:	f003 0308 	and.w	r3, r3, #8
 8000eca:	2b00      	cmp	r3, #0
 8000ecc:	d006      	beq.n	8000edc <HAL_CAN_IRQHandler+0x186>
    {
      /* Clear FIFO 0 full Flag */
      __HAL_CAN_CLEAR_FLAG(hcan, CAN_FLAG_FF0);
 8000ece:	687b      	ldr	r3, [r7, #4]
 8000ed0:	681b      	ldr	r3, [r3, #0]
 8000ed2:	2208      	movs	r2, #8
 8000ed4:	60da      	str	r2, [r3, #12]
#if USE_HAL_CAN_REGISTER_CALLBACKS == 1
      /* Call registered callback*/
      hcan->RxFifo0FullCallback(hcan);
#else
      /* Call weak (surcharged) callback */
      HAL_CAN_RxFifo0FullCallback(hcan);
 8000ed6:	6878      	ldr	r0, [r7, #4]
 8000ed8:	f000 f93a 	bl	8001150 <HAL_CAN_RxFifo0FullCallback>
#endif /* USE_HAL_CAN_REGISTER_CALLBACKS */
    }
  }

  /* Receive FIFO 0 message pending interrupt management *********************/
  if ((interrupts & CAN_IT_RX_FIFO0_MSG_PENDING) != 0U)
 8000edc:	6a3b      	ldr	r3, [r7, #32]
 8000ede:	f003 0302 	and.w	r3, r3, #2
 8000ee2:	2b00      	cmp	r3, #0
 8000ee4:	d009      	beq.n	8000efa <HAL_CAN_IRQHandler+0x1a4>
  {
    /* Check if message is still pending */
    if ((hcan->Instance->RF0R & CAN_RF0R_FMP0) != 0U)
 8000ee6:	687b      	ldr	r3, [r7, #4]
 8000ee8:	681b      	ldr	r3, [r3, #0]
 8000eea:	68db      	ldr	r3, [r3, #12]
 8000eec:	f003 0303 	and.w	r3, r3, #3
 8000ef0:	2b00      	cmp	r3, #0
 8000ef2:	d002      	beq.n	8000efa <HAL_CAN_IRQHandler+0x1a4>
#if USE_HAL_CAN_REGISTER_CALLBACKS == 1
      /* Call registered callback*/
      hcan->RxFifo0MsgPendingCallback(hcan);
#else
      /* Call weak (surcharged) callback */
      HAL_CAN_RxFifo0MsgPendingCallback(hcan);
 8000ef4:	6878      	ldr	r0, [r7, #4]
 8000ef6:	f000 f921 	bl	800113c <HAL_CAN_RxFifo0MsgPendingCallback>
#endif /* USE_HAL_CAN_REGISTER_CALLBACKS */
    }
  }

  /* Receive FIFO 1 overrun interrupt management *****************************/
  if ((interrupts & CAN_IT_RX_FIFO1_OVERRUN) != 0U)
 8000efa:	6a3b      	ldr	r3, [r7, #32]
 8000efc:	f003 0340 	and.w	r3, r3, #64	; 0x40
 8000f00:	2b00      	cmp	r3, #0
 8000f02:	d00c      	beq.n	8000f1e <HAL_CAN_IRQHandler+0x1c8>
  {
    if ((rf1rflags & CAN_RF1R_FOVR1) != 0U)
 8000f04:	693b      	ldr	r3, [r7, #16]
 8000f06:	f003 0310 	and.w	r3, r3, #16
 8000f0a:	2b00      	cmp	r3, #0
 8000f0c:	d007      	beq.n	8000f1e <HAL_CAN_IRQHandler+0x1c8>
    {
      /* Set CAN error code to Rx Fifo 1 overrun error */
      errorcode |= HAL_CAN_ERROR_RX_FOV1;
 8000f0e:	6a7b      	ldr	r3, [r7, #36]	; 0x24
 8000f10:	f443 6380 	orr.w	r3, r3, #1024	; 0x400
 8000f14:	627b      	str	r3, [r7, #36]	; 0x24

      /* Clear FIFO1 Overrun Flag */
      __HAL_CAN_CLEAR_FLAG(hcan, CAN_FLAG_FOV1);
 8000f16:	687b      	ldr	r3, [r7, #4]
 8000f18:	681b      	ldr	r3, [r3, #0]
 8000f1a:	2210      	movs	r2, #16
 8000f1c:	611a      	str	r2, [r3, #16]
    }
  }

  /* Receive FIFO 1 full interrupt management ********************************/
  if ((interrupts & CAN_IT_RX_FIFO1_FULL) != 0U)
 8000f1e:	6a3b      	ldr	r3, [r7, #32]
 8000f20:	f003 0320 	and.w	r3, r3, #32
 8000f24:	2b00      	cmp	r3, #0
 8000f26:	d00b      	beq.n	8000f40 <HAL_CAN_IRQHandler+0x1ea>
  {
    if ((rf1rflags & CAN_RF1R_FULL1) != 0U)
 8000f28:	693b      	ldr	r3, [r7, #16]
 8000f2a:	f003 0308 	and.w	r3, r3, #8
 8000f2e:	2b00      	cmp	r3, #0
 8000f30:	d006      	beq.n	8000f40 <HAL_CAN_IRQHandler+0x1ea>
    {
      /* Clear FIFO 1 full Flag */
      __HAL_CAN_CLEAR_FLAG(hcan, CAN_FLAG_FF1);
 8000f32:	687b      	ldr	r3, [r7, #4]
 8000f34:	681b      	ldr	r3, [r3, #0]
 8000f36:	2208      	movs	r2, #8
 8000f38:	611a      	str	r2, [r3, #16]
#if USE_HAL_CAN_REGISTER_CALLBACKS == 1
      /* Call registered callback*/
      hcan->RxFifo1FullCallback(hcan);
#else
      /* Call weak (surcharged) callback */
      HAL_CAN_RxFifo1FullCallback(hcan);
 8000f3a:	6878      	ldr	r0, [r7, #4]
 8000f3c:	f000 f91c 	bl	8001178 <HAL_CAN_RxFifo1FullCallback>
#endif /* USE_HAL_CAN_REGISTER_CALLBACKS */
    }
  }

  /* Receive FIFO 1 message pending interrupt management *********************/
  if ((interrupts & CAN_IT_RX_FIFO1_MSG_PENDING) != 0U)
 8000f40:	6a3b      	ldr	r3, [r7, #32]
 8000f42:	f003 0310 	and.w	r3, r3, #16
 8000f46:	2b00      	cmp	r3, #0
 8000f48:	d009      	beq.n	8000f5e <HAL_CAN_IRQHandler+0x208>
  {
    /* Check if message is still pending */
    if ((hcan->Instance->RF1R & CAN_RF1R_FMP1) != 0U)
 8000f4a:	687b      	ldr	r3, [r7, #4]
 8000f4c:	681b      	ldr	r3, [r3, #0]
 8000f4e:	691b      	ldr	r3, [r3, #16]
 8000f50:	f003 0303 	and.w	r3, r3, #3
 8000f54:	2b00      	cmp	r3, #0
 8000f56:	d002      	beq.n	8000f5e <HAL_CAN_IRQHandler+0x208>
#if USE_HAL_CAN_REGISTER_CALLBACKS == 1
      /* Call registered callback*/
      hcan->RxFifo1MsgPendingCallback(hcan);
#else
      /* Call weak (surcharged) callback */
      HAL_CAN_RxFifo1MsgPendingCallback(hcan);
 8000f58:	6878      	ldr	r0, [r7, #4]
 8000f5a:	f000 f903 	bl	8001164 <HAL_CAN_RxFifo1MsgPendingCallback>
#endif /* USE_HAL_CAN_REGISTER_CALLBACKS */
    }
  }

  /* Sleep interrupt management *********************************************/
  if ((interrupts & CAN_IT_SLEEP_ACK) != 0U)
 8000f5e:	6a3b      	ldr	r3, [r7, #32]
 8000f60:	f403 3300 	and.w	r3, r3, #131072	; 0x20000
 8000f64:	2b00      	cmp	r3, #0
 8000f66:	d00b      	beq.n	8000f80 <HAL_CAN_IRQHandler+0x22a>
  {
    if ((msrflags & CAN_MSR_SLAKI) != 0U)
 8000f68:	69fb      	ldr	r3, [r7, #28]
 8000f6a:	f003 0310 	and.w	r3, r3, #16
 8000f6e:	2b00      	cmp	r3, #0
 8000f70:	d006      	beq.n	8000f80 <HAL_CAN_IRQHandler+0x22a>
    {
      /* Clear Sleep interrupt Flag */
      __HAL_CAN_CLEAR_FLAG(hcan, CAN_FLAG_SLAKI);
 8000f72:	687b      	ldr	r3, [r7, #4]
 8000f74:	681b      	ldr	r3, [r3, #0]
 8000f76:	2210      	movs	r2, #16
 8000f78:	605a      	str	r2, [r3, #4]
#if USE_HAL_CAN_REGISTER_CALLBACKS == 1
      /* Call registered callback*/
      hcan->SleepCallback(hcan);
#else
      /* Call weak (surcharged) callback */
      HAL_CAN_SleepCallback(hcan);
 8000f7a:	6878      	ldr	r0, [r7, #4]
 8000f7c:	f000 f906 	bl	800118c <HAL_CAN_SleepCallback>
#endif /* USE_HAL_CAN_REGISTER_CALLBACKS */
    }
  }

  /* WakeUp interrupt management *********************************************/
  if ((interrupts & CAN_IT_WAKEUP) != 0U)
 8000f80:	6a3b      	ldr	r3, [r7, #32]
 8000f82:	f403 3380 	and.w	r3, r3, #65536	; 0x10000
 8000f86:	2b00      	cmp	r3, #0
 8000f88:	d00b      	beq.n	8000fa2 <HAL_CAN_IRQHandler+0x24c>
  {
    if ((msrflags & CAN_MSR_WKUI) != 0U)
 8000f8a:	69fb      	ldr	r3, [r7, #28]
 8000f8c:	f003 0308 	and.w	r3, r3, #8
 8000f90:	2b00      	cmp	r3, #0
 8000f92:	d006      	beq.n	8000fa2 <HAL_CAN_IRQHandler+0x24c>
    {
      /* Clear WakeUp Flag */
      __HAL_CAN_CLEAR_FLAG(hcan, CAN_FLAG_WKU);
 8000f94:	687b      	ldr	r3, [r7, #4]
 8000f96:	681b      	ldr	r3, [r3, #0]
 8000f98:	2208      	movs	r2, #8
 8000f9a:	605a      	str	r2, [r3, #4]
#if USE_HAL_CAN_REGISTER_CALLBACKS == 1
      /* Call registered callback*/
      hcan->WakeUpFromRxMsgCallback(hcan);
#else
      /* Call weak (surcharged) callback */
      HAL_CAN_WakeUpFromRxMsgCallback(hcan);
 8000f9c:	6878      	ldr	r0, [r7, #4]
 8000f9e:	f000 f8ff 	bl	80011a0 <HAL_CAN_WakeUpFromRxMsgCallback>
#endif /* USE_HAL_CAN_REGISTER_CALLBACKS */
    }
  }

  /* Error interrupts management *********************************************/
  if ((interrupts & CAN_IT_ERROR) != 0U)
 8000fa2:	6a3b      	ldr	r3, [r7, #32]
 8000fa4:	f403 4300 	and.w	r3, r3, #32768	; 0x8000
 8000fa8:	2b00      	cmp	r3, #0
 8000faa:	d07b      	beq.n	80010a4 <HAL_CAN_IRQHandler+0x34e>
  {
    if ((msrflags & CAN_MSR_ERRI) != 0U)
 8000fac:	69fb      	ldr	r3, [r7, #28]
 8000fae:	f003 0304 	and.w	r3, r3, #4
 8000fb2:	2b00      	cmp	r3, #0
 8000fb4:	d072      	beq.n	800109c <HAL_CAN_IRQHandler+0x346>
    {
      /* Check Error Warning Flag */
      if (((interrupts & CAN_IT_ERROR_WARNING) != 0U) &&
 8000fb6:	6a3b      	ldr	r3, [r7, #32]
 8000fb8:	f403 7380 	and.w	r3, r3, #256	; 0x100
 8000fbc:	2b00      	cmp	r3, #0
 8000fbe:	d008      	beq.n	8000fd2 <HAL_CAN_IRQHandler+0x27c>
          ((esrflags & CAN_ESR_EWGF) != 0U))
 8000fc0:	68fb      	ldr	r3, [r7, #12]
 8000fc2:	f003 0301 	and.w	r3, r3, #1
      if (((interrupts & CAN_IT_ERROR_WARNING) != 0U) &&
 8000fc6:	2b00      	cmp	r3, #0
 8000fc8:	d003      	beq.n	8000fd2 <HAL_CAN_IRQHandler+0x27c>
      {
        /* Set CAN error code to Error Warning */
        errorcode |= HAL_CAN_ERROR_EWG;
 8000fca:	6a7b      	ldr	r3, [r7, #36]	; 0x24
 8000fcc:	f043 0301 	orr.w	r3, r3, #1
 8000fd0:	627b      	str	r3, [r7, #36]	; 0x24

        /* No need for clear of Error Warning Flag as read-only */
      }

      /* Check Error Passive Flag */
      if (((interrupts & CAN_IT_ERROR_PASSIVE) != 0U) &&
 8000fd2:	6a3b      	ldr	r3, [r7, #32]
 8000fd4:	f403 7300 	and.w	r3, r3, #512	; 0x200
 8000fd8:	2b00      	cmp	r3, #0
 8000fda:	d008      	beq.n	8000fee <HAL_CAN_IRQHandler+0x298>
          ((esrflags & CAN_ESR_EPVF) != 0U))
 8000fdc:	68fb      	ldr	r3, [r7, #12]
 8000fde:	f003 0302 	and.w	r3, r3, #2
      if (((interrupts & CAN_IT_ERROR_PASSIVE) != 0U) &&
 8000fe2:	2b00      	cmp	r3, #0
 8000fe4:	d003      	beq.n	8000fee <HAL_CAN_IRQHandler+0x298>
      {
        /* Set CAN error code to Error Passive */
        errorcode |= HAL_CAN_ERROR_EPV;
 8000fe6:	6a7b      	ldr	r3, [r7, #36]	; 0x24
 8000fe8:	f043 0302 	orr.w	r3, r3, #2
 8000fec:	627b      	str	r3, [r7, #36]	; 0x24

        /* No need for clear of Error Passive Flag as read-only */
      }

      /* Check Bus-off Flag */
      if (((interrupts & CAN_IT_BUSOFF) != 0U) &&
 8000fee:	6a3b      	ldr	r3, [r7, #32]
 8000ff0:	f403 6380 	and.w	r3, r3, #1024	; 0x400
 8000ff4:	2b00      	cmp	r3, #0
 8000ff6:	d008      	beq.n	800100a <HAL_CAN_IRQHandler+0x2b4>
          ((esrflags & CAN_ESR_BOFF) != 0U))
 8000ff8:	68fb      	ldr	r3, [r7, #12]
 8000ffa:	f003 0304 	and.w	r3, r3, #4
      if (((interrupts & CAN_IT_BUSOFF) != 0U) &&
 8000ffe:	2b00      	cmp	r3, #0
 8001000:	d003      	beq.n	800100a <HAL_CAN_IRQHandler+0x2b4>
      {
        /* Set CAN error code to Bus-Off */
        errorcode |= HAL_CAN_ERROR_BOF;
 8001002:	6a7b      	ldr	r3, [r7, #36]	; 0x24
 8001004:	f043 0304 	orr.w	r3, r3, #4
 8001008:	627b      	str	r3, [r7, #36]	; 0x24

        /* No need for clear of Error Bus-Off as read-only */
      }

      /* Check Last Error Code Flag */
      if (((interrupts & CAN_IT_LAST_ERROR_CODE) != 0U) &&
 800100a:	6a3b      	ldr	r3, [r7, #32]
 800100c:	f403 6300 	and.w	r3, r3, #2048	; 0x800
 8001010:	2b00      	cmp	r3, #0
 8001012:	d043      	beq.n	800109c <HAL_CAN_IRQHandler+0x346>
          ((esrflags & CAN_ESR_LEC) != 0U))
 8001014:	68fb      	ldr	r3, [r7, #12]
 8001016:	f003 0370 	and.w	r3, r3, #112	; 0x70
      if (((interrupts & CAN_IT_LAST_ERROR_CODE) != 0U) &&
 800101a:	2b00      	cmp	r3, #0
 800101c:	d03e      	beq.n	800109c <HAL_CAN_IRQHandler+0x346>
      {
        switch (esrflags & CAN_ESR_LEC)
 800101e:	68fb      	ldr	r3, [r7, #12]
 8001020:	f003 0370 	and.w	r3, r3, #112	; 0x70
 8001024:	2b60      	cmp	r3, #96	; 0x60
 8001026:	d02b      	beq.n	8001080 <HAL_CAN_IRQHandler+0x32a>
 8001028:	2b60      	cmp	r3, #96	; 0x60
 800102a:	d82e      	bhi.n	800108a <HAL_CAN_IRQHandler+0x334>
 800102c:	2b50      	cmp	r3, #80	; 0x50
 800102e:	d022      	beq.n	8001076 <HAL_CAN_IRQHandler+0x320>
 8001030:	2b50      	cmp	r3, #80	; 0x50
 8001032:	d82a      	bhi.n	800108a <HAL_CAN_IRQHandler+0x334>
 8001034:	2b40      	cmp	r3, #64	; 0x40
 8001036:	d019      	beq.n	800106c <HAL_CAN_IRQHandler+0x316>
 8001038:	2b40      	cmp	r3, #64	; 0x40
 800103a:	d826      	bhi.n	800108a <HAL_CAN_IRQHandler+0x334>
 800103c:	2b30      	cmp	r3, #48	; 0x30
 800103e:	d010      	beq.n	8001062 <HAL_CAN_IRQHandler+0x30c>
 8001040:	2b30      	cmp	r3, #48	; 0x30
 8001042:	d822      	bhi.n	800108a <HAL_CAN_IRQHandler+0x334>
 8001044:	2b10      	cmp	r3, #16
 8001046:	d002      	beq.n	800104e <HAL_CAN_IRQHandler+0x2f8>
 8001048:	2b20      	cmp	r3, #32
 800104a:	d005      	beq.n	8001058 <HAL_CAN_IRQHandler+0x302>
          case (CAN_ESR_LEC_2 | CAN_ESR_LEC_1):
            /* Set CAN error code to CRC error */
            errorcode |= HAL_CAN_ERROR_CRC;
            break;
          default:
            break;
 800104c:	e01d      	b.n	800108a <HAL_CAN_IRQHandler+0x334>
            errorcode |= HAL_CAN_ERROR_STF;
 800104e:	6a7b      	ldr	r3, [r7, #36]	; 0x24
 8001050:	f043 0308 	orr.w	r3, r3, #8
 8001054:	627b      	str	r3, [r7, #36]	; 0x24
            break;
 8001056:	e019      	b.n	800108c <HAL_CAN_IRQHandler+0x336>
            errorcode |= HAL_CAN_ERROR_FOR;
 8001058:	6a7b      	ldr	r3, [r7, #36]	; 0x24
 800105a:	f043 0310 	orr.w	r3, r3, #16
 800105e:	627b      	str	r3, [r7, #36]	; 0x24
            break;
 8001060:	e014      	b.n	800108c <HAL_CAN_IRQHandler+0x336>
            errorcode |= HAL_CAN_ERROR_ACK;
 8001062:	6a7b      	ldr	r3, [r7, #36]	; 0x24
 8001064:	f043 0320 	orr.w	r3, r3, #32
 8001068:	627b      	str	r3, [r7, #36]	; 0x24
            break;
 800106a:	e00f      	b.n	800108c <HAL_CAN_IRQHandler+0x336>
            errorcode |= HAL_CAN_ERROR_BR;
 800106c:	6a7b      	ldr	r3, [r7, #36]	; 0x24
 800106e:	f043 0340 	orr.w	r3, r3, #64	; 0x40
 8001072:	627b      	str	r3, [r7, #36]	; 0x24
            break;
 8001074:	e00a      	b.n	800108c <HAL_CAN_IRQHandler+0x336>
            errorcode |= HAL_CAN_ERROR_BD;
 8001076:	6a7b      	ldr	r3, [r7, #36]	; 0x24
 8001078:	f043 0380 	orr.w	r3, r3, #128	; 0x80
 800107c:	627b      	str	r3, [r7, #36]	; 0x24
            break;
 800107e:	e005      	b.n	800108c <HAL_CAN_IRQHandler+0x336>
            errorcode |= HAL_CAN_ERROR_CRC;
 8001080:	6a7b      	ldr	r3, [r7, #36]	; 0x24
 8001082:	f443 7380 	orr.w	r3, r3, #256	; 0x100
 8001086:	627b      	str	r3, [r7, #36]	; 0x24
            break;
 8001088:	e000      	b.n	800108c <HAL_CAN_IRQHandler+0x336>
            break;
 800108a:	bf00      	nop
        }

        /* Clear Last error code Flag */
        CLEAR_BIT(hcan->Instance->ESR, CAN_ESR_LEC);
 800108c:	687b      	ldr	r3, [r7, #4]
 800108e:	681b      	ldr	r3, [r3, #0]
 8001090:	699a      	ldr	r2, [r3, #24]
 8001092:	687b      	ldr	r3, [r7, #4]
 8001094:	681b      	ldr	r3, [r3, #0]
 8001096:	f022 0270 	bic.w	r2, r2, #112	; 0x70
 800109a:	619a      	str	r2, [r3, #24]
      }
    }

    /* Clear ERRI Flag */
    __HAL_CAN_CLEAR_FLAG(hcan, CAN_FLAG_ERRI);
 800109c:	687b      	ldr	r3, [r7, #4]
 800109e:	681b      	ldr	r3, [r3, #0]
 80010a0:	2204      	movs	r2, #4
 80010a2:	605a      	str	r2, [r3, #4]
  }

  /* Call the Error call Back in case of Errors */
  if (errorcode != HAL_CAN_ERROR_NONE)
 80010a4:	6a7b      	ldr	r3, [r7, #36]	; 0x24
 80010a6:	2b00      	cmp	r3, #0
 80010a8:	d008      	beq.n	80010bc <HAL_CAN_IRQHandler+0x366>
  {
    /* Update error code in handle */
    hcan->ErrorCode |= errorcode;
 80010aa:	687b      	ldr	r3, [r7, #4]
 80010ac:	6a5a      	ldr	r2, [r3, #36]	; 0x24
 80010ae:	6a7b      	ldr	r3, [r7, #36]	; 0x24
 80010b0:	431a      	orrs	r2, r3
 80010b2:	687b      	ldr	r3, [r7, #4]
 80010b4:	625a      	str	r2, [r3, #36]	; 0x24
#if USE_HAL_CAN_REGISTER_CALLBACKS == 1
    /* Call registered callback*/
    hcan->ErrorCallback(hcan);
#else
    /* Call weak (surcharged) callback */
    HAL_CAN_ErrorCallback(hcan);
 80010b6:	6878      	ldr	r0, [r7, #4]
 80010b8:	f000 f87c 	bl	80011b4 <HAL_CAN_ErrorCallback>
#endif /* USE_HAL_CAN_REGISTER_CALLBACKS */
  }
}
 80010bc:	bf00      	nop
 80010be:	3728      	adds	r7, #40	; 0x28
 80010c0:	46bd      	mov	sp, r7
 80010c2:	bd80      	pop	{r7, pc}

080010c4 <HAL_CAN_TxMailbox0CompleteCallback>:
  * @param  hcan pointer to a CAN_HandleTypeDef structure that contains
  *         the configuration information for the specified CAN.
  * @retval None
  */
__weak void HAL_CAN_TxMailbox0CompleteCallback(CAN_HandleTypeDef *hcan)
{
 80010c4:	b480      	push	{r7}
 80010c6:	b083      	sub	sp, #12
 80010c8:	af00      	add	r7, sp, #0
 80010ca:	6078      	str	r0, [r7, #4]

  /* NOTE : This function Should not be modified, when the callback is needed,
            the HAL_CAN_TxMailbox0CompleteCallback could be implemented in the
            user file
   */
}
 80010cc:	bf00      	nop
 80010ce:	370c      	adds	r7, #12
 80010d0:	46bd      	mov	sp, r7
 80010d2:	f85d 7b04 	ldr.w	r7, [sp], #4
 80010d6:	4770      	bx	lr

080010d8 <HAL_CAN_TxMailbox1CompleteCallback>:
  * @param  hcan pointer to a CAN_HandleTypeDef structure that contains
  *         the configuration information for the specified CAN.
  * @retval None
  */
__weak void HAL_CAN_TxMailbox1CompleteCallback(CAN_HandleTypeDef *hcan)
{
 80010d8:	b480      	push	{r7}
 80010da:	b083      	sub	sp, #12
 80010dc:	af00      	add	r7, sp, #0
 80010de:	6078      	str	r0, [r7, #4]

  /* NOTE : This function Should not be modified, when the callback is needed,
            the HAL_CAN_TxMailbox1CompleteCallback could be implemented in the
            user file
   */
}
 80010e0:	bf00      	nop
 80010e2:	370c      	adds	r7, #12
 80010e4:	46bd      	mov	sp, r7
 80010e6:	f85d 7b04 	ldr.w	r7, [sp], #4
 80010ea:	4770      	bx	lr

080010ec <HAL_CAN_TxMailbox2CompleteCallback>:
  * @param  hcan pointer to a CAN_HandleTypeDef structure that contains
  *         the configuration information for the specified CAN.
  * @retval None
  */
__weak void HAL_CAN_TxMailbox2CompleteCallback(CAN_HandleTypeDef *hcan)
{
 80010ec:	b480      	push	{r7}
 80010ee:	b083      	sub	sp, #12
 80010f0:	af00      	add	r7, sp, #0
 80010f2:	6078      	str	r0, [r7, #4]

  /* NOTE : This function Should not be modified, when the callback is needed,
            the HAL_CAN_TxMailbox2CompleteCallback could be implemented in the
            user file
   */
}
 80010f4:	bf00      	nop
 80010f6:	370c      	adds	r7, #12
 80010f8:	46bd      	mov	sp, r7
 80010fa:	f85d 7b04 	ldr.w	r7, [sp], #4
 80010fe:	4770      	bx	lr

08001100 <HAL_CAN_TxMailbox0AbortCallback>:
  * @param  hcan pointer to an CAN_HandleTypeDef structure that contains
  *         the configuration information for the specified CAN.
  * @retval None
  */
__weak void HAL_CAN_TxMailbox0AbortCallback(CAN_HandleTypeDef *hcan)
{
 8001100:	b480      	push	{r7}
 8001102:	b083      	sub	sp, #12
 8001104:	af00      	add	r7, sp, #0
 8001106:	6078      	str	r0, [r7, #4]

  /* NOTE : This function Should not be modified, when the callback is needed,
            the HAL_CAN_TxMailbox0AbortCallback could be implemented in the
            user file
   */
}
 8001108:	bf00      	nop
 800110a:	370c      	adds	r7, #12
 800110c:	46bd      	mov	sp, r7
 800110e:	f85d 7b04 	ldr.w	r7, [sp], #4
 8001112:	4770      	bx	lr

08001114 <HAL_CAN_TxMailbox1AbortCallback>:
  * @param  hcan pointer to an CAN_HandleTypeDef structure that contains
  *         the configuration information for the specified CAN.
  * @retval None
  */
__weak void HAL_CAN_TxMailbox1AbortCallback(CAN_HandleTypeDef *hcan)
{
 8001114:	b480      	push	{r7}
 8001116:	b083      	sub	sp, #12
 8001118:	af00      	add	r7, sp, #0
 800111a:	6078      	str	r0, [r7, #4]

  /* NOTE : This function Should not be modified, when the callback is needed,
            the HAL_CAN_TxMailbox1AbortCallback could be implemented in the
            user file
   */
}
 800111c:	bf00      	nop
 800111e:	370c      	adds	r7, #12
 8001120:	46bd      	mov	sp, r7
 8001122:	f85d 7b04 	ldr.w	r7, [sp], #4
 8001126:	4770      	bx	lr

08001128 <HAL_CAN_TxMailbox2AbortCallback>:
  * @param  hcan pointer to an CAN_HandleTypeDef structure that contains
  *         the configuration information for the specified CAN.
  * @retval None
  */
__weak void HAL_CAN_TxMailbox2AbortCallback(CAN_HandleTypeDef *hcan)
{
 8001128:	b480      	push	{r7}
 800112a:	b083      	sub	sp, #12
 800112c:	af00      	add	r7, sp, #0
 800112e:	6078      	str	r0, [r7, #4]

  /* NOTE : This function Should not be modified, when the callback is needed,
            the HAL_CAN_TxMailbox2AbortCallback could be implemented in the
            user file
   */
}
 8001130:	bf00      	nop
 8001132:	370c      	adds	r7, #12
 8001134:	46bd      	mov	sp, r7
 8001136:	f85d 7b04 	ldr.w	r7, [sp], #4
 800113a:	4770      	bx	lr

0800113c <HAL_CAN_RxFifo0MsgPendingCallback>:
  * @param  hcan pointer to a CAN_HandleTypeDef structure that contains
  *         the configuration information for the specified CAN.
  * @retval None
  */
__weak void HAL_CAN_RxFifo0MsgPendingCallback(CAN_HandleTypeDef *hcan)
{
 800113c:	b480      	push	{r7}
 800113e:	b083      	sub	sp, #12
 8001140:	af00      	add	r7, sp, #0
 8001142:	6078      	str	r0, [r7, #4]

  /* NOTE : This function Should not be modified, when the callback is needed,
            the HAL_CAN_RxFifo0MsgPendingCallback could be implemented in the
            user file
   */
}
 8001144:	bf00      	nop
 8001146:	370c      	adds	r7, #12
 8001148:	46bd      	mov	sp, r7
 800114a:	f85d 7b04 	ldr.w	r7, [sp], #4
 800114e:	4770      	bx	lr

08001150 <HAL_CAN_RxFifo0FullCallback>:
  * @param  hcan pointer to a CAN_HandleTypeDef structure that contains
  *         the configuration information for the specified CAN.
  * @retval None
  */
__weak void HAL_CAN_RxFifo0FullCallback(CAN_HandleTypeDef *hcan)
{
 8001150:	b480      	push	{r7}
 8001152:	b083      	sub	sp, #12
 8001154:	af00      	add	r7, sp, #0
 8001156:	6078      	str	r0, [r7, #4]

  /* NOTE : This function Should not be modified, when the callback is needed,
            the HAL_CAN_RxFifo0FullCallback could be implemented in the user
            file
   */
}
 8001158:	bf00      	nop
 800115a:	370c      	adds	r7, #12
 800115c:	46bd      	mov	sp, r7
 800115e:	f85d 7b04 	ldr.w	r7, [sp], #4
 8001162:	4770      	bx	lr

08001164 <HAL_CAN_RxFifo1MsgPendingCallback>:
  * @param  hcan pointer to a CAN_HandleTypeDef structure that contains
  *         the configuration information for the specified CAN.
  * @retval None
  */
__weak void HAL_CAN_RxFifo1MsgPendingCallback(CAN_HandleTypeDef *hcan)
{
 8001164:	b480      	push	{r7}
 8001166:	b083      	sub	sp, #12
 8001168:	af00      	add	r7, sp, #0
 800116a:	6078      	str	r0, [r7, #4]

  /* NOTE : This function Should not be modified, when the callback is needed,
            the HAL_CAN_RxFifo1MsgPendingCallback could be implemented in the
            user file
   */
}
 800116c:	bf00      	nop
 800116e:	370c      	adds	r7, #12
 8001170:	46bd      	mov	sp, r7
 8001172:	f85d 7b04 	ldr.w	r7, [sp], #4
 8001176:	4770      	bx	lr

08001178 <HAL_CAN_RxFifo1FullCallback>:
  * @param  hcan pointer to a CAN_HandleTypeDef structure that contains
  *         the configuration information for the specified CAN.
  * @retval None
  */
__weak void HAL_CAN_RxFifo1FullCallback(CAN_HandleTypeDef *hcan)
{
 8001178:	b480      	push	{r7}
 800117a:	b083      	sub	sp, #12
 800117c:	af00      	add	r7, sp, #0
 800117e:	6078      	str	r0, [r7, #4]

  /* NOTE : This function Should not be modified, when the callback is needed,
            the HAL_CAN_RxFifo1FullCallback could be implemented in the user
            file
   */
}
 8001180:	bf00      	nop
 8001182:	370c      	adds	r7, #12
 8001184:	46bd      	mov	sp, r7
 8001186:	f85d 7b04 	ldr.w	r7, [sp], #4
 800118a:	4770      	bx	lr

0800118c <HAL_CAN_SleepCallback>:
  * @param  hcan pointer to a CAN_HandleTypeDef structure that contains
  *         the configuration information for the specified CAN.
  * @retval None
  */
__weak void HAL_CAN_SleepCallback(CAN_HandleTypeDef *hcan)
{
 800118c:	b480      	push	{r7}
 800118e:	b083      	sub	sp, #12
 8001190:	af00      	add	r7, sp, #0
 8001192:	6078      	str	r0, [r7, #4]
  UNUSED(hcan);

  /* NOTE : This function Should not be modified, when the callback is needed,
            the HAL_CAN_SleepCallback could be implemented in the user file
   */
}
 8001194:	bf00      	nop
 8001196:	370c      	adds	r7, #12
 8001198:	46bd      	mov	sp, r7
 800119a:	f85d 7b04 	ldr.w	r7, [sp], #4
 800119e:	4770      	bx	lr

080011a0 <HAL_CAN_WakeUpFromRxMsgCallback>:
  * @param  hcan pointer to a CAN_HandleTypeDef structure that contains
  *         the configuration information for the specified CAN.
  * @retval None
  */
__weak void HAL_CAN_WakeUpFromRxMsgCallback(CAN_HandleTypeDef *hcan)
{
 80011a0:	b480      	push	{r7}
 80011a2:	b083      	sub	sp, #12
 80011a4:	af00      	add	r7, sp, #0
 80011a6:	6078      	str	r0, [r7, #4]

  /* NOTE : This function Should not be modified, when the callback is needed,
            the HAL_CAN_WakeUpFromRxMsgCallback could be implemented in the
            user file
   */
}
 80011a8:	bf00      	nop
 80011aa:	370c      	adds	r7, #12
 80011ac:	46bd      	mov	sp, r7
 80011ae:	f85d 7b04 	ldr.w	r7, [sp], #4
 80011b2:	4770      	bx	lr

080011b4 <HAL_CAN_ErrorCallback>:
  * @param  hcan pointer to a CAN_HandleTypeDef structure that contains
  *         the configuration information for the specified CAN.
  * @retval None
  */
__weak void HAL_CAN_ErrorCallback(CAN_HandleTypeDef *hcan)
{
 80011b4:	b480      	push	{r7}
 80011b6:	b083      	sub	sp, #12
 80011b8:	af00      	add	r7, sp, #0
 80011ba:	6078      	str	r0, [r7, #4]
  UNUSED(hcan);

  /* NOTE : This function Should not be modified, when the callback is needed,
            the HAL_CAN_ErrorCallback could be implemented in the user file
   */
}
 80011bc:	bf00      	nop
 80011be:	370c      	adds	r7, #12
 80011c0:	46bd      	mov	sp, r7
 80011c2:	f85d 7b04 	ldr.w	r7, [sp], #4
 80011c6:	4770      	bx	lr

080011c8 <__NVIC_SetPriorityGrouping>:
           In case of a conflict between priority grouping and available
           priority bits (__NVIC_PRIO_BITS), the smallest possible priority group is set.
  \param [in]      PriorityGroup  Priority grouping field.
 */
__STATIC_INLINE void __NVIC_SetPriorityGrouping(uint32_t PriorityGroup)
{
 80011c8:	b480      	push	{r7}
 80011ca:	b085      	sub	sp, #20
 80011cc:	af00      	add	r7, sp, #0
 80011ce:	6078      	str	r0, [r7, #4]
  uint32_t reg_value;
  uint32_t PriorityGroupTmp = (PriorityGroup & (uint32_t)0x07UL);             /* only values 0..7 are used          */
 80011d0:	687b      	ldr	r3, [r7, #4]
 80011d2:	f003 0307 	and.w	r3, r3, #7
 80011d6:	60fb      	str	r3, [r7, #12]

  reg_value  =  SCB->AIRCR;                                                   /* read old register configuration    */
 80011d8:	4b0c      	ldr	r3, [pc, #48]	; (800120c <__NVIC_SetPriorityGrouping+0x44>)
 80011da:	68db      	ldr	r3, [r3, #12]
 80011dc:	60bb      	str	r3, [r7, #8]
  reg_value &= ~((uint32_t)(SCB_AIRCR_VECTKEY_Msk | SCB_AIRCR_PRIGROUP_Msk)); /* clear bits to change               */
 80011de:	68ba      	ldr	r2, [r7, #8]
 80011e0:	f64f 03ff 	movw	r3, #63743	; 0xf8ff
 80011e4:	4013      	ands	r3, r2
 80011e6:	60bb      	str	r3, [r7, #8]
  reg_value  =  (reg_value                                   |
                ((uint32_t)0x5FAUL << SCB_AIRCR_VECTKEY_Pos) |
                (PriorityGroupTmp << SCB_AIRCR_PRIGROUP_Pos)  );              /* Insert write key and priority group */
 80011e8:	68fb      	ldr	r3, [r7, #12]
 80011ea:	021a      	lsls	r2, r3, #8
                ((uint32_t)0x5FAUL << SCB_AIRCR_VECTKEY_Pos) |
 80011ec:	68bb      	ldr	r3, [r7, #8]
 80011ee:	4313      	orrs	r3, r2
  reg_value  =  (reg_value                                   |
 80011f0:	f043 63bf 	orr.w	r3, r3, #100139008	; 0x5f80000
 80011f4:	f443 3300 	orr.w	r3, r3, #131072	; 0x20000
 80011f8:	60bb      	str	r3, [r7, #8]
  SCB->AIRCR =  reg_value;
 80011fa:	4a04      	ldr	r2, [pc, #16]	; (800120c <__NVIC_SetPriorityGrouping+0x44>)
 80011fc:	68bb      	ldr	r3, [r7, #8]
 80011fe:	60d3      	str	r3, [r2, #12]
}
 8001200:	bf00      	nop
 8001202:	3714      	adds	r7, #20
 8001204:	46bd      	mov	sp, r7
 8001206:	f85d 7b04 	ldr.w	r7, [sp], #4
 800120a:	4770      	bx	lr
 800120c:	e000ed00 	.word	0xe000ed00

08001210 <__NVIC_GetPriorityGrouping>:
  \brief   Get Priority Grouping
  \details Reads the priority grouping field from the NVIC Interrupt Controller.
  \return                Priority grouping field (SCB->AIRCR [10:8] PRIGROUP field).
 */
__STATIC_INLINE uint32_t __NVIC_GetPriorityGrouping(void)
{
 8001210:	b480      	push	{r7}
 8001212:	af00      	add	r7, sp, #0
  return ((uint32_t)((SCB->AIRCR & SCB_AIRCR_PRIGROUP_Msk) >> SCB_AIRCR_PRIGROUP_Pos));
 8001214:	4b04      	ldr	r3, [pc, #16]	; (8001228 <__NVIC_GetPriorityGrouping+0x18>)
 8001216:	68db      	ldr	r3, [r3, #12]
 8001218:	0a1b      	lsrs	r3, r3, #8
 800121a:	f003 0307 	and.w	r3, r3, #7
}
 800121e:	4618      	mov	r0, r3
 8001220:	46bd      	mov	sp, r7
 8001222:	f85d 7b04 	ldr.w	r7, [sp], #4
 8001226:	4770      	bx	lr
 8001228:	e000ed00 	.word	0xe000ed00

0800122c <__NVIC_EnableIRQ>:
  \details Enables a device specific interrupt in the NVIC interrupt controller.
  \param [in]      IRQn  Device specific interrupt number.
  \note    IRQn must not be negative.
 */
__STATIC_INLINE void __NVIC_EnableIRQ(IRQn_Type IRQn)
{
 800122c:	b480      	push	{r7}
 800122e:	b083      	sub	sp, #12
 8001230:	af00      	add	r7, sp, #0
 8001232:	4603      	mov	r3, r0
 8001234:	71fb      	strb	r3, [r7, #7]
  if ((int32_t)(IRQn) >= 0)
 8001236:	f997 3007 	ldrsb.w	r3, [r7, #7]
 800123a:	2b00      	cmp	r3, #0
 800123c:	db0b      	blt.n	8001256 <__NVIC_EnableIRQ+0x2a>
  {
    __COMPILER_BARRIER();
    NVIC->ISER[(((uint32_t)IRQn) >> 5UL)] = (uint32_t)(1UL << (((uint32_t)IRQn) & 0x1FUL));
 800123e:	79fb      	ldrb	r3, [r7, #7]
 8001240:	f003 021f 	and.w	r2, r3, #31
 8001244:	4907      	ldr	r1, [pc, #28]	; (8001264 <__NVIC_EnableIRQ+0x38>)
 8001246:	f997 3007 	ldrsb.w	r3, [r7, #7]
 800124a:	095b      	lsrs	r3, r3, #5
 800124c:	2001      	movs	r0, #1
 800124e:	fa00 f202 	lsl.w	r2, r0, r2
 8001252:	f841 2023 	str.w	r2, [r1, r3, lsl #2]
    __COMPILER_BARRIER();
  }
}
 8001256:	bf00      	nop
 8001258:	370c      	adds	r7, #12
 800125a:	46bd      	mov	sp, r7
 800125c:	f85d 7b04 	ldr.w	r7, [sp], #4
 8001260:	4770      	bx	lr
 8001262:	bf00      	nop
 8001264:	e000e100 	.word	0xe000e100

08001268 <__NVIC_SetPriority>:
  \param [in]      IRQn  Interrupt number.
  \param [in]  priority  Priority to set.
  \note    The priority cannot be set for every processor exception.
 */
__STATIC_INLINE void __NVIC_SetPriority(IRQn_Type IRQn, uint32_t priority)
{
 8001268:	b480      	push	{r7}
 800126a:	b083      	sub	sp, #12
 800126c:	af00      	add	r7, sp, #0
 800126e:	4603      	mov	r3, r0
 8001270:	6039      	str	r1, [r7, #0]
 8001272:	71fb      	strb	r3, [r7, #7]
  if ((int32_t)(IRQn) >= 0)
 8001274:	f997 3007 	ldrsb.w	r3, [r7, #7]
 8001278:	2b00      	cmp	r3, #0
 800127a:	db0a      	blt.n	8001292 <__NVIC_SetPriority+0x2a>
  {
    NVIC->IP[((uint32_t)IRQn)]               = (uint8_t)((priority << (8U - __NVIC_PRIO_BITS)) & (uint32_t)0xFFUL);
 800127c:	683b      	ldr	r3, [r7, #0]
 800127e:	b2da      	uxtb	r2, r3
 8001280:	490c      	ldr	r1, [pc, #48]	; (80012b4 <__NVIC_SetPriority+0x4c>)
 8001282:	f997 3007 	ldrsb.w	r3, [r7, #7]
 8001286:	0112      	lsls	r2, r2, #4
 8001288:	b2d2      	uxtb	r2, r2
 800128a:	440b      	add	r3, r1
 800128c:	f883 2300 	strb.w	r2, [r3, #768]	; 0x300
  }
  else
  {
    SCB->SHP[(((uint32_t)IRQn) & 0xFUL)-4UL] = (uint8_t)((priority << (8U - __NVIC_PRIO_BITS)) & (uint32_t)0xFFUL);
  }
}
 8001290:	e00a      	b.n	80012a8 <__NVIC_SetPriority+0x40>
    SCB->SHP[(((uint32_t)IRQn) & 0xFUL)-4UL] = (uint8_t)((priority << (8U - __NVIC_PRIO_BITS)) & (uint32_t)0xFFUL);
 8001292:	683b      	ldr	r3, [r7, #0]
 8001294:	b2da      	uxtb	r2, r3
 8001296:	4908      	ldr	r1, [pc, #32]	; (80012b8 <__NVIC_SetPriority+0x50>)
 8001298:	79fb      	ldrb	r3, [r7, #7]
 800129a:	f003 030f 	and.w	r3, r3, #15
 800129e:	3b04      	subs	r3, #4
 80012a0:	0112      	lsls	r2, r2, #4
 80012a2:	b2d2      	uxtb	r2, r2
 80012a4:	440b      	add	r3, r1
 80012a6:	761a      	strb	r2, [r3, #24]
}
 80012a8:	bf00      	nop
 80012aa:	370c      	adds	r7, #12
 80012ac:	46bd      	mov	sp, r7
 80012ae:	f85d 7b04 	ldr.w	r7, [sp], #4
 80012b2:	4770      	bx	lr
 80012b4:	e000e100 	.word	0xe000e100
 80012b8:	e000ed00 	.word	0xe000ed00

080012bc <NVIC_EncodePriority>:
  \param [in]   PreemptPriority  Preemptive priority value (starting from 0).
  \param [in]       SubPriority  Subpriority value (starting from 0).
  \return                        Encoded priority. Value can be used in the function \ref NVIC_SetPriority().
 */
__STATIC_INLINE uint32_t NVIC_EncodePriority (uint32_t PriorityGroup, uint32_t PreemptPriority, uint32_t SubPriority)
{
 80012bc:	b480      	push	{r7}
 80012be:	b089      	sub	sp, #36	; 0x24
 80012c0:	af00      	add	r7, sp, #0
 80012c2:	60f8      	str	r0, [r7, #12]
 80012c4:	60b9      	str	r1, [r7, #8]
 80012c6:	607a      	str	r2, [r7, #4]
  uint32_t PriorityGroupTmp = (PriorityGroup & (uint32_t)0x07UL);   /* only values 0..7 are used          */
 80012c8:	68fb      	ldr	r3, [r7, #12]
 80012ca:	f003 0307 	and.w	r3, r3, #7
 80012ce:	61fb      	str	r3, [r7, #28]
  uint32_t PreemptPriorityBits;
  uint32_t SubPriorityBits;

  PreemptPriorityBits = ((7UL - PriorityGroupTmp) > (uint32_t)(__NVIC_PRIO_BITS)) ? (uint32_t)(__NVIC_PRIO_BITS) : (uint32_t)(7UL - PriorityGroupTmp);
 80012d0:	69fb      	ldr	r3, [r7, #28]
 80012d2:	f1c3 0307 	rsb	r3, r3, #7
 80012d6:	2b04      	cmp	r3, #4
 80012d8:	bf28      	it	cs
 80012da:	2304      	movcs	r3, #4
 80012dc:	61bb      	str	r3, [r7, #24]
  SubPriorityBits     = ((PriorityGroupTmp + (uint32_t)(__NVIC_PRIO_BITS)) < (uint32_t)7UL) ? (uint32_t)0UL : (uint32_t)((PriorityGroupTmp - 7UL) + (uint32_t)(__NVIC_PRIO_BITS));
 80012de:	69fb      	ldr	r3, [r7, #28]
 80012e0:	3304      	adds	r3, #4
 80012e2:	2b06      	cmp	r3, #6
 80012e4:	d902      	bls.n	80012ec <NVIC_EncodePriority+0x30>
 80012e6:	69fb      	ldr	r3, [r7, #28]
 80012e8:	3b03      	subs	r3, #3
 80012ea:	e000      	b.n	80012ee <NVIC_EncodePriority+0x32>
 80012ec:	2300      	movs	r3, #0
 80012ee:	617b      	str	r3, [r7, #20]

  return (
           ((PreemptPriority & (uint32_t)((1UL << (PreemptPriorityBits)) - 1UL)) << SubPriorityBits) |
 80012f0:	f04f 32ff 	mov.w	r2, #4294967295
 80012f4:	69bb      	ldr	r3, [r7, #24]
 80012f6:	fa02 f303 	lsl.w	r3, r2, r3
 80012fa:	43da      	mvns	r2, r3
 80012fc:	68bb      	ldr	r3, [r7, #8]
 80012fe:	401a      	ands	r2, r3
 8001300:	697b      	ldr	r3, [r7, #20]
 8001302:	409a      	lsls	r2, r3
           ((SubPriority     & (uint32_t)((1UL << (SubPriorityBits    )) - 1UL)))
 8001304:	f04f 31ff 	mov.w	r1, #4294967295
 8001308:	697b      	ldr	r3, [r7, #20]
 800130a:	fa01 f303 	lsl.w	r3, r1, r3
 800130e:	43d9      	mvns	r1, r3
 8001310:	687b      	ldr	r3, [r7, #4]
 8001312:	400b      	ands	r3, r1
           ((PreemptPriority & (uint32_t)((1UL << (PreemptPriorityBits)) - 1UL)) << SubPriorityBits) |
 8001314:	4313      	orrs	r3, r2
         );
}
 8001316:	4618      	mov	r0, r3
 8001318:	3724      	adds	r7, #36	; 0x24
 800131a:	46bd      	mov	sp, r7
 800131c:	f85d 7b04 	ldr.w	r7, [sp], #4
 8001320:	4770      	bx	lr
	...

08001324 <SysTick_Config>:
  \note    When the variable <b>__Vendor_SysTickConfig</b> is set to 1, then the
           function <b>SysTick_Config</b> is not included. In this case, the file <b><i>device</i>.h</b>
           must contain a vendor-specific implementation of this function.
 */
__STATIC_INLINE uint32_t SysTick_Config(uint32_t ticks)
{
 8001324:	b580      	push	{r7, lr}
 8001326:	b082      	sub	sp, #8
 8001328:	af00      	add	r7, sp, #0
 800132a:	6078      	str	r0, [r7, #4]
  if ((ticks - 1UL) > SysTick_LOAD_RELOAD_Msk)
 800132c:	687b      	ldr	r3, [r7, #4]
 800132e:	3b01      	subs	r3, #1
 8001330:	f1b3 7f80 	cmp.w	r3, #16777216	; 0x1000000
 8001334:	d301      	bcc.n	800133a <SysTick_Config+0x16>
  {
    return (1UL);                                                   /* Reload value impossible */
 8001336:	2301      	movs	r3, #1
 8001338:	e00f      	b.n	800135a <SysTick_Config+0x36>
  }

  SysTick->LOAD  = (uint32_t)(ticks - 1UL);                         /* set reload register */
 800133a:	4a0a      	ldr	r2, [pc, #40]	; (8001364 <SysTick_Config+0x40>)
 800133c:	687b      	ldr	r3, [r7, #4]
 800133e:	3b01      	subs	r3, #1
 8001340:	6053      	str	r3, [r2, #4]
  NVIC_SetPriority (SysTick_IRQn, (1UL << __NVIC_PRIO_BITS) - 1UL); /* set Priority for Systick Interrupt */
 8001342:	210f      	movs	r1, #15
 8001344:	f04f 30ff 	mov.w	r0, #4294967295
 8001348:	f7ff ff8e 	bl	8001268 <__NVIC_SetPriority>
  SysTick->VAL   = 0UL;                                             /* Load the SysTick Counter Value */
 800134c:	4b05      	ldr	r3, [pc, #20]	; (8001364 <SysTick_Config+0x40>)
 800134e:	2200      	movs	r2, #0
 8001350:	609a      	str	r2, [r3, #8]
  SysTick->CTRL  = SysTick_CTRL_CLKSOURCE_Msk |
 8001352:	4b04      	ldr	r3, [pc, #16]	; (8001364 <SysTick_Config+0x40>)
 8001354:	2207      	movs	r2, #7
 8001356:	601a      	str	r2, [r3, #0]
                   SysTick_CTRL_TICKINT_Msk   |
                   SysTick_CTRL_ENABLE_Msk;                         /* Enable SysTick IRQ and SysTick Timer */
  return (0UL);                                                     /* Function successful */
 8001358:	2300      	movs	r3, #0
}
 800135a:	4618      	mov	r0, r3
 800135c:	3708      	adds	r7, #8
 800135e:	46bd      	mov	sp, r7
 8001360:	bd80      	pop	{r7, pc}
 8001362:	bf00      	nop
 8001364:	e000e010 	.word	0xe000e010

08001368 <HAL_NVIC_SetPriorityGrouping>:
  * @note   When the NVIC_PriorityGroup_0 is selected, IRQ pre-emption is no more possible.
  *         The pending IRQ priority will be managed only by the subpriority.
  * @retval None
  */
void HAL_NVIC_SetPriorityGrouping(uint32_t PriorityGroup)
{
 8001368:	b580      	push	{r7, lr}
 800136a:	b082      	sub	sp, #8
 800136c:	af00      	add	r7, sp, #0
 800136e:	6078      	str	r0, [r7, #4]
  /* Check the parameters */
  assert_param(IS_NVIC_PRIORITY_GROUP(PriorityGroup));

  /* Set the PRIGROUP[10:8] bits according to the PriorityGroup parameter value */
  NVIC_SetPriorityGrouping(PriorityGroup);
 8001370:	6878      	ldr	r0, [r7, #4]
 8001372:	f7ff ff29 	bl	80011c8 <__NVIC_SetPriorityGrouping>
}
 8001376:	bf00      	nop
 8001378:	3708      	adds	r7, #8
 800137a:	46bd      	mov	sp, r7
 800137c:	bd80      	pop	{r7, pc}

0800137e <HAL_NVIC_SetPriority>:
  *         This parameter can be a value between 0 and 15
  *         A lower priority value indicates a higher priority.
  * @retval None
  */
void HAL_NVIC_SetPriority(IRQn_Type IRQn, uint32_t PreemptPriority, uint32_t SubPriority)
{
 800137e:	b580      	push	{r7, lr}
 8001380:	b086      	sub	sp, #24
 8001382:	af00      	add	r7, sp, #0
 8001384:	4603      	mov	r3, r0
 8001386:	60b9      	str	r1, [r7, #8]
 8001388:	607a      	str	r2, [r7, #4]
 800138a:	73fb      	strb	r3, [r7, #15]
  uint32_t prioritygroup = 0x00;
 800138c:	2300      	movs	r3, #0
 800138e:	617b      	str	r3, [r7, #20]

  /* Check the parameters */
  assert_param(IS_NVIC_SUB_PRIORITY(SubPriority));
  assert_param(IS_NVIC_PREEMPTION_PRIORITY(PreemptPriority));

  prioritygroup = NVIC_GetPriorityGrouping();
 8001390:	f7ff ff3e 	bl	8001210 <__NVIC_GetPriorityGrouping>
 8001394:	6178      	str	r0, [r7, #20]

  NVIC_SetPriority(IRQn, NVIC_EncodePriority(prioritygroup, PreemptPriority, SubPriority));
 8001396:	687a      	ldr	r2, [r7, #4]
 8001398:	68b9      	ldr	r1, [r7, #8]
 800139a:	6978      	ldr	r0, [r7, #20]
 800139c:	f7ff ff8e 	bl	80012bc <NVIC_EncodePriority>
 80013a0:	4602      	mov	r2, r0
 80013a2:	f997 300f 	ldrsb.w	r3, [r7, #15]
 80013a6:	4611      	mov	r1, r2
 80013a8:	4618      	mov	r0, r3
 80013aa:	f7ff ff5d 	bl	8001268 <__NVIC_SetPriority>
}
 80013ae:	bf00      	nop
 80013b0:	3718      	adds	r7, #24
 80013b2:	46bd      	mov	sp, r7
 80013b4:	bd80      	pop	{r7, pc}

080013b6 <HAL_NVIC_EnableIRQ>:
  *         This parameter can be an enumerator of IRQn_Type enumeration
  *         (For the complete STM32 Devices IRQ Channels list, please refer to the appropriate CMSIS device file (stm32l4xxxx.h))
  * @retval None
  */
void HAL_NVIC_EnableIRQ(IRQn_Type IRQn)
{
 80013b6:	b580      	push	{r7, lr}
 80013b8:	b082      	sub	sp, #8
 80013ba:	af00      	add	r7, sp, #0
 80013bc:	4603      	mov	r3, r0
 80013be:	71fb      	strb	r3, [r7, #7]
  /* Check the parameters */
  assert_param(IS_NVIC_DEVICE_IRQ(IRQn));
  
  /* Enable interrupt */
  NVIC_EnableIRQ(IRQn);
 80013c0:	f997 3007 	ldrsb.w	r3, [r7, #7]
 80013c4:	4618      	mov	r0, r3
 80013c6:	f7ff ff31 	bl	800122c <__NVIC_EnableIRQ>
}
 80013ca:	bf00      	nop
 80013cc:	3708      	adds	r7, #8
 80013ce:	46bd      	mov	sp, r7
 80013d0:	bd80      	pop	{r7, pc}

080013d2 <HAL_SYSTICK_Config>:
  * @param  TicksNumb: Specifies the ticks Number of ticks between two interrupts.
  * @retval status:  - 0  Function succeeded.
  *                  - 1  Function failed.
  */
uint32_t HAL_SYSTICK_Config(uint32_t TicksNumb)
{
 80013d2:	b580      	push	{r7, lr}
 80013d4:	b082      	sub	sp, #8
 80013d6:	af00      	add	r7, sp, #0
 80013d8:	6078      	str	r0, [r7, #4]
   return SysTick_Config(TicksNumb);
 80013da:	6878      	ldr	r0, [r7, #4]
 80013dc:	f7ff ffa2 	bl	8001324 <SysTick_Config>
 80013e0:	4603      	mov	r3, r0
}
 80013e2:	4618      	mov	r0, r3
 80013e4:	3708      	adds	r7, #8
 80013e6:	46bd      	mov	sp, r7
 80013e8:	bd80      	pop	{r7, pc}
	...

080013ec <HAL_GPIO_Init>:
  * @param  GPIO_Init pointer to a GPIO_InitTypeDef structure that contains
  *         the configuration information for the specified GPIO peripheral.
  * @retval None
  */
void HAL_GPIO_Init(GPIO_TypeDef  *GPIOx, GPIO_InitTypeDef *GPIO_Init)
{
 80013ec:	b480      	push	{r7}
 80013ee:	b087      	sub	sp, #28
 80013f0:	af00      	add	r7, sp, #0
 80013f2:	6078      	str	r0, [r7, #4]
 80013f4:	6039      	str	r1, [r7, #0]
  uint32_t position = 0x00u;
 80013f6:	2300      	movs	r3, #0
 80013f8:	617b      	str	r3, [r7, #20]
  assert_param(IS_GPIO_PIN(GPIO_Init->Pin));
  assert_param(IS_GPIO_MODE(GPIO_Init->Mode));
  assert_param(IS_GPIO_PULL(GPIO_Init->Pull));

  /* Configure the port pins */
  while (((GPIO_Init->Pin) >> position) != 0x00u)
 80013fa:	e17f      	b.n	80016fc <HAL_GPIO_Init+0x310>
  {
    /* Get current io position */
    iocurrent = (GPIO_Init->Pin) & (1uL << position);
 80013fc:	683b      	ldr	r3, [r7, #0]
 80013fe:	681a      	ldr	r2, [r3, #0]
 8001400:	2101      	movs	r1, #1
 8001402:	697b      	ldr	r3, [r7, #20]
 8001404:	fa01 f303 	lsl.w	r3, r1, r3
 8001408:	4013      	ands	r3, r2
 800140a:	60fb      	str	r3, [r7, #12]

    if (iocurrent != 0x00u)
 800140c:	68fb      	ldr	r3, [r7, #12]
 800140e:	2b00      	cmp	r3, #0
 8001410:	f000 8171 	beq.w	80016f6 <HAL_GPIO_Init+0x30a>
    {
      /*--------------------- GPIO Mode Configuration ------------------------*/
      /* In case of Output or Alternate function mode selection */
      if((GPIO_Init->Mode == GPIO_MODE_OUTPUT_PP) || (GPIO_Init->Mode == GPIO_MODE_AF_PP) ||
 8001414:	683b      	ldr	r3, [r7, #0]
 8001416:	685b      	ldr	r3, [r3, #4]
 8001418:	2b01      	cmp	r3, #1
 800141a:	d00b      	beq.n	8001434 <HAL_GPIO_Init+0x48>
 800141c:	683b      	ldr	r3, [r7, #0]
 800141e:	685b      	ldr	r3, [r3, #4]
 8001420:	2b02      	cmp	r3, #2
 8001422:	d007      	beq.n	8001434 <HAL_GPIO_Init+0x48>
         (GPIO_Init->Mode == GPIO_MODE_OUTPUT_OD) || (GPIO_Init->Mode == GPIO_MODE_AF_OD))
 8001424:	683b      	ldr	r3, [r7, #0]
 8001426:	685b      	ldr	r3, [r3, #4]
      if((GPIO_Init->Mode == GPIO_MODE_OUTPUT_PP) || (GPIO_Init->Mode == GPIO_MODE_AF_PP) ||
 8001428:	2b11      	cmp	r3, #17
 800142a:	d003      	beq.n	8001434 <HAL_GPIO_Init+0x48>
         (GPIO_Init->Mode == GPIO_MODE_OUTPUT_OD) || (GPIO_Init->Mode == GPIO_MODE_AF_OD))
 800142c:	683b      	ldr	r3, [r7, #0]
 800142e:	685b      	ldr	r3, [r3, #4]
 8001430:	2b12      	cmp	r3, #18
 8001432:	d130      	bne.n	8001496 <HAL_GPIO_Init+0xaa>
      {
        /* Check the Speed parameter */
        assert_param(IS_GPIO_SPEED(GPIO_Init->Speed));
        /* Configure the IO Speed */
        temp = GPIOx->OSPEEDR;
 8001434:	687b      	ldr	r3, [r7, #4]
 8001436:	689b      	ldr	r3, [r3, #8]
 8001438:	613b      	str	r3, [r7, #16]
        temp &= ~(GPIO_OSPEEDR_OSPEED0 << (position * 2u));
 800143a:	697b      	ldr	r3, [r7, #20]
 800143c:	005b      	lsls	r3, r3, #1
 800143e:	2203      	movs	r2, #3
 8001440:	fa02 f303 	lsl.w	r3, r2, r3
 8001444:	43db      	mvns	r3, r3
 8001446:	693a      	ldr	r2, [r7, #16]
 8001448:	4013      	ands	r3, r2
 800144a:	613b      	str	r3, [r7, #16]
        temp |= (GPIO_Init->Speed << (position * 2u));
 800144c:	683b      	ldr	r3, [r7, #0]
 800144e:	68da      	ldr	r2, [r3, #12]
 8001450:	697b      	ldr	r3, [r7, #20]
 8001452:	005b      	lsls	r3, r3, #1
 8001454:	fa02 f303 	lsl.w	r3, r2, r3
 8001458:	693a      	ldr	r2, [r7, #16]
 800145a:	4313      	orrs	r3, r2
 800145c:	613b      	str	r3, [r7, #16]
        GPIOx->OSPEEDR = temp;
 800145e:	687b      	ldr	r3, [r7, #4]
 8001460:	693a      	ldr	r2, [r7, #16]
 8001462:	609a      	str	r2, [r3, #8]

        /* Configure the IO Output Type */
        temp = GPIOx->OTYPER;
 8001464:	687b      	ldr	r3, [r7, #4]
 8001466:	685b      	ldr	r3, [r3, #4]
 8001468:	613b      	str	r3, [r7, #16]
        temp &= ~(GPIO_OTYPER_OT0 << position) ;
 800146a:	2201      	movs	r2, #1
 800146c:	697b      	ldr	r3, [r7, #20]
 800146e:	fa02 f303 	lsl.w	r3, r2, r3
 8001472:	43db      	mvns	r3, r3
 8001474:	693a      	ldr	r2, [r7, #16]
 8001476:	4013      	ands	r3, r2
 8001478:	613b      	str	r3, [r7, #16]
        temp |= (((GPIO_Init->Mode & GPIO_OUTPUT_TYPE) >> 4u) << position);
 800147a:	683b      	ldr	r3, [r7, #0]
 800147c:	685b      	ldr	r3, [r3, #4]
 800147e:	091b      	lsrs	r3, r3, #4
 8001480:	f003 0201 	and.w	r2, r3, #1
 8001484:	697b      	ldr	r3, [r7, #20]
 8001486:	fa02 f303 	lsl.w	r3, r2, r3
 800148a:	693a      	ldr	r2, [r7, #16]
 800148c:	4313      	orrs	r3, r2
 800148e:	613b      	str	r3, [r7, #16]
        GPIOx->OTYPER = temp;
 8001490:	687b      	ldr	r3, [r7, #4]
 8001492:	693a      	ldr	r2, [r7, #16]
 8001494:	605a      	str	r2, [r3, #4]
      }

#if defined(STM32L471xx) || defined(STM32L475xx) || defined(STM32L476xx) || defined(STM32L485xx) || defined(STM32L486xx)

      /* In case of Analog mode, check if ADC control mode is selected */
      if((GPIO_Init->Mode & GPIO_MODE_ANALOG) == GPIO_MODE_ANALOG)
 8001496:	683b      	ldr	r3, [r7, #0]
 8001498:	685b      	ldr	r3, [r3, #4]
 800149a:	f003 0303 	and.w	r3, r3, #3
 800149e:	2b03      	cmp	r3, #3
 80014a0:	d118      	bne.n	80014d4 <HAL_GPIO_Init+0xe8>
      {
        /* Configure the IO Output Type */
        temp = GPIOx->ASCR;
 80014a2:	687b      	ldr	r3, [r7, #4]
 80014a4:	6adb      	ldr	r3, [r3, #44]	; 0x2c
 80014a6:	613b      	str	r3, [r7, #16]
        temp &= ~(GPIO_ASCR_ASC0 << position) ;
 80014a8:	2201      	movs	r2, #1
 80014aa:	697b      	ldr	r3, [r7, #20]
 80014ac:	fa02 f303 	lsl.w	r3, r2, r3
 80014b0:	43db      	mvns	r3, r3
 80014b2:	693a      	ldr	r2, [r7, #16]
 80014b4:	4013      	ands	r3, r2
 80014b6:	613b      	str	r3, [r7, #16]
        temp |= (((GPIO_Init->Mode & ANALOG_MODE) >> 3) << position);
 80014b8:	683b      	ldr	r3, [r7, #0]
 80014ba:	685b      	ldr	r3, [r3, #4]
 80014bc:	08db      	lsrs	r3, r3, #3
 80014be:	f003 0201 	and.w	r2, r3, #1
 80014c2:	697b      	ldr	r3, [r7, #20]
 80014c4:	fa02 f303 	lsl.w	r3, r2, r3
 80014c8:	693a      	ldr	r2, [r7, #16]
 80014ca:	4313      	orrs	r3, r2
 80014cc:	613b      	str	r3, [r7, #16]
        GPIOx->ASCR = temp;
 80014ce:	687b      	ldr	r3, [r7, #4]
 80014d0:	693a      	ldr	r2, [r7, #16]
 80014d2:	62da      	str	r2, [r3, #44]	; 0x2c
      }

#endif /* STM32L471xx || STM32L475xx || STM32L476xx || STM32L485xx || STM32L486xx */

      /* Activate the Pull-up or Pull down resistor for the current IO */
      temp = GPIOx->PUPDR;
 80014d4:	687b      	ldr	r3, [r7, #4]
 80014d6:	68db      	ldr	r3, [r3, #12]
 80014d8:	613b      	str	r3, [r7, #16]
      temp &= ~(GPIO_PUPDR_PUPD0 << (position * 2u));
 80014da:	697b      	ldr	r3, [r7, #20]
 80014dc:	005b      	lsls	r3, r3, #1
 80014de:	2203      	movs	r2, #3
 80014e0:	fa02 f303 	lsl.w	r3, r2, r3
 80014e4:	43db      	mvns	r3, r3
 80014e6:	693a      	ldr	r2, [r7, #16]
 80014e8:	4013      	ands	r3, r2
 80014ea:	613b      	str	r3, [r7, #16]
      temp |= ((GPIO_Init->Pull) << (position * 2u));
 80014ec:	683b      	ldr	r3, [r7, #0]
 80014ee:	689a      	ldr	r2, [r3, #8]
 80014f0:	697b      	ldr	r3, [r7, #20]
 80014f2:	005b      	lsls	r3, r3, #1
 80014f4:	fa02 f303 	lsl.w	r3, r2, r3
 80014f8:	693a      	ldr	r2, [r7, #16]
 80014fa:	4313      	orrs	r3, r2
 80014fc:	613b      	str	r3, [r7, #16]
      GPIOx->PUPDR = temp;
 80014fe:	687b      	ldr	r3, [r7, #4]
 8001500:	693a      	ldr	r2, [r7, #16]
 8001502:	60da      	str	r2, [r3, #12]

      /* In case of Alternate function mode selection */
      if((GPIO_Init->Mode == GPIO_MODE_AF_PP) || (GPIO_Init->Mode == GPIO_MODE_AF_OD))
 8001504:	683b      	ldr	r3, [r7, #0]
 8001506:	685b      	ldr	r3, [r3, #4]
 8001508:	2b02      	cmp	r3, #2
 800150a:	d003      	beq.n	8001514 <HAL_GPIO_Init+0x128>
 800150c:	683b      	ldr	r3, [r7, #0]
 800150e:	685b      	ldr	r3, [r3, #4]
 8001510:	2b12      	cmp	r3, #18
 8001512:	d123      	bne.n	800155c <HAL_GPIO_Init+0x170>
        /* Check the Alternate function parameters */
        assert_param(IS_GPIO_AF_INSTANCE(GPIOx));
        assert_param(IS_GPIO_AF(GPIO_Init->Alternate));

        /* Configure Alternate function mapped with the current IO */
        temp = GPIOx->AFR[position >> 3u];
 8001514:	697b      	ldr	r3, [r7, #20]
 8001516:	08da      	lsrs	r2, r3, #3
 8001518:	687b      	ldr	r3, [r7, #4]
 800151a:	3208      	adds	r2, #8
 800151c:	f853 3022 	ldr.w	r3, [r3, r2, lsl #2]
 8001520:	613b      	str	r3, [r7, #16]
        temp &= ~(0xFu << ((position & 0x07u) * 4u));
 8001522:	697b      	ldr	r3, [r7, #20]
 8001524:	f003 0307 	and.w	r3, r3, #7
 8001528:	009b      	lsls	r3, r3, #2
 800152a:	220f      	movs	r2, #15
 800152c:	fa02 f303 	lsl.w	r3, r2, r3
 8001530:	43db      	mvns	r3, r3
 8001532:	693a      	ldr	r2, [r7, #16]
 8001534:	4013      	ands	r3, r2
 8001536:	613b      	str	r3, [r7, #16]
        temp |= ((GPIO_Init->Alternate) << ((position & 0x07u) * 4u));
 8001538:	683b      	ldr	r3, [r7, #0]
 800153a:	691a      	ldr	r2, [r3, #16]
 800153c:	697b      	ldr	r3, [r7, #20]
 800153e:	f003 0307 	and.w	r3, r3, #7
 8001542:	009b      	lsls	r3, r3, #2
 8001544:	fa02 f303 	lsl.w	r3, r2, r3
 8001548:	693a      	ldr	r2, [r7, #16]
 800154a:	4313      	orrs	r3, r2
 800154c:	613b      	str	r3, [r7, #16]
        GPIOx->AFR[position >> 3u] = temp;
 800154e:	697b      	ldr	r3, [r7, #20]
 8001550:	08da      	lsrs	r2, r3, #3
 8001552:	687b      	ldr	r3, [r7, #4]
 8001554:	3208      	adds	r2, #8
 8001556:	6939      	ldr	r1, [r7, #16]
 8001558:	f843 1022 	str.w	r1, [r3, r2, lsl #2]
      }

      /* Configure IO Direction mode (Input, Output, Alternate or Analog) */
      temp = GPIOx->MODER;
 800155c:	687b      	ldr	r3, [r7, #4]
 800155e:	681b      	ldr	r3, [r3, #0]
 8001560:	613b      	str	r3, [r7, #16]
      temp &= ~(GPIO_MODER_MODE0 << (position * 2u));
 8001562:	697b      	ldr	r3, [r7, #20]
 8001564:	005b      	lsls	r3, r3, #1
 8001566:	2203      	movs	r2, #3
 8001568:	fa02 f303 	lsl.w	r3, r2, r3
 800156c:	43db      	mvns	r3, r3
 800156e:	693a      	ldr	r2, [r7, #16]
 8001570:	4013      	ands	r3, r2
 8001572:	613b      	str	r3, [r7, #16]
      temp |= ((GPIO_Init->Mode & GPIO_MODE) << (position * 2u));
 8001574:	683b      	ldr	r3, [r7, #0]
 8001576:	685b      	ldr	r3, [r3, #4]
 8001578:	f003 0203 	and.w	r2, r3, #3
 800157c:	697b      	ldr	r3, [r7, #20]
 800157e:	005b      	lsls	r3, r3, #1
 8001580:	fa02 f303 	lsl.w	r3, r2, r3
 8001584:	693a      	ldr	r2, [r7, #16]
 8001586:	4313      	orrs	r3, r2
 8001588:	613b      	str	r3, [r7, #16]
      GPIOx->MODER = temp;
 800158a:	687b      	ldr	r3, [r7, #4]
 800158c:	693a      	ldr	r2, [r7, #16]
 800158e:	601a      	str	r2, [r3, #0]

      /*--------------------- EXTI Mode Configuration ------------------------*/
      /* Configure the External Interrupt or event for the current IO */
      if((GPIO_Init->Mode & EXTI_MODE) == EXTI_MODE)
 8001590:	683b      	ldr	r3, [r7, #0]
 8001592:	685b      	ldr	r3, [r3, #4]
 8001594:	f003 5380 	and.w	r3, r3, #268435456	; 0x10000000
 8001598:	2b00      	cmp	r3, #0
 800159a:	f000 80ac 	beq.w	80016f6 <HAL_GPIO_Init+0x30a>
      {
        /* Enable SYSCFG Clock */
        __HAL_RCC_SYSCFG_CLK_ENABLE();
 800159e:	4b5f      	ldr	r3, [pc, #380]	; (800171c <HAL_GPIO_Init+0x330>)
 80015a0:	6e1b      	ldr	r3, [r3, #96]	; 0x60
 80015a2:	4a5e      	ldr	r2, [pc, #376]	; (800171c <HAL_GPIO_Init+0x330>)
 80015a4:	f043 0301 	orr.w	r3, r3, #1
 80015a8:	6613      	str	r3, [r2, #96]	; 0x60
 80015aa:	4b5c      	ldr	r3, [pc, #368]	; (800171c <HAL_GPIO_Init+0x330>)
 80015ac:	6e1b      	ldr	r3, [r3, #96]	; 0x60
 80015ae:	f003 0301 	and.w	r3, r3, #1
 80015b2:	60bb      	str	r3, [r7, #8]
 80015b4:	68bb      	ldr	r3, [r7, #8]

        temp = SYSCFG->EXTICR[position >> 2u];
 80015b6:	4a5a      	ldr	r2, [pc, #360]	; (8001720 <HAL_GPIO_Init+0x334>)
 80015b8:	697b      	ldr	r3, [r7, #20]
 80015ba:	089b      	lsrs	r3, r3, #2
 80015bc:	3302      	adds	r3, #2
 80015be:	f852 3023 	ldr.w	r3, [r2, r3, lsl #2]
 80015c2:	613b      	str	r3, [r7, #16]
        temp &= ~(0x0FuL << (4u * (position & 0x03u)));
 80015c4:	697b      	ldr	r3, [r7, #20]
 80015c6:	f003 0303 	and.w	r3, r3, #3
 80015ca:	009b      	lsls	r3, r3, #2
 80015cc:	220f      	movs	r2, #15
 80015ce:	fa02 f303 	lsl.w	r3, r2, r3
 80015d2:	43db      	mvns	r3, r3
 80015d4:	693a      	ldr	r2, [r7, #16]
 80015d6:	4013      	ands	r3, r2
 80015d8:	613b      	str	r3, [r7, #16]
        temp |= (GPIO_GET_INDEX(GPIOx) << (4u * (position & 0x03u)));
 80015da:	687b      	ldr	r3, [r7, #4]
 80015dc:	f1b3 4f90 	cmp.w	r3, #1207959552	; 0x48000000
 80015e0:	d025      	beq.n	800162e <HAL_GPIO_Init+0x242>
 80015e2:	687b      	ldr	r3, [r7, #4]
 80015e4:	4a4f      	ldr	r2, [pc, #316]	; (8001724 <HAL_GPIO_Init+0x338>)
 80015e6:	4293      	cmp	r3, r2
 80015e8:	d01f      	beq.n	800162a <HAL_GPIO_Init+0x23e>
 80015ea:	687b      	ldr	r3, [r7, #4]
 80015ec:	4a4e      	ldr	r2, [pc, #312]	; (8001728 <HAL_GPIO_Init+0x33c>)
 80015ee:	4293      	cmp	r3, r2
 80015f0:	d019      	beq.n	8001626 <HAL_GPIO_Init+0x23a>
 80015f2:	687b      	ldr	r3, [r7, #4]
 80015f4:	4a4d      	ldr	r2, [pc, #308]	; (800172c <HAL_GPIO_Init+0x340>)
 80015f6:	4293      	cmp	r3, r2
 80015f8:	d013      	beq.n	8001622 <HAL_GPIO_Init+0x236>
 80015fa:	687b      	ldr	r3, [r7, #4]
 80015fc:	4a4c      	ldr	r2, [pc, #304]	; (8001730 <HAL_GPIO_Init+0x344>)
 80015fe:	4293      	cmp	r3, r2
 8001600:	d00d      	beq.n	800161e <HAL_GPIO_Init+0x232>
 8001602:	687b      	ldr	r3, [r7, #4]
 8001604:	4a4b      	ldr	r2, [pc, #300]	; (8001734 <HAL_GPIO_Init+0x348>)
 8001606:	4293      	cmp	r3, r2
 8001608:	d007      	beq.n	800161a <HAL_GPIO_Init+0x22e>
 800160a:	687b      	ldr	r3, [r7, #4]
 800160c:	4a4a      	ldr	r2, [pc, #296]	; (8001738 <HAL_GPIO_Init+0x34c>)
 800160e:	4293      	cmp	r3, r2
 8001610:	d101      	bne.n	8001616 <HAL_GPIO_Init+0x22a>
 8001612:	2306      	movs	r3, #6
 8001614:	e00c      	b.n	8001630 <HAL_GPIO_Init+0x244>
 8001616:	2307      	movs	r3, #7
 8001618:	e00a      	b.n	8001630 <HAL_GPIO_Init+0x244>
 800161a:	2305      	movs	r3, #5
 800161c:	e008      	b.n	8001630 <HAL_GPIO_Init+0x244>
 800161e:	2304      	movs	r3, #4
 8001620:	e006      	b.n	8001630 <HAL_GPIO_Init+0x244>
 8001622:	2303      	movs	r3, #3
 8001624:	e004      	b.n	8001630 <HAL_GPIO_Init+0x244>
 8001626:	2302      	movs	r3, #2
 8001628:	e002      	b.n	8001630 <HAL_GPIO_Init+0x244>
 800162a:	2301      	movs	r3, #1
 800162c:	e000      	b.n	8001630 <HAL_GPIO_Init+0x244>
 800162e:	2300      	movs	r3, #0
 8001630:	697a      	ldr	r2, [r7, #20]
 8001632:	f002 0203 	and.w	r2, r2, #3
 8001636:	0092      	lsls	r2, r2, #2
 8001638:	4093      	lsls	r3, r2
 800163a:	693a      	ldr	r2, [r7, #16]
 800163c:	4313      	orrs	r3, r2
 800163e:	613b      	str	r3, [r7, #16]
        SYSCFG->EXTICR[position >> 2u] = temp;
 8001640:	4937      	ldr	r1, [pc, #220]	; (8001720 <HAL_GPIO_Init+0x334>)
 8001642:	697b      	ldr	r3, [r7, #20]
 8001644:	089b      	lsrs	r3, r3, #2
 8001646:	3302      	adds	r3, #2
 8001648:	693a      	ldr	r2, [r7, #16]
 800164a:	f841 2023 	str.w	r2, [r1, r3, lsl #2]

        /* Clear EXTI line configuration */
        temp = EXTI->IMR1;
 800164e:	4b3b      	ldr	r3, [pc, #236]	; (800173c <HAL_GPIO_Init+0x350>)
 8001650:	681b      	ldr	r3, [r3, #0]
 8001652:	613b      	str	r3, [r7, #16]
        temp &= ~(iocurrent);
 8001654:	68fb      	ldr	r3, [r7, #12]
 8001656:	43db      	mvns	r3, r3
 8001658:	693a      	ldr	r2, [r7, #16]
 800165a:	4013      	ands	r3, r2
 800165c:	613b      	str	r3, [r7, #16]
        if((GPIO_Init->Mode & GPIO_MODE_IT) == GPIO_MODE_IT)
 800165e:	683b      	ldr	r3, [r7, #0]
 8001660:	685b      	ldr	r3, [r3, #4]
 8001662:	f403 3380 	and.w	r3, r3, #65536	; 0x10000
 8001666:	2b00      	cmp	r3, #0
 8001668:	d003      	beq.n	8001672 <HAL_GPIO_Init+0x286>
        {
          temp |= iocurrent;
 800166a:	693a      	ldr	r2, [r7, #16]
 800166c:	68fb      	ldr	r3, [r7, #12]
 800166e:	4313      	orrs	r3, r2
 8001670:	613b      	str	r3, [r7, #16]
        }
        EXTI->IMR1 = temp;
 8001672:	4a32      	ldr	r2, [pc, #200]	; (800173c <HAL_GPIO_Init+0x350>)
 8001674:	693b      	ldr	r3, [r7, #16]
 8001676:	6013      	str	r3, [r2, #0]

        temp = EXTI->EMR1;
 8001678:	4b30      	ldr	r3, [pc, #192]	; (800173c <HAL_GPIO_Init+0x350>)
 800167a:	685b      	ldr	r3, [r3, #4]
 800167c:	613b      	str	r3, [r7, #16]
        temp &= ~(iocurrent);
 800167e:	68fb      	ldr	r3, [r7, #12]
 8001680:	43db      	mvns	r3, r3
 8001682:	693a      	ldr	r2, [r7, #16]
 8001684:	4013      	ands	r3, r2
 8001686:	613b      	str	r3, [r7, #16]
        if((GPIO_Init->Mode & GPIO_MODE_EVT) == GPIO_MODE_EVT)
 8001688:	683b      	ldr	r3, [r7, #0]
 800168a:	685b      	ldr	r3, [r3, #4]
 800168c:	f403 3300 	and.w	r3, r3, #131072	; 0x20000
 8001690:	2b00      	cmp	r3, #0
 8001692:	d003      	beq.n	800169c <HAL_GPIO_Init+0x2b0>
        {
          temp |= iocurrent;
 8001694:	693a      	ldr	r2, [r7, #16]
 8001696:	68fb      	ldr	r3, [r7, #12]
 8001698:	4313      	orrs	r3, r2
 800169a:	613b      	str	r3, [r7, #16]
        }
        EXTI->EMR1 = temp;
 800169c:	4a27      	ldr	r2, [pc, #156]	; (800173c <HAL_GPIO_Init+0x350>)
 800169e:	693b      	ldr	r3, [r7, #16]
 80016a0:	6053      	str	r3, [r2, #4]

        /* Clear Rising Falling edge configuration */
        temp = EXTI->RTSR1;
 80016a2:	4b26      	ldr	r3, [pc, #152]	; (800173c <HAL_GPIO_Init+0x350>)
 80016a4:	689b      	ldr	r3, [r3, #8]
 80016a6:	613b      	str	r3, [r7, #16]
        temp &= ~(iocurrent);
 80016a8:	68fb      	ldr	r3, [r7, #12]
 80016aa:	43db      	mvns	r3, r3
 80016ac:	693a      	ldr	r2, [r7, #16]
 80016ae:	4013      	ands	r3, r2
 80016b0:	613b      	str	r3, [r7, #16]
        if((GPIO_Init->Mode & RISING_EDGE) == RISING_EDGE)
 80016b2:	683b      	ldr	r3, [r7, #0]
 80016b4:	685b      	ldr	r3, [r3, #4]
 80016b6:	f403 1380 	and.w	r3, r3, #1048576	; 0x100000
 80016ba:	2b00      	cmp	r3, #0
 80016bc:	d003      	beq.n	80016c6 <HAL_GPIO_Init+0x2da>
        {
          temp |= iocurrent;
 80016be:	693a      	ldr	r2, [r7, #16]
 80016c0:	68fb      	ldr	r3, [r7, #12]
 80016c2:	4313      	orrs	r3, r2
 80016c4:	613b      	str	r3, [r7, #16]
        }
        EXTI->RTSR1 = temp;
 80016c6:	4a1d      	ldr	r2, [pc, #116]	; (800173c <HAL_GPIO_Init+0x350>)
 80016c8:	693b      	ldr	r3, [r7, #16]
 80016ca:	6093      	str	r3, [r2, #8]

        temp = EXTI->FTSR1;
 80016cc:	4b1b      	ldr	r3, [pc, #108]	; (800173c <HAL_GPIO_Init+0x350>)
 80016ce:	68db      	ldr	r3, [r3, #12]
 80016d0:	613b      	str	r3, [r7, #16]
        temp &= ~(iocurrent);
 80016d2:	68fb      	ldr	r3, [r7, #12]
 80016d4:	43db      	mvns	r3, r3
 80016d6:	693a      	ldr	r2, [r7, #16]
 80016d8:	4013      	ands	r3, r2
 80016da:	613b      	str	r3, [r7, #16]
        if((GPIO_Init->Mode & FALLING_EDGE) == FALLING_EDGE)
 80016dc:	683b      	ldr	r3, [r7, #0]
 80016de:	685b      	ldr	r3, [r3, #4]
 80016e0:	f403 1300 	and.w	r3, r3, #2097152	; 0x200000
 80016e4:	2b00      	cmp	r3, #0
 80016e6:	d003      	beq.n	80016f0 <HAL_GPIO_Init+0x304>
        {
          temp |= iocurrent;
 80016e8:	693a      	ldr	r2, [r7, #16]
 80016ea:	68fb      	ldr	r3, [r7, #12]
 80016ec:	4313      	orrs	r3, r2
 80016ee:	613b      	str	r3, [r7, #16]
        }
        EXTI->FTSR1 = temp;
 80016f0:	4a12      	ldr	r2, [pc, #72]	; (800173c <HAL_GPIO_Init+0x350>)
 80016f2:	693b      	ldr	r3, [r7, #16]
 80016f4:	60d3      	str	r3, [r2, #12]
      }
    }

    position++;
 80016f6:	697b      	ldr	r3, [r7, #20]
 80016f8:	3301      	adds	r3, #1
 80016fa:	617b      	str	r3, [r7, #20]
  while (((GPIO_Init->Pin) >> position) != 0x00u)
 80016fc:	683b      	ldr	r3, [r7, #0]
 80016fe:	681a      	ldr	r2, [r3, #0]
 8001700:	697b      	ldr	r3, [r7, #20]
 8001702:	fa22 f303 	lsr.w	r3, r2, r3
 8001706:	2b00      	cmp	r3, #0
 8001708:	f47f ae78 	bne.w	80013fc <HAL_GPIO_Init+0x10>
  }
}
 800170c:	bf00      	nop
 800170e:	bf00      	nop
 8001710:	371c      	adds	r7, #28
 8001712:	46bd      	mov	sp, r7
 8001714:	f85d 7b04 	ldr.w	r7, [sp], #4
 8001718:	4770      	bx	lr
 800171a:	bf00      	nop
 800171c:	40021000 	.word	0x40021000
 8001720:	40010000 	.word	0x40010000
 8001724:	48000400 	.word	0x48000400
 8001728:	48000800 	.word	0x48000800
 800172c:	48000c00 	.word	0x48000c00
 8001730:	48001000 	.word	0x48001000
 8001734:	48001400 	.word	0x48001400
 8001738:	48001800 	.word	0x48001800
 800173c:	40010400 	.word	0x40010400

08001740 <HAL_GPIO_WritePin>:
  *            @arg GPIO_PIN_RESET: to clear the port pin
  *            @arg GPIO_PIN_SET: to set the port pin
  * @retval None
  */
void HAL_GPIO_WritePin(GPIO_TypeDef* GPIOx, uint16_t GPIO_Pin, GPIO_PinState PinState)
{
 8001740:	b480      	push	{r7}
 8001742:	b083      	sub	sp, #12
 8001744:	af00      	add	r7, sp, #0
 8001746:	6078      	str	r0, [r7, #4]
 8001748:	460b      	mov	r3, r1
 800174a:	807b      	strh	r3, [r7, #2]
 800174c:	4613      	mov	r3, r2
 800174e:	707b      	strb	r3, [r7, #1]
  /* Check the parameters */
  assert_param(IS_GPIO_PIN(GPIO_Pin));
  assert_param(IS_GPIO_PIN_ACTION(PinState));

  if(PinState != GPIO_PIN_RESET)
 8001750:	787b      	ldrb	r3, [r7, #1]
 8001752:	2b00      	cmp	r3, #0
 8001754:	d003      	beq.n	800175e <HAL_GPIO_WritePin+0x1e>
  {
    GPIOx->BSRR = (uint32_t)GPIO_Pin;
 8001756:	887a      	ldrh	r2, [r7, #2]
 8001758:	687b      	ldr	r3, [r7, #4]
 800175a:	619a      	str	r2, [r3, #24]
  }
  else
  {
    GPIOx->BRR = (uint32_t)GPIO_Pin;
  }
}
 800175c:	e002      	b.n	8001764 <HAL_GPIO_WritePin+0x24>
    GPIOx->BRR = (uint32_t)GPIO_Pin;
 800175e:	887a      	ldrh	r2, [r7, #2]
 8001760:	687b      	ldr	r3, [r7, #4]
 8001762:	629a      	str	r2, [r3, #40]	; 0x28
}
 8001764:	bf00      	nop
 8001766:	370c      	adds	r7, #12
 8001768:	46bd      	mov	sp, r7
 800176a:	f85d 7b04 	ldr.w	r7, [sp], #4
 800176e:	4770      	bx	lr

08001770 <HAL_GPIO_EXTI_IRQHandler>:
  * @brief  Handle EXTI interrupt request.
  * @param  GPIO_Pin Specifies the port pin connected to corresponding EXTI line.
  * @retval None
  */
void HAL_GPIO_EXTI_IRQHandler(uint16_t GPIO_Pin)
{
 8001770:	b580      	push	{r7, lr}
 8001772:	b082      	sub	sp, #8
 8001774:	af00      	add	r7, sp, #0
 8001776:	4603      	mov	r3, r0
 8001778:	80fb      	strh	r3, [r7, #6]
  /* EXTI line interrupt detected */
  if(__HAL_GPIO_EXTI_GET_IT(GPIO_Pin) != 0x00u)
 800177a:	4b08      	ldr	r3, [pc, #32]	; (800179c <HAL_GPIO_EXTI_IRQHandler+0x2c>)
 800177c:	695a      	ldr	r2, [r3, #20]
 800177e:	88fb      	ldrh	r3, [r7, #6]
 8001780:	4013      	ands	r3, r2
 8001782:	2b00      	cmp	r3, #0
 8001784:	d006      	beq.n	8001794 <HAL_GPIO_EXTI_IRQHandler+0x24>
  {
    __HAL_GPIO_EXTI_CLEAR_IT(GPIO_Pin);
 8001786:	4a05      	ldr	r2, [pc, #20]	; (800179c <HAL_GPIO_EXTI_IRQHandler+0x2c>)
 8001788:	88fb      	ldrh	r3, [r7, #6]
 800178a:	6153      	str	r3, [r2, #20]
    HAL_GPIO_EXTI_Callback(GPIO_Pin);
 800178c:	88fb      	ldrh	r3, [r7, #6]
 800178e:	4618      	mov	r0, r3
 8001790:	f000 f806 	bl	80017a0 <HAL_GPIO_EXTI_Callback>
  }
}
 8001794:	bf00      	nop
 8001796:	3708      	adds	r7, #8
 8001798:	46bd      	mov	sp, r7
 800179a:	bd80      	pop	{r7, pc}
 800179c:	40010400 	.word	0x40010400

080017a0 <HAL_GPIO_EXTI_Callback>:
  * @brief  EXTI line detection callback.
  * @param  GPIO_Pin Specifies the port pin connected to corresponding EXTI line.
  * @retval None
  */
__weak void HAL_GPIO_EXTI_Callback(uint16_t GPIO_Pin)
{
 80017a0:	b480      	push	{r7}
 80017a2:	b083      	sub	sp, #12
 80017a4:	af00      	add	r7, sp, #0
 80017a6:	4603      	mov	r3, r0
 80017a8:	80fb      	strh	r3, [r7, #6]
  UNUSED(GPIO_Pin);

  /* NOTE: This function should not be modified, when the callback is needed,
           the HAL_GPIO_EXTI_Callback could be implemented in the user file
   */
}
 80017aa:	bf00      	nop
 80017ac:	370c      	adds	r7, #12
 80017ae:	46bd      	mov	sp, r7
 80017b0:	f85d 7b04 	ldr.w	r7, [sp], #4
 80017b4:	4770      	bx	lr
	...

080017b8 <HAL_PWREx_GetVoltageRange>:
  * @brief Return Voltage Scaling Range.
  * @retval VOS bit field (PWR_REGULATOR_VOLTAGE_SCALE1 or PWR_REGULATOR_VOLTAGE_SCALE2
  *         or PWR_REGULATOR_VOLTAGE_SCALE1_BOOST when applicable)
  */
uint32_t HAL_PWREx_GetVoltageRange(void)
{
 80017b8:	b480      	push	{r7}
 80017ba:	af00      	add	r7, sp, #0
    else
    {
      return PWR_REGULATOR_VOLTAGE_SCALE1_BOOST;
    }
#else
  return  (PWR->CR1 & PWR_CR1_VOS);
 80017bc:	4b04      	ldr	r3, [pc, #16]	; (80017d0 <HAL_PWREx_GetVoltageRange+0x18>)
 80017be:	681b      	ldr	r3, [r3, #0]
 80017c0:	f403 63c0 	and.w	r3, r3, #1536	; 0x600
#endif
}
 80017c4:	4618      	mov	r0, r3
 80017c6:	46bd      	mov	sp, r7
 80017c8:	f85d 7b04 	ldr.w	r7, [sp], #4
 80017cc:	4770      	bx	lr
 80017ce:	bf00      	nop
 80017d0:	40007000 	.word	0x40007000

080017d4 <HAL_PWREx_ControlVoltageScaling>:
  *        cleared before returning the status. If the flag is not cleared within
  *        50 microseconds, HAL_TIMEOUT status is reported.
  * @retval HAL Status
  */
HAL_StatusTypeDef HAL_PWREx_ControlVoltageScaling(uint32_t VoltageScaling)
{
 80017d4:	b480      	push	{r7}
 80017d6:	b085      	sub	sp, #20
 80017d8:	af00      	add	r7, sp, #0
 80017da:	6078      	str	r0, [r7, #4]
  }

#else

  /* If Set Range 1 */
  if (VoltageScaling == PWR_REGULATOR_VOLTAGE_SCALE1)
 80017dc:	687b      	ldr	r3, [r7, #4]
 80017de:	f5b3 7f00 	cmp.w	r3, #512	; 0x200
 80017e2:	d130      	bne.n	8001846 <HAL_PWREx_ControlVoltageScaling+0x72>
  {
    if (READ_BIT(PWR->CR1, PWR_CR1_VOS) != PWR_REGULATOR_VOLTAGE_SCALE1)
 80017e4:	4b23      	ldr	r3, [pc, #140]	; (8001874 <HAL_PWREx_ControlVoltageScaling+0xa0>)
 80017e6:	681b      	ldr	r3, [r3, #0]
 80017e8:	f403 63c0 	and.w	r3, r3, #1536	; 0x600
 80017ec:	f5b3 7f00 	cmp.w	r3, #512	; 0x200
 80017f0:	d038      	beq.n	8001864 <HAL_PWREx_ControlVoltageScaling+0x90>
    {
      /* Set Range 1 */
      MODIFY_REG(PWR->CR1, PWR_CR1_VOS, PWR_REGULATOR_VOLTAGE_SCALE1);
 80017f2:	4b20      	ldr	r3, [pc, #128]	; (8001874 <HAL_PWREx_ControlVoltageScaling+0xa0>)
 80017f4:	681b      	ldr	r3, [r3, #0]
 80017f6:	f423 63c0 	bic.w	r3, r3, #1536	; 0x600
 80017fa:	4a1e      	ldr	r2, [pc, #120]	; (8001874 <HAL_PWREx_ControlVoltageScaling+0xa0>)
 80017fc:	f443 7300 	orr.w	r3, r3, #512	; 0x200
 8001800:	6013      	str	r3, [r2, #0]

      /* Wait until VOSF is cleared */
      wait_loop_index = ((PWR_FLAG_SETTING_DELAY_US * SystemCoreClock) / 1000000U) + 1U;
 8001802:	4b1d      	ldr	r3, [pc, #116]	; (8001878 <HAL_PWREx_ControlVoltageScaling+0xa4>)
 8001804:	681b      	ldr	r3, [r3, #0]
 8001806:	2232      	movs	r2, #50	; 0x32
 8001808:	fb02 f303 	mul.w	r3, r2, r3
 800180c:	4a1b      	ldr	r2, [pc, #108]	; (800187c <HAL_PWREx_ControlVoltageScaling+0xa8>)
 800180e:	fba2 2303 	umull	r2, r3, r2, r3
 8001812:	0c9b      	lsrs	r3, r3, #18
 8001814:	3301      	adds	r3, #1
 8001816:	60fb      	str	r3, [r7, #12]
      while ((HAL_IS_BIT_SET(PWR->SR2, PWR_SR2_VOSF)) && (wait_loop_index != 0U))
 8001818:	e002      	b.n	8001820 <HAL_PWREx_ControlVoltageScaling+0x4c>
      {
        wait_loop_index--;
 800181a:	68fb      	ldr	r3, [r7, #12]
 800181c:	3b01      	subs	r3, #1
 800181e:	60fb      	str	r3, [r7, #12]
      while ((HAL_IS_BIT_SET(PWR->SR2, PWR_SR2_VOSF)) && (wait_loop_index != 0U))
 8001820:	4b14      	ldr	r3, [pc, #80]	; (8001874 <HAL_PWREx_ControlVoltageScaling+0xa0>)
 8001822:	695b      	ldr	r3, [r3, #20]
 8001824:	f403 6380 	and.w	r3, r3, #1024	; 0x400
 8001828:	f5b3 6f80 	cmp.w	r3, #1024	; 0x400
 800182c:	d102      	bne.n	8001834 <HAL_PWREx_ControlVoltageScaling+0x60>
 800182e:	68fb      	ldr	r3, [r7, #12]
 8001830:	2b00      	cmp	r3, #0
 8001832:	d1f2      	bne.n	800181a <HAL_PWREx_ControlVoltageScaling+0x46>
      }
      if (HAL_IS_BIT_SET(PWR->SR2, PWR_SR2_VOSF))
 8001834:	4b0f      	ldr	r3, [pc, #60]	; (8001874 <HAL_PWREx_ControlVoltageScaling+0xa0>)
 8001836:	695b      	ldr	r3, [r3, #20]
 8001838:	f403 6380 	and.w	r3, r3, #1024	; 0x400
 800183c:	f5b3 6f80 	cmp.w	r3, #1024	; 0x400
 8001840:	d110      	bne.n	8001864 <HAL_PWREx_ControlVoltageScaling+0x90>
      {
        return HAL_TIMEOUT;
 8001842:	2303      	movs	r3, #3
 8001844:	e00f      	b.n	8001866 <HAL_PWREx_ControlVoltageScaling+0x92>
      }
    }
  }
  else
  {
    if (READ_BIT(PWR->CR1, PWR_CR1_VOS) != PWR_REGULATOR_VOLTAGE_SCALE2)
 8001846:	4b0b      	ldr	r3, [pc, #44]	; (8001874 <HAL_PWREx_ControlVoltageScaling+0xa0>)
 8001848:	681b      	ldr	r3, [r3, #0]
 800184a:	f403 63c0 	and.w	r3, r3, #1536	; 0x600
 800184e:	f5b3 6f80 	cmp.w	r3, #1024	; 0x400
 8001852:	d007      	beq.n	8001864 <HAL_PWREx_ControlVoltageScaling+0x90>
    {
      /* Set Range 2 */
      MODIFY_REG(PWR->CR1, PWR_CR1_VOS, PWR_REGULATOR_VOLTAGE_SCALE2);
 8001854:	4b07      	ldr	r3, [pc, #28]	; (8001874 <HAL_PWREx_ControlVoltageScaling+0xa0>)
 8001856:	681b      	ldr	r3, [r3, #0]
 8001858:	f423 63c0 	bic.w	r3, r3, #1536	; 0x600
 800185c:	4a05      	ldr	r2, [pc, #20]	; (8001874 <HAL_PWREx_ControlVoltageScaling+0xa0>)
 800185e:	f443 6380 	orr.w	r3, r3, #1024	; 0x400
 8001862:	6013      	str	r3, [r2, #0]
      /* No need to wait for VOSF to be cleared for this transition */
    }
  }
#endif

  return HAL_OK;
 8001864:	2300      	movs	r3, #0
}
 8001866:	4618      	mov	r0, r3
 8001868:	3714      	adds	r7, #20
 800186a:	46bd      	mov	sp, r7
 800186c:	f85d 7b04 	ldr.w	r7, [sp], #4
 8001870:	4770      	bx	lr
 8001872:	bf00      	nop
 8001874:	40007000 	.word	0x40007000
 8001878:	20000000 	.word	0x20000000
 800187c:	431bde83 	.word	0x431bde83

08001880 <HAL_RCC_OscConfig>:
  *         supported by this macro. User should request a transition to HSE Off
  *         first and then HSE On or HSE Bypass.
  * @retval HAL status
  */
HAL_StatusTypeDef HAL_RCC_OscConfig(RCC_OscInitTypeDef  *RCC_OscInitStruct)
{
 8001880:	b580      	push	{r7, lr}
 8001882:	b088      	sub	sp, #32
 8001884:	af00      	add	r7, sp, #0
 8001886:	6078      	str	r0, [r7, #4]
  uint32_t tickstart;
  HAL_StatusTypeDef status;
  uint32_t sysclk_source, pll_config;

  /* Check Null pointer */
  if(RCC_OscInitStruct == NULL)
 8001888:	687b      	ldr	r3, [r7, #4]
 800188a:	2b00      	cmp	r3, #0
 800188c:	d101      	bne.n	8001892 <HAL_RCC_OscConfig+0x12>
  {
    return HAL_ERROR;
 800188e:	2301      	movs	r3, #1
 8001890:	e3d4      	b.n	800203c <HAL_RCC_OscConfig+0x7bc>
  }

  /* Check the parameters */
  assert_param(IS_RCC_OSCILLATORTYPE(RCC_OscInitStruct->OscillatorType));

  sysclk_source = __HAL_RCC_GET_SYSCLK_SOURCE();
 8001892:	4ba1      	ldr	r3, [pc, #644]	; (8001b18 <HAL_RCC_OscConfig+0x298>)
 8001894:	689b      	ldr	r3, [r3, #8]
 8001896:	f003 030c 	and.w	r3, r3, #12
 800189a:	61bb      	str	r3, [r7, #24]
  pll_config = __HAL_RCC_GET_PLL_OSCSOURCE();
 800189c:	4b9e      	ldr	r3, [pc, #632]	; (8001b18 <HAL_RCC_OscConfig+0x298>)
 800189e:	68db      	ldr	r3, [r3, #12]
 80018a0:	f003 0303 	and.w	r3, r3, #3
 80018a4:	617b      	str	r3, [r7, #20]

  /*----------------------------- MSI Configuration --------------------------*/
  if(((RCC_OscInitStruct->OscillatorType) & RCC_OSCILLATORTYPE_MSI) == RCC_OSCILLATORTYPE_MSI)
 80018a6:	687b      	ldr	r3, [r7, #4]
 80018a8:	681b      	ldr	r3, [r3, #0]
 80018aa:	f003 0310 	and.w	r3, r3, #16
 80018ae:	2b00      	cmp	r3, #0
 80018b0:	f000 80e4 	beq.w	8001a7c <HAL_RCC_OscConfig+0x1fc>
    assert_param(IS_RCC_MSI(RCC_OscInitStruct->MSIState));
    assert_param(IS_RCC_MSICALIBRATION_VALUE(RCC_OscInitStruct->MSICalibrationValue));
    assert_param(IS_RCC_MSI_CLOCK_RANGE(RCC_OscInitStruct->MSIClockRange));

    /* Check if MSI is used as system clock or as PLL source when PLL is selected as system clock */
    if((sysclk_source == RCC_CFGR_SWS_MSI) ||
 80018b4:	69bb      	ldr	r3, [r7, #24]
 80018b6:	2b00      	cmp	r3, #0
 80018b8:	d007      	beq.n	80018ca <HAL_RCC_OscConfig+0x4a>
 80018ba:	69bb      	ldr	r3, [r7, #24]
 80018bc:	2b0c      	cmp	r3, #12
 80018be:	f040 808b 	bne.w	80019d8 <HAL_RCC_OscConfig+0x158>
       ((sysclk_source == RCC_CFGR_SWS_PLL) && (pll_config == RCC_PLLSOURCE_MSI)))
 80018c2:	697b      	ldr	r3, [r7, #20]
 80018c4:	2b01      	cmp	r3, #1
 80018c6:	f040 8087 	bne.w	80019d8 <HAL_RCC_OscConfig+0x158>
    {
      if((READ_BIT(RCC->CR, RCC_CR_MSIRDY) != 0U) && (RCC_OscInitStruct->MSIState == RCC_MSI_OFF))
 80018ca:	4b93      	ldr	r3, [pc, #588]	; (8001b18 <HAL_RCC_OscConfig+0x298>)
 80018cc:	681b      	ldr	r3, [r3, #0]
 80018ce:	f003 0302 	and.w	r3, r3, #2
 80018d2:	2b00      	cmp	r3, #0
 80018d4:	d005      	beq.n	80018e2 <HAL_RCC_OscConfig+0x62>
 80018d6:	687b      	ldr	r3, [r7, #4]
 80018d8:	699b      	ldr	r3, [r3, #24]
 80018da:	2b00      	cmp	r3, #0
 80018dc:	d101      	bne.n	80018e2 <HAL_RCC_OscConfig+0x62>
      {
        return HAL_ERROR;
 80018de:	2301      	movs	r3, #1
 80018e0:	e3ac      	b.n	800203c <HAL_RCC_OscConfig+0x7bc>
      else
      {
        /* To correctly read data from FLASH memory, the number of wait states (LATENCY)
           must be correctly programmed according to the frequency of the CPU clock
           (HCLK) and the supply voltage of the device. */
        if(RCC_OscInitStruct->MSIClockRange > __HAL_RCC_GET_MSI_RANGE())
 80018e2:	687b      	ldr	r3, [r7, #4]
 80018e4:	6a1a      	ldr	r2, [r3, #32]
 80018e6:	4b8c      	ldr	r3, [pc, #560]	; (8001b18 <HAL_RCC_OscConfig+0x298>)
 80018e8:	681b      	ldr	r3, [r3, #0]
 80018ea:	f003 0308 	and.w	r3, r3, #8
 80018ee:	2b00      	cmp	r3, #0
 80018f0:	d004      	beq.n	80018fc <HAL_RCC_OscConfig+0x7c>
 80018f2:	4b89      	ldr	r3, [pc, #548]	; (8001b18 <HAL_RCC_OscConfig+0x298>)
 80018f4:	681b      	ldr	r3, [r3, #0]
 80018f6:	f003 03f0 	and.w	r3, r3, #240	; 0xf0
 80018fa:	e005      	b.n	8001908 <HAL_RCC_OscConfig+0x88>
 80018fc:	4b86      	ldr	r3, [pc, #536]	; (8001b18 <HAL_RCC_OscConfig+0x298>)
 80018fe:	f8d3 3094 	ldr.w	r3, [r3, #148]	; 0x94
 8001902:	091b      	lsrs	r3, r3, #4
 8001904:	f003 03f0 	and.w	r3, r3, #240	; 0xf0
 8001908:	4293      	cmp	r3, r2
 800190a:	d223      	bcs.n	8001954 <HAL_RCC_OscConfig+0xd4>
        {
          /* First increase number of wait states update if necessary */
          if(RCC_SetFlashLatencyFromMSIRange(RCC_OscInitStruct->MSIClockRange) != HAL_OK)
 800190c:	687b      	ldr	r3, [r7, #4]
 800190e:	6a1b      	ldr	r3, [r3, #32]
 8001910:	4618      	mov	r0, r3
 8001912:	f000 fd41 	bl	8002398 <RCC_SetFlashLatencyFromMSIRange>
 8001916:	4603      	mov	r3, r0
 8001918:	2b00      	cmp	r3, #0
 800191a:	d001      	beq.n	8001920 <HAL_RCC_OscConfig+0xa0>
          {
            return HAL_ERROR;
 800191c:	2301      	movs	r3, #1
 800191e:	e38d      	b.n	800203c <HAL_RCC_OscConfig+0x7bc>
          }

          /* Selects the Multiple Speed oscillator (MSI) clock range .*/
          __HAL_RCC_MSI_RANGE_CONFIG(RCC_OscInitStruct->MSIClockRange);
 8001920:	4b7d      	ldr	r3, [pc, #500]	; (8001b18 <HAL_RCC_OscConfig+0x298>)
 8001922:	681b      	ldr	r3, [r3, #0]
 8001924:	4a7c      	ldr	r2, [pc, #496]	; (8001b18 <HAL_RCC_OscConfig+0x298>)
 8001926:	f043 0308 	orr.w	r3, r3, #8
 800192a:	6013      	str	r3, [r2, #0]
 800192c:	4b7a      	ldr	r3, [pc, #488]	; (8001b18 <HAL_RCC_OscConfig+0x298>)
 800192e:	681b      	ldr	r3, [r3, #0]
 8001930:	f023 02f0 	bic.w	r2, r3, #240	; 0xf0
 8001934:	687b      	ldr	r3, [r7, #4]
 8001936:	6a1b      	ldr	r3, [r3, #32]
 8001938:	4977      	ldr	r1, [pc, #476]	; (8001b18 <HAL_RCC_OscConfig+0x298>)
 800193a:	4313      	orrs	r3, r2
 800193c:	600b      	str	r3, [r1, #0]
          /* Adjusts the Multiple Speed oscillator (MSI) calibration value.*/
          __HAL_RCC_MSI_CALIBRATIONVALUE_ADJUST(RCC_OscInitStruct->MSICalibrationValue);
 800193e:	4b76      	ldr	r3, [pc, #472]	; (8001b18 <HAL_RCC_OscConfig+0x298>)
 8001940:	685b      	ldr	r3, [r3, #4]
 8001942:	f423 427f 	bic.w	r2, r3, #65280	; 0xff00
 8001946:	687b      	ldr	r3, [r7, #4]
 8001948:	69db      	ldr	r3, [r3, #28]
 800194a:	021b      	lsls	r3, r3, #8
 800194c:	4972      	ldr	r1, [pc, #456]	; (8001b18 <HAL_RCC_OscConfig+0x298>)
 800194e:	4313      	orrs	r3, r2
 8001950:	604b      	str	r3, [r1, #4]
 8001952:	e025      	b.n	80019a0 <HAL_RCC_OscConfig+0x120>
        }
        else
        {
          /* Else, keep current flash latency while decreasing applies */
          /* Selects the Multiple Speed oscillator (MSI) clock range .*/
          __HAL_RCC_MSI_RANGE_CONFIG(RCC_OscInitStruct->MSIClockRange);
 8001954:	4b70      	ldr	r3, [pc, #448]	; (8001b18 <HAL_RCC_OscConfig+0x298>)
 8001956:	681b      	ldr	r3, [r3, #0]
 8001958:	4a6f      	ldr	r2, [pc, #444]	; (8001b18 <HAL_RCC_OscConfig+0x298>)
 800195a:	f043 0308 	orr.w	r3, r3, #8
 800195e:	6013      	str	r3, [r2, #0]
 8001960:	4b6d      	ldr	r3, [pc, #436]	; (8001b18 <HAL_RCC_OscConfig+0x298>)
 8001962:	681b      	ldr	r3, [r3, #0]
 8001964:	f023 02f0 	bic.w	r2, r3, #240	; 0xf0
 8001968:	687b      	ldr	r3, [r7, #4]
 800196a:	6a1b      	ldr	r3, [r3, #32]
 800196c:	496a      	ldr	r1, [pc, #424]	; (8001b18 <HAL_RCC_OscConfig+0x298>)
 800196e:	4313      	orrs	r3, r2
 8001970:	600b      	str	r3, [r1, #0]
          /* Adjusts the Multiple Speed oscillator (MSI) calibration value.*/
          __HAL_RCC_MSI_CALIBRATIONVALUE_ADJUST(RCC_OscInitStruct->MSICalibrationValue);
 8001972:	4b69      	ldr	r3, [pc, #420]	; (8001b18 <HAL_RCC_OscConfig+0x298>)
 8001974:	685b      	ldr	r3, [r3, #4]
 8001976:	f423 427f 	bic.w	r2, r3, #65280	; 0xff00
 800197a:	687b      	ldr	r3, [r7, #4]
 800197c:	69db      	ldr	r3, [r3, #28]
 800197e:	021b      	lsls	r3, r3, #8
 8001980:	4965      	ldr	r1, [pc, #404]	; (8001b18 <HAL_RCC_OscConfig+0x298>)
 8001982:	4313      	orrs	r3, r2
 8001984:	604b      	str	r3, [r1, #4]

          /* Decrease number of wait states update if necessary */
          /* Only possible when MSI is the System clock source  */
          if(sysclk_source == RCC_CFGR_SWS_MSI)
 8001986:	69bb      	ldr	r3, [r7, #24]
 8001988:	2b00      	cmp	r3, #0
 800198a:	d109      	bne.n	80019a0 <HAL_RCC_OscConfig+0x120>
          {
            if(RCC_SetFlashLatencyFromMSIRange(RCC_OscInitStruct->MSIClockRange) != HAL_OK)
 800198c:	687b      	ldr	r3, [r7, #4]
 800198e:	6a1b      	ldr	r3, [r3, #32]
 8001990:	4618      	mov	r0, r3
 8001992:	f000 fd01 	bl	8002398 <RCC_SetFlashLatencyFromMSIRange>
 8001996:	4603      	mov	r3, r0
 8001998:	2b00      	cmp	r3, #0
 800199a:	d001      	beq.n	80019a0 <HAL_RCC_OscConfig+0x120>
            {
              return HAL_ERROR;
 800199c:	2301      	movs	r3, #1
 800199e:	e34d      	b.n	800203c <HAL_RCC_OscConfig+0x7bc>
            }
          }
        }

        /* Update the SystemCoreClock global variable */
        SystemCoreClock = HAL_RCC_GetSysClockFreq() >> (AHBPrescTable[READ_BIT(RCC->CFGR, RCC_CFGR_HPRE) >> RCC_CFGR_HPRE_Pos] & 0x1FU);
 80019a0:	f000 fc36 	bl	8002210 <HAL_RCC_GetSysClockFreq>
 80019a4:	4602      	mov	r2, r0
 80019a6:	4b5c      	ldr	r3, [pc, #368]	; (8001b18 <HAL_RCC_OscConfig+0x298>)
 80019a8:	689b      	ldr	r3, [r3, #8]
 80019aa:	091b      	lsrs	r3, r3, #4
 80019ac:	f003 030f 	and.w	r3, r3, #15
 80019b0:	495a      	ldr	r1, [pc, #360]	; (8001b1c <HAL_RCC_OscConfig+0x29c>)
 80019b2:	5ccb      	ldrb	r3, [r1, r3]
 80019b4:	f003 031f 	and.w	r3, r3, #31
 80019b8:	fa22 f303 	lsr.w	r3, r2, r3
 80019bc:	4a58      	ldr	r2, [pc, #352]	; (8001b20 <HAL_RCC_OscConfig+0x2a0>)
 80019be:	6013      	str	r3, [r2, #0]

        /* Configure the source of time base considering new system clocks settings*/
        status = HAL_InitTick(uwTickPrio);
 80019c0:	4b58      	ldr	r3, [pc, #352]	; (8001b24 <HAL_RCC_OscConfig+0x2a4>)
 80019c2:	681b      	ldr	r3, [r3, #0]
 80019c4:	4618      	mov	r0, r3
 80019c6:	f7ff f86f 	bl	8000aa8 <HAL_InitTick>
 80019ca:	4603      	mov	r3, r0
 80019cc:	73fb      	strb	r3, [r7, #15]
        if(status != HAL_OK)
 80019ce:	7bfb      	ldrb	r3, [r7, #15]
 80019d0:	2b00      	cmp	r3, #0
 80019d2:	d052      	beq.n	8001a7a <HAL_RCC_OscConfig+0x1fa>
        {
          return status;
 80019d4:	7bfb      	ldrb	r3, [r7, #15]
 80019d6:	e331      	b.n	800203c <HAL_RCC_OscConfig+0x7bc>
      }
    }
    else
    {
      /* Check the MSI State */
      if(RCC_OscInitStruct->MSIState != RCC_MSI_OFF)
 80019d8:	687b      	ldr	r3, [r7, #4]
 80019da:	699b      	ldr	r3, [r3, #24]
 80019dc:	2b00      	cmp	r3, #0
 80019de:	d032      	beq.n	8001a46 <HAL_RCC_OscConfig+0x1c6>
      {
        /* Enable the Internal High Speed oscillator (MSI). */
        __HAL_RCC_MSI_ENABLE();
 80019e0:	4b4d      	ldr	r3, [pc, #308]	; (8001b18 <HAL_RCC_OscConfig+0x298>)
 80019e2:	681b      	ldr	r3, [r3, #0]
 80019e4:	4a4c      	ldr	r2, [pc, #304]	; (8001b18 <HAL_RCC_OscConfig+0x298>)
 80019e6:	f043 0301 	orr.w	r3, r3, #1
 80019ea:	6013      	str	r3, [r2, #0]

        /* Get timeout */
        tickstart = HAL_GetTick();
 80019ec:	f7ff f8ac 	bl	8000b48 <HAL_GetTick>
 80019f0:	6138      	str	r0, [r7, #16]

        /* Wait till MSI is ready */
        while(READ_BIT(RCC->CR, RCC_CR_MSIRDY) == 0U)
 80019f2:	e008      	b.n	8001a06 <HAL_RCC_OscConfig+0x186>
        {
          if((HAL_GetTick() - tickstart) > MSI_TIMEOUT_VALUE)
 80019f4:	f7ff f8a8 	bl	8000b48 <HAL_GetTick>
 80019f8:	4602      	mov	r2, r0
 80019fa:	693b      	ldr	r3, [r7, #16]
 80019fc:	1ad3      	subs	r3, r2, r3
 80019fe:	2b02      	cmp	r3, #2
 8001a00:	d901      	bls.n	8001a06 <HAL_RCC_OscConfig+0x186>
          {
            return HAL_TIMEOUT;
 8001a02:	2303      	movs	r3, #3
 8001a04:	e31a      	b.n	800203c <HAL_RCC_OscConfig+0x7bc>
        while(READ_BIT(RCC->CR, RCC_CR_MSIRDY) == 0U)
 8001a06:	4b44      	ldr	r3, [pc, #272]	; (8001b18 <HAL_RCC_OscConfig+0x298>)
 8001a08:	681b      	ldr	r3, [r3, #0]
 8001a0a:	f003 0302 	and.w	r3, r3, #2
 8001a0e:	2b00      	cmp	r3, #0
 8001a10:	d0f0      	beq.n	80019f4 <HAL_RCC_OscConfig+0x174>
          }
        }
         /* Selects the Multiple Speed oscillator (MSI) clock range .*/
        __HAL_RCC_MSI_RANGE_CONFIG(RCC_OscInitStruct->MSIClockRange);
 8001a12:	4b41      	ldr	r3, [pc, #260]	; (8001b18 <HAL_RCC_OscConfig+0x298>)
 8001a14:	681b      	ldr	r3, [r3, #0]
 8001a16:	4a40      	ldr	r2, [pc, #256]	; (8001b18 <HAL_RCC_OscConfig+0x298>)
 8001a18:	f043 0308 	orr.w	r3, r3, #8
 8001a1c:	6013      	str	r3, [r2, #0]
 8001a1e:	4b3e      	ldr	r3, [pc, #248]	; (8001b18 <HAL_RCC_OscConfig+0x298>)
 8001a20:	681b      	ldr	r3, [r3, #0]
 8001a22:	f023 02f0 	bic.w	r2, r3, #240	; 0xf0
 8001a26:	687b      	ldr	r3, [r7, #4]
 8001a28:	6a1b      	ldr	r3, [r3, #32]
 8001a2a:	493b      	ldr	r1, [pc, #236]	; (8001b18 <HAL_RCC_OscConfig+0x298>)
 8001a2c:	4313      	orrs	r3, r2
 8001a2e:	600b      	str	r3, [r1, #0]
         /* Adjusts the Multiple Speed oscillator (MSI) calibration value.*/
        __HAL_RCC_MSI_CALIBRATIONVALUE_ADJUST(RCC_OscInitStruct->MSICalibrationValue);
 8001a30:	4b39      	ldr	r3, [pc, #228]	; (8001b18 <HAL_RCC_OscConfig+0x298>)
 8001a32:	685b      	ldr	r3, [r3, #4]
 8001a34:	f423 427f 	bic.w	r2, r3, #65280	; 0xff00
 8001a38:	687b      	ldr	r3, [r7, #4]
 8001a3a:	69db      	ldr	r3, [r3, #28]
 8001a3c:	021b      	lsls	r3, r3, #8
 8001a3e:	4936      	ldr	r1, [pc, #216]	; (8001b18 <HAL_RCC_OscConfig+0x298>)
 8001a40:	4313      	orrs	r3, r2
 8001a42:	604b      	str	r3, [r1, #4]
 8001a44:	e01a      	b.n	8001a7c <HAL_RCC_OscConfig+0x1fc>

      }
      else
      {
        /* Disable the Internal High Speed oscillator (MSI). */
        __HAL_RCC_MSI_DISABLE();
 8001a46:	4b34      	ldr	r3, [pc, #208]	; (8001b18 <HAL_RCC_OscConfig+0x298>)
 8001a48:	681b      	ldr	r3, [r3, #0]
 8001a4a:	4a33      	ldr	r2, [pc, #204]	; (8001b18 <HAL_RCC_OscConfig+0x298>)
 8001a4c:	f023 0301 	bic.w	r3, r3, #1
 8001a50:	6013      	str	r3, [r2, #0]

        /* Get timeout */
        tickstart = HAL_GetTick();
 8001a52:	f7ff f879 	bl	8000b48 <HAL_GetTick>
 8001a56:	6138      	str	r0, [r7, #16]

        /* Wait till MSI is ready */
        while(READ_BIT(RCC->CR, RCC_CR_MSIRDY) != 0U)
 8001a58:	e008      	b.n	8001a6c <HAL_RCC_OscConfig+0x1ec>
        {
          if((HAL_GetTick() - tickstart) > MSI_TIMEOUT_VALUE)
 8001a5a:	f7ff f875 	bl	8000b48 <HAL_GetTick>
 8001a5e:	4602      	mov	r2, r0
 8001a60:	693b      	ldr	r3, [r7, #16]
 8001a62:	1ad3      	subs	r3, r2, r3
 8001a64:	2b02      	cmp	r3, #2
 8001a66:	d901      	bls.n	8001a6c <HAL_RCC_OscConfig+0x1ec>
          {
            return HAL_TIMEOUT;
 8001a68:	2303      	movs	r3, #3
 8001a6a:	e2e7      	b.n	800203c <HAL_RCC_OscConfig+0x7bc>
        while(READ_BIT(RCC->CR, RCC_CR_MSIRDY) != 0U)
 8001a6c:	4b2a      	ldr	r3, [pc, #168]	; (8001b18 <HAL_RCC_OscConfig+0x298>)
 8001a6e:	681b      	ldr	r3, [r3, #0]
 8001a70:	f003 0302 	and.w	r3, r3, #2
 8001a74:	2b00      	cmp	r3, #0
 8001a76:	d1f0      	bne.n	8001a5a <HAL_RCC_OscConfig+0x1da>
 8001a78:	e000      	b.n	8001a7c <HAL_RCC_OscConfig+0x1fc>
      if((READ_BIT(RCC->CR, RCC_CR_MSIRDY) != 0U) && (RCC_OscInitStruct->MSIState == RCC_MSI_OFF))
 8001a7a:	bf00      	nop
        }
      }
    }
  }
  /*------------------------------- HSE Configuration ------------------------*/
  if(((RCC_OscInitStruct->OscillatorType) & RCC_OSCILLATORTYPE_HSE) == RCC_OSCILLATORTYPE_HSE)
 8001a7c:	687b      	ldr	r3, [r7, #4]
 8001a7e:	681b      	ldr	r3, [r3, #0]
 8001a80:	f003 0301 	and.w	r3, r3, #1
 8001a84:	2b00      	cmp	r3, #0
 8001a86:	d074      	beq.n	8001b72 <HAL_RCC_OscConfig+0x2f2>
  {
    /* Check the parameters */
    assert_param(IS_RCC_HSE(RCC_OscInitStruct->HSEState));

    /* When the HSE is used as system clock or clock source for PLL in these cases it is not allowed to be disabled */
    if((sysclk_source == RCC_CFGR_SWS_HSE) ||
 8001a88:	69bb      	ldr	r3, [r7, #24]
 8001a8a:	2b08      	cmp	r3, #8
 8001a8c:	d005      	beq.n	8001a9a <HAL_RCC_OscConfig+0x21a>
 8001a8e:	69bb      	ldr	r3, [r7, #24]
 8001a90:	2b0c      	cmp	r3, #12
 8001a92:	d10e      	bne.n	8001ab2 <HAL_RCC_OscConfig+0x232>
       ((sysclk_source == RCC_CFGR_SWS_PLL) && (pll_config == RCC_PLLSOURCE_HSE)))
 8001a94:	697b      	ldr	r3, [r7, #20]
 8001a96:	2b03      	cmp	r3, #3
 8001a98:	d10b      	bne.n	8001ab2 <HAL_RCC_OscConfig+0x232>
    {
      if((READ_BIT(RCC->CR, RCC_CR_HSERDY) != 0U) && (RCC_OscInitStruct->HSEState == RCC_HSE_OFF))
 8001a9a:	4b1f      	ldr	r3, [pc, #124]	; (8001b18 <HAL_RCC_OscConfig+0x298>)
 8001a9c:	681b      	ldr	r3, [r3, #0]
 8001a9e:	f403 3300 	and.w	r3, r3, #131072	; 0x20000
 8001aa2:	2b00      	cmp	r3, #0
 8001aa4:	d064      	beq.n	8001b70 <HAL_RCC_OscConfig+0x2f0>
 8001aa6:	687b      	ldr	r3, [r7, #4]
 8001aa8:	685b      	ldr	r3, [r3, #4]
 8001aaa:	2b00      	cmp	r3, #0
 8001aac:	d160      	bne.n	8001b70 <HAL_RCC_OscConfig+0x2f0>
      {
        return HAL_ERROR;
 8001aae:	2301      	movs	r3, #1
 8001ab0:	e2c4      	b.n	800203c <HAL_RCC_OscConfig+0x7bc>
      }
    }
    else
    {
      /* Set the new HSE configuration ---------------------------------------*/
      __HAL_RCC_HSE_CONFIG(RCC_OscInitStruct->HSEState);
 8001ab2:	687b      	ldr	r3, [r7, #4]
 8001ab4:	685b      	ldr	r3, [r3, #4]
 8001ab6:	f5b3 3f80 	cmp.w	r3, #65536	; 0x10000
 8001aba:	d106      	bne.n	8001aca <HAL_RCC_OscConfig+0x24a>
 8001abc:	4b16      	ldr	r3, [pc, #88]	; (8001b18 <HAL_RCC_OscConfig+0x298>)
 8001abe:	681b      	ldr	r3, [r3, #0]
 8001ac0:	4a15      	ldr	r2, [pc, #84]	; (8001b18 <HAL_RCC_OscConfig+0x298>)
 8001ac2:	f443 3380 	orr.w	r3, r3, #65536	; 0x10000
 8001ac6:	6013      	str	r3, [r2, #0]
 8001ac8:	e01d      	b.n	8001b06 <HAL_RCC_OscConfig+0x286>
 8001aca:	687b      	ldr	r3, [r7, #4]
 8001acc:	685b      	ldr	r3, [r3, #4]
 8001ace:	f5b3 2fa0 	cmp.w	r3, #327680	; 0x50000
 8001ad2:	d10c      	bne.n	8001aee <HAL_RCC_OscConfig+0x26e>
 8001ad4:	4b10      	ldr	r3, [pc, #64]	; (8001b18 <HAL_RCC_OscConfig+0x298>)
 8001ad6:	681b      	ldr	r3, [r3, #0]
 8001ad8:	4a0f      	ldr	r2, [pc, #60]	; (8001b18 <HAL_RCC_OscConfig+0x298>)
 8001ada:	f443 2380 	orr.w	r3, r3, #262144	; 0x40000
 8001ade:	6013      	str	r3, [r2, #0]
 8001ae0:	4b0d      	ldr	r3, [pc, #52]	; (8001b18 <HAL_RCC_OscConfig+0x298>)
 8001ae2:	681b      	ldr	r3, [r3, #0]
 8001ae4:	4a0c      	ldr	r2, [pc, #48]	; (8001b18 <HAL_RCC_OscConfig+0x298>)
 8001ae6:	f443 3380 	orr.w	r3, r3, #65536	; 0x10000
 8001aea:	6013      	str	r3, [r2, #0]
 8001aec:	e00b      	b.n	8001b06 <HAL_RCC_OscConfig+0x286>
 8001aee:	4b0a      	ldr	r3, [pc, #40]	; (8001b18 <HAL_RCC_OscConfig+0x298>)
 8001af0:	681b      	ldr	r3, [r3, #0]
 8001af2:	4a09      	ldr	r2, [pc, #36]	; (8001b18 <HAL_RCC_OscConfig+0x298>)
 8001af4:	f423 3380 	bic.w	r3, r3, #65536	; 0x10000
 8001af8:	6013      	str	r3, [r2, #0]
 8001afa:	4b07      	ldr	r3, [pc, #28]	; (8001b18 <HAL_RCC_OscConfig+0x298>)
 8001afc:	681b      	ldr	r3, [r3, #0]
 8001afe:	4a06      	ldr	r2, [pc, #24]	; (8001b18 <HAL_RCC_OscConfig+0x298>)
 8001b00:	f423 2380 	bic.w	r3, r3, #262144	; 0x40000
 8001b04:	6013      	str	r3, [r2, #0]

      /* Check the HSE State */
      if(RCC_OscInitStruct->HSEState != RCC_HSE_OFF)
 8001b06:	687b      	ldr	r3, [r7, #4]
 8001b08:	685b      	ldr	r3, [r3, #4]
 8001b0a:	2b00      	cmp	r3, #0
 8001b0c:	d01c      	beq.n	8001b48 <HAL_RCC_OscConfig+0x2c8>
      {
        /* Get Start Tick*/
        tickstart = HAL_GetTick();
 8001b0e:	f7ff f81b 	bl	8000b48 <HAL_GetTick>
 8001b12:	6138      	str	r0, [r7, #16]

        /* Wait till HSE is ready */
        while(READ_BIT(RCC->CR, RCC_CR_HSERDY) == 0U)
 8001b14:	e011      	b.n	8001b3a <HAL_RCC_OscConfig+0x2ba>
 8001b16:	bf00      	nop
 8001b18:	40021000 	.word	0x40021000
 8001b1c:	080036c0 	.word	0x080036c0
 8001b20:	20000000 	.word	0x20000000
 8001b24:	20000004 	.word	0x20000004
        {
          if((HAL_GetTick() - tickstart) > HSE_TIMEOUT_VALUE)
 8001b28:	f7ff f80e 	bl	8000b48 <HAL_GetTick>
 8001b2c:	4602      	mov	r2, r0
 8001b2e:	693b      	ldr	r3, [r7, #16]
 8001b30:	1ad3      	subs	r3, r2, r3
 8001b32:	2b64      	cmp	r3, #100	; 0x64
 8001b34:	d901      	bls.n	8001b3a <HAL_RCC_OscConfig+0x2ba>
          {
            return HAL_TIMEOUT;
 8001b36:	2303      	movs	r3, #3
 8001b38:	e280      	b.n	800203c <HAL_RCC_OscConfig+0x7bc>
        while(READ_BIT(RCC->CR, RCC_CR_HSERDY) == 0U)
 8001b3a:	4baf      	ldr	r3, [pc, #700]	; (8001df8 <HAL_RCC_OscConfig+0x578>)
 8001b3c:	681b      	ldr	r3, [r3, #0]
 8001b3e:	f403 3300 	and.w	r3, r3, #131072	; 0x20000
 8001b42:	2b00      	cmp	r3, #0
 8001b44:	d0f0      	beq.n	8001b28 <HAL_RCC_OscConfig+0x2a8>
 8001b46:	e014      	b.n	8001b72 <HAL_RCC_OscConfig+0x2f2>
        }
      }
      else
      {
        /* Get Start Tick*/
        tickstart = HAL_GetTick();
 8001b48:	f7fe fffe 	bl	8000b48 <HAL_GetTick>
 8001b4c:	6138      	str	r0, [r7, #16]

        /* Wait till HSE is disabled */
        while(READ_BIT(RCC->CR, RCC_CR_HSERDY) != 0U)
 8001b4e:	e008      	b.n	8001b62 <HAL_RCC_OscConfig+0x2e2>
        {
          if((HAL_GetTick() - tickstart) > HSE_TIMEOUT_VALUE)
 8001b50:	f7fe fffa 	bl	8000b48 <HAL_GetTick>
 8001b54:	4602      	mov	r2, r0
 8001b56:	693b      	ldr	r3, [r7, #16]
 8001b58:	1ad3      	subs	r3, r2, r3
 8001b5a:	2b64      	cmp	r3, #100	; 0x64
 8001b5c:	d901      	bls.n	8001b62 <HAL_RCC_OscConfig+0x2e2>
          {
            return HAL_TIMEOUT;
 8001b5e:	2303      	movs	r3, #3
 8001b60:	e26c      	b.n	800203c <HAL_RCC_OscConfig+0x7bc>
        while(READ_BIT(RCC->CR, RCC_CR_HSERDY) != 0U)
 8001b62:	4ba5      	ldr	r3, [pc, #660]	; (8001df8 <HAL_RCC_OscConfig+0x578>)
 8001b64:	681b      	ldr	r3, [r3, #0]
 8001b66:	f403 3300 	and.w	r3, r3, #131072	; 0x20000
 8001b6a:	2b00      	cmp	r3, #0
 8001b6c:	d1f0      	bne.n	8001b50 <HAL_RCC_OscConfig+0x2d0>
 8001b6e:	e000      	b.n	8001b72 <HAL_RCC_OscConfig+0x2f2>
      if((READ_BIT(RCC->CR, RCC_CR_HSERDY) != 0U) && (RCC_OscInitStruct->HSEState == RCC_HSE_OFF))
 8001b70:	bf00      	nop
        }
      }
    }
  }
  /*----------------------------- HSI Configuration --------------------------*/
  if(((RCC_OscInitStruct->OscillatorType) & RCC_OSCILLATORTYPE_HSI) == RCC_OSCILLATORTYPE_HSI)
 8001b72:	687b      	ldr	r3, [r7, #4]
 8001b74:	681b      	ldr	r3, [r3, #0]
 8001b76:	f003 0302 	and.w	r3, r3, #2
 8001b7a:	2b00      	cmp	r3, #0
 8001b7c:	d060      	beq.n	8001c40 <HAL_RCC_OscConfig+0x3c0>
    /* Check the parameters */
    assert_param(IS_RCC_HSI(RCC_OscInitStruct->HSIState));
    assert_param(IS_RCC_HSI_CALIBRATION_VALUE(RCC_OscInitStruct->HSICalibrationValue));

    /* Check if HSI is used as system clock or as PLL source when PLL is selected as system clock */
    if((sysclk_source == RCC_CFGR_SWS_HSI) ||
 8001b7e:	69bb      	ldr	r3, [r7, #24]
 8001b80:	2b04      	cmp	r3, #4
 8001b82:	d005      	beq.n	8001b90 <HAL_RCC_OscConfig+0x310>
 8001b84:	69bb      	ldr	r3, [r7, #24]
 8001b86:	2b0c      	cmp	r3, #12
 8001b88:	d119      	bne.n	8001bbe <HAL_RCC_OscConfig+0x33e>
       ((sysclk_source == RCC_CFGR_SWS_PLL) && (pll_config == RCC_PLLSOURCE_HSI)))
 8001b8a:	697b      	ldr	r3, [r7, #20]
 8001b8c:	2b02      	cmp	r3, #2
 8001b8e:	d116      	bne.n	8001bbe <HAL_RCC_OscConfig+0x33e>
    {
      /* When HSI is used as system clock it will not be disabled */
      if((READ_BIT(RCC->CR, RCC_CR_HSIRDY) != 0U) && (RCC_OscInitStruct->HSIState == RCC_HSI_OFF))
 8001b90:	4b99      	ldr	r3, [pc, #612]	; (8001df8 <HAL_RCC_OscConfig+0x578>)
 8001b92:	681b      	ldr	r3, [r3, #0]
 8001b94:	f403 6380 	and.w	r3, r3, #1024	; 0x400
 8001b98:	2b00      	cmp	r3, #0
 8001b9a:	d005      	beq.n	8001ba8 <HAL_RCC_OscConfig+0x328>
 8001b9c:	687b      	ldr	r3, [r7, #4]
 8001b9e:	68db      	ldr	r3, [r3, #12]
 8001ba0:	2b00      	cmp	r3, #0
 8001ba2:	d101      	bne.n	8001ba8 <HAL_RCC_OscConfig+0x328>
      {
        return HAL_ERROR;
 8001ba4:	2301      	movs	r3, #1
 8001ba6:	e249      	b.n	800203c <HAL_RCC_OscConfig+0x7bc>
      }
      /* Otherwise, just the calibration is allowed */
      else
      {
        /* Adjusts the Internal High Speed oscillator (HSI) calibration value.*/
        __HAL_RCC_HSI_CALIBRATIONVALUE_ADJUST(RCC_OscInitStruct->HSICalibrationValue);
 8001ba8:	4b93      	ldr	r3, [pc, #588]	; (8001df8 <HAL_RCC_OscConfig+0x578>)
 8001baa:	685b      	ldr	r3, [r3, #4]
 8001bac:	f023 52f8 	bic.w	r2, r3, #520093696	; 0x1f000000
 8001bb0:	687b      	ldr	r3, [r7, #4]
 8001bb2:	691b      	ldr	r3, [r3, #16]
 8001bb4:	061b      	lsls	r3, r3, #24
 8001bb6:	4990      	ldr	r1, [pc, #576]	; (8001df8 <HAL_RCC_OscConfig+0x578>)
 8001bb8:	4313      	orrs	r3, r2
 8001bba:	604b      	str	r3, [r1, #4]
      if((READ_BIT(RCC->CR, RCC_CR_HSIRDY) != 0U) && (RCC_OscInitStruct->HSIState == RCC_HSI_OFF))
 8001bbc:	e040      	b.n	8001c40 <HAL_RCC_OscConfig+0x3c0>
      }
    }
    else
    {
      /* Check the HSI State */
      if(RCC_OscInitStruct->HSIState != RCC_HSI_OFF)
 8001bbe:	687b      	ldr	r3, [r7, #4]
 8001bc0:	68db      	ldr	r3, [r3, #12]
 8001bc2:	2b00      	cmp	r3, #0
 8001bc4:	d023      	beq.n	8001c0e <HAL_RCC_OscConfig+0x38e>
      {
        /* Enable the Internal High Speed oscillator (HSI). */
        __HAL_RCC_HSI_ENABLE();
 8001bc6:	4b8c      	ldr	r3, [pc, #560]	; (8001df8 <HAL_RCC_OscConfig+0x578>)
 8001bc8:	681b      	ldr	r3, [r3, #0]
 8001bca:	4a8b      	ldr	r2, [pc, #556]	; (8001df8 <HAL_RCC_OscConfig+0x578>)
 8001bcc:	f443 7380 	orr.w	r3, r3, #256	; 0x100
 8001bd0:	6013      	str	r3, [r2, #0]

        /* Get Start Tick*/
        tickstart = HAL_GetTick();
 8001bd2:	f7fe ffb9 	bl	8000b48 <HAL_GetTick>
 8001bd6:	6138      	str	r0, [r7, #16]

        /* Wait till HSI is ready */
        while(READ_BIT(RCC->CR, RCC_CR_HSIRDY) == 0U)
 8001bd8:	e008      	b.n	8001bec <HAL_RCC_OscConfig+0x36c>
        {
          if((HAL_GetTick() - tickstart) > HSI_TIMEOUT_VALUE)
 8001bda:	f7fe ffb5 	bl	8000b48 <HAL_GetTick>
 8001bde:	4602      	mov	r2, r0
 8001be0:	693b      	ldr	r3, [r7, #16]
 8001be2:	1ad3      	subs	r3, r2, r3
 8001be4:	2b02      	cmp	r3, #2
 8001be6:	d901      	bls.n	8001bec <HAL_RCC_OscConfig+0x36c>
          {
            return HAL_TIMEOUT;
 8001be8:	2303      	movs	r3, #3
 8001bea:	e227      	b.n	800203c <HAL_RCC_OscConfig+0x7bc>
        while(READ_BIT(RCC->CR, RCC_CR_HSIRDY) == 0U)
 8001bec:	4b82      	ldr	r3, [pc, #520]	; (8001df8 <HAL_RCC_OscConfig+0x578>)
 8001bee:	681b      	ldr	r3, [r3, #0]
 8001bf0:	f403 6380 	and.w	r3, r3, #1024	; 0x400
 8001bf4:	2b00      	cmp	r3, #0
 8001bf6:	d0f0      	beq.n	8001bda <HAL_RCC_OscConfig+0x35a>
          }
        }

        /* Adjusts the Internal High Speed oscillator (HSI) calibration value.*/
        __HAL_RCC_HSI_CALIBRATIONVALUE_ADJUST(RCC_OscInitStruct->HSICalibrationValue);
 8001bf8:	4b7f      	ldr	r3, [pc, #508]	; (8001df8 <HAL_RCC_OscConfig+0x578>)
 8001bfa:	685b      	ldr	r3, [r3, #4]
 8001bfc:	f023 52f8 	bic.w	r2, r3, #520093696	; 0x1f000000
 8001c00:	687b      	ldr	r3, [r7, #4]
 8001c02:	691b      	ldr	r3, [r3, #16]
 8001c04:	061b      	lsls	r3, r3, #24
 8001c06:	497c      	ldr	r1, [pc, #496]	; (8001df8 <HAL_RCC_OscConfig+0x578>)
 8001c08:	4313      	orrs	r3, r2
 8001c0a:	604b      	str	r3, [r1, #4]
 8001c0c:	e018      	b.n	8001c40 <HAL_RCC_OscConfig+0x3c0>
      }
      else
      {
        /* Disable the Internal High Speed oscillator (HSI). */
        __HAL_RCC_HSI_DISABLE();
 8001c0e:	4b7a      	ldr	r3, [pc, #488]	; (8001df8 <HAL_RCC_OscConfig+0x578>)
 8001c10:	681b      	ldr	r3, [r3, #0]
 8001c12:	4a79      	ldr	r2, [pc, #484]	; (8001df8 <HAL_RCC_OscConfig+0x578>)
 8001c14:	f423 7380 	bic.w	r3, r3, #256	; 0x100
 8001c18:	6013      	str	r3, [r2, #0]

        /* Get Start Tick*/
        tickstart = HAL_GetTick();
 8001c1a:	f7fe ff95 	bl	8000b48 <HAL_GetTick>
 8001c1e:	6138      	str	r0, [r7, #16]

        /* Wait till HSI is disabled */
        while(READ_BIT(RCC->CR, RCC_CR_HSIRDY) != 0U)
 8001c20:	e008      	b.n	8001c34 <HAL_RCC_OscConfig+0x3b4>
        {
          if((HAL_GetTick() - tickstart) > HSI_TIMEOUT_VALUE)
 8001c22:	f7fe ff91 	bl	8000b48 <HAL_GetTick>
 8001c26:	4602      	mov	r2, r0
 8001c28:	693b      	ldr	r3, [r7, #16]
 8001c2a:	1ad3      	subs	r3, r2, r3
 8001c2c:	2b02      	cmp	r3, #2
 8001c2e:	d901      	bls.n	8001c34 <HAL_RCC_OscConfig+0x3b4>
          {
            return HAL_TIMEOUT;
 8001c30:	2303      	movs	r3, #3
 8001c32:	e203      	b.n	800203c <HAL_RCC_OscConfig+0x7bc>
        while(READ_BIT(RCC->CR, RCC_CR_HSIRDY) != 0U)
 8001c34:	4b70      	ldr	r3, [pc, #448]	; (8001df8 <HAL_RCC_OscConfig+0x578>)
 8001c36:	681b      	ldr	r3, [r3, #0]
 8001c38:	f403 6380 	and.w	r3, r3, #1024	; 0x400
 8001c3c:	2b00      	cmp	r3, #0
 8001c3e:	d1f0      	bne.n	8001c22 <HAL_RCC_OscConfig+0x3a2>
        }
      }
    }
  }
  /*------------------------------ LSI Configuration -------------------------*/
  if(((RCC_OscInitStruct->OscillatorType) & RCC_OSCILLATORTYPE_LSI) == RCC_OSCILLATORTYPE_LSI)
 8001c40:	687b      	ldr	r3, [r7, #4]
 8001c42:	681b      	ldr	r3, [r3, #0]
 8001c44:	f003 0308 	and.w	r3, r3, #8
 8001c48:	2b00      	cmp	r3, #0
 8001c4a:	d03c      	beq.n	8001cc6 <HAL_RCC_OscConfig+0x446>
  {
    /* Check the parameters */
    assert_param(IS_RCC_LSI(RCC_OscInitStruct->LSIState));

    /* Check the LSI State */
    if(RCC_OscInitStruct->LSIState != RCC_LSI_OFF)
 8001c4c:	687b      	ldr	r3, [r7, #4]
 8001c4e:	695b      	ldr	r3, [r3, #20]
 8001c50:	2b00      	cmp	r3, #0
 8001c52:	d01c      	beq.n	8001c8e <HAL_RCC_OscConfig+0x40e>
        MODIFY_REG(RCC->CSR, RCC_CSR_LSIPREDIV, RCC_OscInitStruct->LSIDiv);
      }
#endif /* RCC_CSR_LSIPREDIV */

      /* Enable the Internal Low Speed oscillator (LSI). */
      __HAL_RCC_LSI_ENABLE();
 8001c54:	4b68      	ldr	r3, [pc, #416]	; (8001df8 <HAL_RCC_OscConfig+0x578>)
 8001c56:	f8d3 3094 	ldr.w	r3, [r3, #148]	; 0x94
 8001c5a:	4a67      	ldr	r2, [pc, #412]	; (8001df8 <HAL_RCC_OscConfig+0x578>)
 8001c5c:	f043 0301 	orr.w	r3, r3, #1
 8001c60:	f8c2 3094 	str.w	r3, [r2, #148]	; 0x94

      /* Get Start Tick*/
      tickstart = HAL_GetTick();
 8001c64:	f7fe ff70 	bl	8000b48 <HAL_GetTick>
 8001c68:	6138      	str	r0, [r7, #16]

      /* Wait till LSI is ready */
      while(READ_BIT(RCC->CSR, RCC_CSR_LSIRDY) == 0U)
 8001c6a:	e008      	b.n	8001c7e <HAL_RCC_OscConfig+0x3fe>
      {
        if((HAL_GetTick() - tickstart) > LSI_TIMEOUT_VALUE)
 8001c6c:	f7fe ff6c 	bl	8000b48 <HAL_GetTick>
 8001c70:	4602      	mov	r2, r0
 8001c72:	693b      	ldr	r3, [r7, #16]
 8001c74:	1ad3      	subs	r3, r2, r3
 8001c76:	2b02      	cmp	r3, #2
 8001c78:	d901      	bls.n	8001c7e <HAL_RCC_OscConfig+0x3fe>
        {
          return HAL_TIMEOUT;
 8001c7a:	2303      	movs	r3, #3
 8001c7c:	e1de      	b.n	800203c <HAL_RCC_OscConfig+0x7bc>
      while(READ_BIT(RCC->CSR, RCC_CSR_LSIRDY) == 0U)
 8001c7e:	4b5e      	ldr	r3, [pc, #376]	; (8001df8 <HAL_RCC_OscConfig+0x578>)
 8001c80:	f8d3 3094 	ldr.w	r3, [r3, #148]	; 0x94
 8001c84:	f003 0302 	and.w	r3, r3, #2
 8001c88:	2b00      	cmp	r3, #0
 8001c8a:	d0ef      	beq.n	8001c6c <HAL_RCC_OscConfig+0x3ec>
 8001c8c:	e01b      	b.n	8001cc6 <HAL_RCC_OscConfig+0x446>
      }
    }
    else
    {
      /* Disable the Internal Low Speed oscillator (LSI). */
      __HAL_RCC_LSI_DISABLE();
 8001c8e:	4b5a      	ldr	r3, [pc, #360]	; (8001df8 <HAL_RCC_OscConfig+0x578>)
 8001c90:	f8d3 3094 	ldr.w	r3, [r3, #148]	; 0x94
 8001c94:	4a58      	ldr	r2, [pc, #352]	; (8001df8 <HAL_RCC_OscConfig+0x578>)
 8001c96:	f023 0301 	bic.w	r3, r3, #1
 8001c9a:	f8c2 3094 	str.w	r3, [r2, #148]	; 0x94

      /* Get Start Tick*/
      tickstart = HAL_GetTick();
 8001c9e:	f7fe ff53 	bl	8000b48 <HAL_GetTick>
 8001ca2:	6138      	str	r0, [r7, #16]

      /* Wait till LSI is disabled */
      while(READ_BIT(RCC->CSR, RCC_CSR_LSIRDY) != 0U)
 8001ca4:	e008      	b.n	8001cb8 <HAL_RCC_OscConfig+0x438>
      {
        if((HAL_GetTick() - tickstart) > LSI_TIMEOUT_VALUE)
 8001ca6:	f7fe ff4f 	bl	8000b48 <HAL_GetTick>
 8001caa:	4602      	mov	r2, r0
 8001cac:	693b      	ldr	r3, [r7, #16]
 8001cae:	1ad3      	subs	r3, r2, r3
 8001cb0:	2b02      	cmp	r3, #2
 8001cb2:	d901      	bls.n	8001cb8 <HAL_RCC_OscConfig+0x438>
        {
          return HAL_TIMEOUT;
 8001cb4:	2303      	movs	r3, #3
 8001cb6:	e1c1      	b.n	800203c <HAL_RCC_OscConfig+0x7bc>
      while(READ_BIT(RCC->CSR, RCC_CSR_LSIRDY) != 0U)
 8001cb8:	4b4f      	ldr	r3, [pc, #316]	; (8001df8 <HAL_RCC_OscConfig+0x578>)
 8001cba:	f8d3 3094 	ldr.w	r3, [r3, #148]	; 0x94
 8001cbe:	f003 0302 	and.w	r3, r3, #2
 8001cc2:	2b00      	cmp	r3, #0
 8001cc4:	d1ef      	bne.n	8001ca6 <HAL_RCC_OscConfig+0x426>
        }
      }
    }
  }
  /*------------------------------ LSE Configuration -------------------------*/
  if(((RCC_OscInitStruct->OscillatorType) & RCC_OSCILLATORTYPE_LSE) == RCC_OSCILLATORTYPE_LSE)
 8001cc6:	687b      	ldr	r3, [r7, #4]
 8001cc8:	681b      	ldr	r3, [r3, #0]
 8001cca:	f003 0304 	and.w	r3, r3, #4
 8001cce:	2b00      	cmp	r3, #0
 8001cd0:	f000 80a6 	beq.w	8001e20 <HAL_RCC_OscConfig+0x5a0>
  {
    FlagStatus       pwrclkchanged = RESET;
 8001cd4:	2300      	movs	r3, #0
 8001cd6:	77fb      	strb	r3, [r7, #31]
    /* Check the parameters */
    assert_param(IS_RCC_LSE(RCC_OscInitStruct->LSEState));

    /* Update LSE configuration in Backup Domain control register    */
    /* Requires to enable write access to Backup Domain of necessary */
    if(HAL_IS_BIT_CLR(RCC->APB1ENR1, RCC_APB1ENR1_PWREN))
 8001cd8:	4b47      	ldr	r3, [pc, #284]	; (8001df8 <HAL_RCC_OscConfig+0x578>)
 8001cda:	6d9b      	ldr	r3, [r3, #88]	; 0x58
 8001cdc:	f003 5380 	and.w	r3, r3, #268435456	; 0x10000000
 8001ce0:	2b00      	cmp	r3, #0
 8001ce2:	d10d      	bne.n	8001d00 <HAL_RCC_OscConfig+0x480>
    {
      __HAL_RCC_PWR_CLK_ENABLE();
 8001ce4:	4b44      	ldr	r3, [pc, #272]	; (8001df8 <HAL_RCC_OscConfig+0x578>)
 8001ce6:	6d9b      	ldr	r3, [r3, #88]	; 0x58
 8001ce8:	4a43      	ldr	r2, [pc, #268]	; (8001df8 <HAL_RCC_OscConfig+0x578>)
 8001cea:	f043 5380 	orr.w	r3, r3, #268435456	; 0x10000000
 8001cee:	6593      	str	r3, [r2, #88]	; 0x58
 8001cf0:	4b41      	ldr	r3, [pc, #260]	; (8001df8 <HAL_RCC_OscConfig+0x578>)
 8001cf2:	6d9b      	ldr	r3, [r3, #88]	; 0x58
 8001cf4:	f003 5380 	and.w	r3, r3, #268435456	; 0x10000000
 8001cf8:	60bb      	str	r3, [r7, #8]
 8001cfa:	68bb      	ldr	r3, [r7, #8]
      pwrclkchanged = SET;
 8001cfc:	2301      	movs	r3, #1
 8001cfe:	77fb      	strb	r3, [r7, #31]
    }

    if(HAL_IS_BIT_CLR(PWR->CR1, PWR_CR1_DBP))
 8001d00:	4b3e      	ldr	r3, [pc, #248]	; (8001dfc <HAL_RCC_OscConfig+0x57c>)
 8001d02:	681b      	ldr	r3, [r3, #0]
 8001d04:	f403 7380 	and.w	r3, r3, #256	; 0x100
 8001d08:	2b00      	cmp	r3, #0
 8001d0a:	d118      	bne.n	8001d3e <HAL_RCC_OscConfig+0x4be>
    {
      /* Enable write access to Backup domain */
      SET_BIT(PWR->CR1, PWR_CR1_DBP);
 8001d0c:	4b3b      	ldr	r3, [pc, #236]	; (8001dfc <HAL_RCC_OscConfig+0x57c>)
 8001d0e:	681b      	ldr	r3, [r3, #0]
 8001d10:	4a3a      	ldr	r2, [pc, #232]	; (8001dfc <HAL_RCC_OscConfig+0x57c>)
 8001d12:	f443 7380 	orr.w	r3, r3, #256	; 0x100
 8001d16:	6013      	str	r3, [r2, #0]

      /* Wait for Backup domain Write protection disable */
      tickstart = HAL_GetTick();
 8001d18:	f7fe ff16 	bl	8000b48 <HAL_GetTick>
 8001d1c:	6138      	str	r0, [r7, #16]

      while(HAL_IS_BIT_CLR(PWR->CR1, PWR_CR1_DBP))
 8001d1e:	e008      	b.n	8001d32 <HAL_RCC_OscConfig+0x4b2>
      {
        if((HAL_GetTick() - tickstart) > RCC_DBP_TIMEOUT_VALUE)
 8001d20:	f7fe ff12 	bl	8000b48 <HAL_GetTick>
 8001d24:	4602      	mov	r2, r0
 8001d26:	693b      	ldr	r3, [r7, #16]
 8001d28:	1ad3      	subs	r3, r2, r3
 8001d2a:	2b02      	cmp	r3, #2
 8001d2c:	d901      	bls.n	8001d32 <HAL_RCC_OscConfig+0x4b2>
        {
          return HAL_TIMEOUT;
 8001d2e:	2303      	movs	r3, #3
 8001d30:	e184      	b.n	800203c <HAL_RCC_OscConfig+0x7bc>
      while(HAL_IS_BIT_CLR(PWR->CR1, PWR_CR1_DBP))
 8001d32:	4b32      	ldr	r3, [pc, #200]	; (8001dfc <HAL_RCC_OscConfig+0x57c>)
 8001d34:	681b      	ldr	r3, [r3, #0]
 8001d36:	f403 7380 	and.w	r3, r3, #256	; 0x100
 8001d3a:	2b00      	cmp	r3, #0
 8001d3c:	d0f0      	beq.n	8001d20 <HAL_RCC_OscConfig+0x4a0>
    {
      CLEAR_BIT(RCC->BDCR, RCC_BDCR_LSEON);
      CLEAR_BIT(RCC->BDCR, RCC_BDCR_LSEBYP);
    }
#else
    __HAL_RCC_LSE_CONFIG(RCC_OscInitStruct->LSEState);
 8001d3e:	687b      	ldr	r3, [r7, #4]
 8001d40:	689b      	ldr	r3, [r3, #8]
 8001d42:	2b01      	cmp	r3, #1
 8001d44:	d108      	bne.n	8001d58 <HAL_RCC_OscConfig+0x4d8>
 8001d46:	4b2c      	ldr	r3, [pc, #176]	; (8001df8 <HAL_RCC_OscConfig+0x578>)
 8001d48:	f8d3 3090 	ldr.w	r3, [r3, #144]	; 0x90
 8001d4c:	4a2a      	ldr	r2, [pc, #168]	; (8001df8 <HAL_RCC_OscConfig+0x578>)
 8001d4e:	f043 0301 	orr.w	r3, r3, #1
 8001d52:	f8c2 3090 	str.w	r3, [r2, #144]	; 0x90
 8001d56:	e024      	b.n	8001da2 <HAL_RCC_OscConfig+0x522>
 8001d58:	687b      	ldr	r3, [r7, #4]
 8001d5a:	689b      	ldr	r3, [r3, #8]
 8001d5c:	2b05      	cmp	r3, #5
 8001d5e:	d110      	bne.n	8001d82 <HAL_RCC_OscConfig+0x502>
 8001d60:	4b25      	ldr	r3, [pc, #148]	; (8001df8 <HAL_RCC_OscConfig+0x578>)
 8001d62:	f8d3 3090 	ldr.w	r3, [r3, #144]	; 0x90
 8001d66:	4a24      	ldr	r2, [pc, #144]	; (8001df8 <HAL_RCC_OscConfig+0x578>)
 8001d68:	f043 0304 	orr.w	r3, r3, #4
 8001d6c:	f8c2 3090 	str.w	r3, [r2, #144]	; 0x90
 8001d70:	4b21      	ldr	r3, [pc, #132]	; (8001df8 <HAL_RCC_OscConfig+0x578>)
 8001d72:	f8d3 3090 	ldr.w	r3, [r3, #144]	; 0x90
 8001d76:	4a20      	ldr	r2, [pc, #128]	; (8001df8 <HAL_RCC_OscConfig+0x578>)
 8001d78:	f043 0301 	orr.w	r3, r3, #1
 8001d7c:	f8c2 3090 	str.w	r3, [r2, #144]	; 0x90
 8001d80:	e00f      	b.n	8001da2 <HAL_RCC_OscConfig+0x522>
 8001d82:	4b1d      	ldr	r3, [pc, #116]	; (8001df8 <HAL_RCC_OscConfig+0x578>)
 8001d84:	f8d3 3090 	ldr.w	r3, [r3, #144]	; 0x90
 8001d88:	4a1b      	ldr	r2, [pc, #108]	; (8001df8 <HAL_RCC_OscConfig+0x578>)
 8001d8a:	f023 0301 	bic.w	r3, r3, #1
 8001d8e:	f8c2 3090 	str.w	r3, [r2, #144]	; 0x90
 8001d92:	4b19      	ldr	r3, [pc, #100]	; (8001df8 <HAL_RCC_OscConfig+0x578>)
 8001d94:	f8d3 3090 	ldr.w	r3, [r3, #144]	; 0x90
 8001d98:	4a17      	ldr	r2, [pc, #92]	; (8001df8 <HAL_RCC_OscConfig+0x578>)
 8001d9a:	f023 0304 	bic.w	r3, r3, #4
 8001d9e:	f8c2 3090 	str.w	r3, [r2, #144]	; 0x90
#endif /* RCC_BDCR_LSESYSDIS */

    /* Check the LSE State */
    if(RCC_OscInitStruct->LSEState != RCC_LSE_OFF)
 8001da2:	687b      	ldr	r3, [r7, #4]
 8001da4:	689b      	ldr	r3, [r3, #8]
 8001da6:	2b00      	cmp	r3, #0
 8001da8:	d016      	beq.n	8001dd8 <HAL_RCC_OscConfig+0x558>
    {
      /* Get Start Tick*/
      tickstart = HAL_GetTick();
 8001daa:	f7fe fecd 	bl	8000b48 <HAL_GetTick>
 8001dae:	6138      	str	r0, [r7, #16]

      /* Wait till LSE is ready */
      while(READ_BIT(RCC->BDCR, RCC_BDCR_LSERDY) == 0U)
 8001db0:	e00a      	b.n	8001dc8 <HAL_RCC_OscConfig+0x548>
      {
        if((HAL_GetTick() - tickstart) > RCC_LSE_TIMEOUT_VALUE)
 8001db2:	f7fe fec9 	bl	8000b48 <HAL_GetTick>
 8001db6:	4602      	mov	r2, r0
 8001db8:	693b      	ldr	r3, [r7, #16]
 8001dba:	1ad3      	subs	r3, r2, r3
 8001dbc:	f241 3288 	movw	r2, #5000	; 0x1388
 8001dc0:	4293      	cmp	r3, r2
 8001dc2:	d901      	bls.n	8001dc8 <HAL_RCC_OscConfig+0x548>
        {
          return HAL_TIMEOUT;
 8001dc4:	2303      	movs	r3, #3
 8001dc6:	e139      	b.n	800203c <HAL_RCC_OscConfig+0x7bc>
      while(READ_BIT(RCC->BDCR, RCC_BDCR_LSERDY) == 0U)
 8001dc8:	4b0b      	ldr	r3, [pc, #44]	; (8001df8 <HAL_RCC_OscConfig+0x578>)
 8001dca:	f8d3 3090 	ldr.w	r3, [r3, #144]	; 0x90
 8001dce:	f003 0302 	and.w	r3, r3, #2
 8001dd2:	2b00      	cmp	r3, #0
 8001dd4:	d0ed      	beq.n	8001db2 <HAL_RCC_OscConfig+0x532>
 8001dd6:	e01a      	b.n	8001e0e <HAL_RCC_OscConfig+0x58e>
      }
    }
    else
    {
      /* Get Start Tick*/
      tickstart = HAL_GetTick();
 8001dd8:	f7fe feb6 	bl	8000b48 <HAL_GetTick>
 8001ddc:	6138      	str	r0, [r7, #16]

      /* Wait till LSE is disabled */
      while(READ_BIT(RCC->BDCR, RCC_BDCR_LSERDY) != 0U)
 8001dde:	e00f      	b.n	8001e00 <HAL_RCC_OscConfig+0x580>
      {
        if((HAL_GetTick() - tickstart) > RCC_LSE_TIMEOUT_VALUE)
 8001de0:	f7fe feb2 	bl	8000b48 <HAL_GetTick>
 8001de4:	4602      	mov	r2, r0
 8001de6:	693b      	ldr	r3, [r7, #16]
 8001de8:	1ad3      	subs	r3, r2, r3
 8001dea:	f241 3288 	movw	r2, #5000	; 0x1388
 8001dee:	4293      	cmp	r3, r2
 8001df0:	d906      	bls.n	8001e00 <HAL_RCC_OscConfig+0x580>
        {
          return HAL_TIMEOUT;
 8001df2:	2303      	movs	r3, #3
 8001df4:	e122      	b.n	800203c <HAL_RCC_OscConfig+0x7bc>
 8001df6:	bf00      	nop
 8001df8:	40021000 	.word	0x40021000
 8001dfc:	40007000 	.word	0x40007000
      while(READ_BIT(RCC->BDCR, RCC_BDCR_LSERDY) != 0U)
 8001e00:	4b90      	ldr	r3, [pc, #576]	; (8002044 <HAL_RCC_OscConfig+0x7c4>)
 8001e02:	f8d3 3090 	ldr.w	r3, [r3, #144]	; 0x90
 8001e06:	f003 0302 	and.w	r3, r3, #2
 8001e0a:	2b00      	cmp	r3, #0
 8001e0c:	d1e8      	bne.n	8001de0 <HAL_RCC_OscConfig+0x560>
      CLEAR_BIT(RCC->BDCR, RCC_BDCR_LSESYSDIS);
#endif /* RCC_BDCR_LSESYSDIS */
    }

    /* Restore clock configuration if changed */
    if(pwrclkchanged == SET)
 8001e0e:	7ffb      	ldrb	r3, [r7, #31]
 8001e10:	2b01      	cmp	r3, #1
 8001e12:	d105      	bne.n	8001e20 <HAL_RCC_OscConfig+0x5a0>
    {
      __HAL_RCC_PWR_CLK_DISABLE();
 8001e14:	4b8b      	ldr	r3, [pc, #556]	; (8002044 <HAL_RCC_OscConfig+0x7c4>)
 8001e16:	6d9b      	ldr	r3, [r3, #88]	; 0x58
 8001e18:	4a8a      	ldr	r2, [pc, #552]	; (8002044 <HAL_RCC_OscConfig+0x7c4>)
 8001e1a:	f023 5380 	bic.w	r3, r3, #268435456	; 0x10000000
 8001e1e:	6593      	str	r3, [r2, #88]	; 0x58
#endif /* RCC_HSI48_SUPPORT */
  /*-------------------------------- PLL Configuration -----------------------*/
  /* Check the parameters */
  assert_param(IS_RCC_PLL(RCC_OscInitStruct->PLL.PLLState));

  if(RCC_OscInitStruct->PLL.PLLState != RCC_PLL_NONE)
 8001e20:	687b      	ldr	r3, [r7, #4]
 8001e22:	6a9b      	ldr	r3, [r3, #40]	; 0x28
 8001e24:	2b00      	cmp	r3, #0
 8001e26:	f000 8108 	beq.w	800203a <HAL_RCC_OscConfig+0x7ba>
  {
    /* PLL On ? */
    if(RCC_OscInitStruct->PLL.PLLState == RCC_PLL_ON)
 8001e2a:	687b      	ldr	r3, [r7, #4]
 8001e2c:	6a9b      	ldr	r3, [r3, #40]	; 0x28
 8001e2e:	2b02      	cmp	r3, #2
 8001e30:	f040 80d0 	bne.w	8001fd4 <HAL_RCC_OscConfig+0x754>
#endif /* RCC_PLLP_SUPPORT */
      assert_param(IS_RCC_PLLQ_VALUE(RCC_OscInitStruct->PLL.PLLQ));
      assert_param(IS_RCC_PLLR_VALUE(RCC_OscInitStruct->PLL.PLLR));

      /* Do nothing if PLL configuration is the unchanged */
      pll_config = RCC->PLLCFGR;
 8001e34:	4b83      	ldr	r3, [pc, #524]	; (8002044 <HAL_RCC_OscConfig+0x7c4>)
 8001e36:	68db      	ldr	r3, [r3, #12]
 8001e38:	617b      	str	r3, [r7, #20]
      if((READ_BIT(pll_config, RCC_PLLCFGR_PLLSRC)  != RCC_OscInitStruct->PLL.PLLSource) ||
 8001e3a:	697b      	ldr	r3, [r7, #20]
 8001e3c:	f003 0203 	and.w	r2, r3, #3
 8001e40:	687b      	ldr	r3, [r7, #4]
 8001e42:	6adb      	ldr	r3, [r3, #44]	; 0x2c
 8001e44:	429a      	cmp	r2, r3
 8001e46:	d130      	bne.n	8001eaa <HAL_RCC_OscConfig+0x62a>
         (READ_BIT(pll_config, RCC_PLLCFGR_PLLM)    != ((RCC_OscInitStruct->PLL.PLLM - 1U) << RCC_PLLCFGR_PLLM_Pos)) ||
 8001e48:	697b      	ldr	r3, [r7, #20]
 8001e4a:	f003 0270 	and.w	r2, r3, #112	; 0x70
 8001e4e:	687b      	ldr	r3, [r7, #4]
 8001e50:	6b1b      	ldr	r3, [r3, #48]	; 0x30
 8001e52:	3b01      	subs	r3, #1
 8001e54:	011b      	lsls	r3, r3, #4
      if((READ_BIT(pll_config, RCC_PLLCFGR_PLLSRC)  != RCC_OscInitStruct->PLL.PLLSource) ||
 8001e56:	429a      	cmp	r2, r3
 8001e58:	d127      	bne.n	8001eaa <HAL_RCC_OscConfig+0x62a>
         (READ_BIT(pll_config, RCC_PLLCFGR_PLLN)    != (RCC_OscInitStruct->PLL.PLLN << RCC_PLLCFGR_PLLN_Pos)) ||
 8001e5a:	697b      	ldr	r3, [r7, #20]
 8001e5c:	f403 42fe 	and.w	r2, r3, #32512	; 0x7f00
 8001e60:	687b      	ldr	r3, [r7, #4]
 8001e62:	6b5b      	ldr	r3, [r3, #52]	; 0x34
 8001e64:	021b      	lsls	r3, r3, #8
         (READ_BIT(pll_config, RCC_PLLCFGR_PLLM)    != ((RCC_OscInitStruct->PLL.PLLM - 1U) << RCC_PLLCFGR_PLLM_Pos)) ||
 8001e66:	429a      	cmp	r2, r3
 8001e68:	d11f      	bne.n	8001eaa <HAL_RCC_OscConfig+0x62a>
#if defined(RCC_PLLP_SUPPORT)
#if defined(RCC_PLLP_DIV_2_31_SUPPORT)
         (READ_BIT(pll_config, RCC_PLLCFGR_PLLPDIV) != (RCC_OscInitStruct->PLL.PLLP << RCC_PLLCFGR_PLLPDIV_Pos)) ||
#else
         (READ_BIT(pll_config, RCC_PLLCFGR_PLLP)    != ((RCC_OscInitStruct->PLL.PLLP == RCC_PLLP_DIV7) ? 0U : 1U)) ||
 8001e6a:	697b      	ldr	r3, [r7, #20]
 8001e6c:	f403 3300 	and.w	r3, r3, #131072	; 0x20000
 8001e70:	687a      	ldr	r2, [r7, #4]
 8001e72:	6b92      	ldr	r2, [r2, #56]	; 0x38
 8001e74:	2a07      	cmp	r2, #7
 8001e76:	bf14      	ite	ne
 8001e78:	2201      	movne	r2, #1
 8001e7a:	2200      	moveq	r2, #0
 8001e7c:	b2d2      	uxtb	r2, r2
         (READ_BIT(pll_config, RCC_PLLCFGR_PLLN)    != (RCC_OscInitStruct->PLL.PLLN << RCC_PLLCFGR_PLLN_Pos)) ||
 8001e7e:	4293      	cmp	r3, r2
 8001e80:	d113      	bne.n	8001eaa <HAL_RCC_OscConfig+0x62a>
#endif
#endif
         (READ_BIT(pll_config, RCC_PLLCFGR_PLLQ)    != ((((RCC_OscInitStruct->PLL.PLLQ) >> 1U) - 1U) << RCC_PLLCFGR_PLLQ_Pos)) ||
 8001e82:	697b      	ldr	r3, [r7, #20]
 8001e84:	f403 02c0 	and.w	r2, r3, #6291456	; 0x600000
 8001e88:	687b      	ldr	r3, [r7, #4]
 8001e8a:	6bdb      	ldr	r3, [r3, #60]	; 0x3c
 8001e8c:	085b      	lsrs	r3, r3, #1
 8001e8e:	3b01      	subs	r3, #1
 8001e90:	055b      	lsls	r3, r3, #21
         (READ_BIT(pll_config, RCC_PLLCFGR_PLLP)    != ((RCC_OscInitStruct->PLL.PLLP == RCC_PLLP_DIV7) ? 0U : 1U)) ||
 8001e92:	429a      	cmp	r2, r3
 8001e94:	d109      	bne.n	8001eaa <HAL_RCC_OscConfig+0x62a>
         (READ_BIT(pll_config, RCC_PLLCFGR_PLLR)    != ((((RCC_OscInitStruct->PLL.PLLR) >> 1U) - 1U) << RCC_PLLCFGR_PLLR_Pos)))
 8001e96:	697b      	ldr	r3, [r7, #20]
 8001e98:	f003 62c0 	and.w	r2, r3, #100663296	; 0x6000000
 8001e9c:	687b      	ldr	r3, [r7, #4]
 8001e9e:	6c1b      	ldr	r3, [r3, #64]	; 0x40
 8001ea0:	085b      	lsrs	r3, r3, #1
 8001ea2:	3b01      	subs	r3, #1
 8001ea4:	065b      	lsls	r3, r3, #25
         (READ_BIT(pll_config, RCC_PLLCFGR_PLLQ)    != ((((RCC_OscInitStruct->PLL.PLLQ) >> 1U) - 1U) << RCC_PLLCFGR_PLLQ_Pos)) ||
 8001ea6:	429a      	cmp	r2, r3
 8001ea8:	d06e      	beq.n	8001f88 <HAL_RCC_OscConfig+0x708>
      {
        /* Check if the PLL is used as system clock or not */
        if(sysclk_source != RCC_CFGR_SWS_PLL)
 8001eaa:	69bb      	ldr	r3, [r7, #24]
 8001eac:	2b0c      	cmp	r3, #12
 8001eae:	d069      	beq.n	8001f84 <HAL_RCC_OscConfig+0x704>
        {
#if defined(RCC_PLLSAI1_SUPPORT) || defined(RCC_PLLSAI2_SUPPORT)
          /* Check if main PLL can be updated */
          /* Not possible if the source is shared by other enabled PLLSAIx */
          if((READ_BIT(RCC->CR, RCC_CR_PLLSAI1ON) != 0U)
 8001eb0:	4b64      	ldr	r3, [pc, #400]	; (8002044 <HAL_RCC_OscConfig+0x7c4>)
 8001eb2:	681b      	ldr	r3, [r3, #0]
 8001eb4:	f003 6380 	and.w	r3, r3, #67108864	; 0x4000000
 8001eb8:	2b00      	cmp	r3, #0
 8001eba:	d105      	bne.n	8001ec8 <HAL_RCC_OscConfig+0x648>
#if defined(RCC_PLLSAI2_SUPPORT)
             || (READ_BIT(RCC->CR, RCC_CR_PLLSAI2ON) != 0U)
 8001ebc:	4b61      	ldr	r3, [pc, #388]	; (8002044 <HAL_RCC_OscConfig+0x7c4>)
 8001ebe:	681b      	ldr	r3, [r3, #0]
 8001ec0:	f003 5380 	and.w	r3, r3, #268435456	; 0x10000000
 8001ec4:	2b00      	cmp	r3, #0
 8001ec6:	d001      	beq.n	8001ecc <HAL_RCC_OscConfig+0x64c>
#endif
            )
          {
            return HAL_ERROR;
 8001ec8:	2301      	movs	r3, #1
 8001eca:	e0b7      	b.n	800203c <HAL_RCC_OscConfig+0x7bc>
          }
          else
#endif /* RCC_PLLSAI1_SUPPORT || RCC_PLLSAI2_SUPPORT */
          {
            /* Disable the main PLL. */
            __HAL_RCC_PLL_DISABLE();
 8001ecc:	4b5d      	ldr	r3, [pc, #372]	; (8002044 <HAL_RCC_OscConfig+0x7c4>)
 8001ece:	681b      	ldr	r3, [r3, #0]
 8001ed0:	4a5c      	ldr	r2, [pc, #368]	; (8002044 <HAL_RCC_OscConfig+0x7c4>)
 8001ed2:	f023 7380 	bic.w	r3, r3, #16777216	; 0x1000000
 8001ed6:	6013      	str	r3, [r2, #0]

            /* Get Start Tick*/
            tickstart = HAL_GetTick();
 8001ed8:	f7fe fe36 	bl	8000b48 <HAL_GetTick>
 8001edc:	6138      	str	r0, [r7, #16]

            /* Wait till PLL is ready */
            while(READ_BIT(RCC->CR, RCC_CR_PLLRDY) != 0U)
 8001ede:	e008      	b.n	8001ef2 <HAL_RCC_OscConfig+0x672>
            {
              if((HAL_GetTick() - tickstart) > PLL_TIMEOUT_VALUE)
 8001ee0:	f7fe fe32 	bl	8000b48 <HAL_GetTick>
 8001ee4:	4602      	mov	r2, r0
 8001ee6:	693b      	ldr	r3, [r7, #16]
 8001ee8:	1ad3      	subs	r3, r2, r3
 8001eea:	2b02      	cmp	r3, #2
 8001eec:	d901      	bls.n	8001ef2 <HAL_RCC_OscConfig+0x672>
              {
                return HAL_TIMEOUT;
 8001eee:	2303      	movs	r3, #3
 8001ef0:	e0a4      	b.n	800203c <HAL_RCC_OscConfig+0x7bc>
            while(READ_BIT(RCC->CR, RCC_CR_PLLRDY) != 0U)
 8001ef2:	4b54      	ldr	r3, [pc, #336]	; (8002044 <HAL_RCC_OscConfig+0x7c4>)
 8001ef4:	681b      	ldr	r3, [r3, #0]
 8001ef6:	f003 7300 	and.w	r3, r3, #33554432	; 0x2000000
 8001efa:	2b00      	cmp	r3, #0
 8001efc:	d1f0      	bne.n	8001ee0 <HAL_RCC_OscConfig+0x660>
              }
            }

            /* Configure the main PLL clock source, multiplication and division factors. */
            __HAL_RCC_PLL_CONFIG(RCC_OscInitStruct->PLL.PLLSource,
 8001efe:	4b51      	ldr	r3, [pc, #324]	; (8002044 <HAL_RCC_OscConfig+0x7c4>)
 8001f00:	68da      	ldr	r2, [r3, #12]
 8001f02:	4b51      	ldr	r3, [pc, #324]	; (8002048 <HAL_RCC_OscConfig+0x7c8>)
 8001f04:	4013      	ands	r3, r2
 8001f06:	687a      	ldr	r2, [r7, #4]
 8001f08:	6ad1      	ldr	r1, [r2, #44]	; 0x2c
 8001f0a:	687a      	ldr	r2, [r7, #4]
 8001f0c:	6b12      	ldr	r2, [r2, #48]	; 0x30
 8001f0e:	3a01      	subs	r2, #1
 8001f10:	0112      	lsls	r2, r2, #4
 8001f12:	4311      	orrs	r1, r2
 8001f14:	687a      	ldr	r2, [r7, #4]
 8001f16:	6b52      	ldr	r2, [r2, #52]	; 0x34
 8001f18:	0212      	lsls	r2, r2, #8
 8001f1a:	4311      	orrs	r1, r2
 8001f1c:	687a      	ldr	r2, [r7, #4]
 8001f1e:	6bd2      	ldr	r2, [r2, #60]	; 0x3c
 8001f20:	0852      	lsrs	r2, r2, #1
 8001f22:	3a01      	subs	r2, #1
 8001f24:	0552      	lsls	r2, r2, #21
 8001f26:	4311      	orrs	r1, r2
 8001f28:	687a      	ldr	r2, [r7, #4]
 8001f2a:	6c12      	ldr	r2, [r2, #64]	; 0x40
 8001f2c:	0852      	lsrs	r2, r2, #1
 8001f2e:	3a01      	subs	r2, #1
 8001f30:	0652      	lsls	r2, r2, #25
 8001f32:	4311      	orrs	r1, r2
 8001f34:	687a      	ldr	r2, [r7, #4]
 8001f36:	6b92      	ldr	r2, [r2, #56]	; 0x38
 8001f38:	0912      	lsrs	r2, r2, #4
 8001f3a:	0452      	lsls	r2, r2, #17
 8001f3c:	430a      	orrs	r2, r1
 8001f3e:	4941      	ldr	r1, [pc, #260]	; (8002044 <HAL_RCC_OscConfig+0x7c4>)
 8001f40:	4313      	orrs	r3, r2
 8001f42:	60cb      	str	r3, [r1, #12]
#endif
                                 RCC_OscInitStruct->PLL.PLLQ,
                                 RCC_OscInitStruct->PLL.PLLR);

            /* Enable the main PLL. */
            __HAL_RCC_PLL_ENABLE();
 8001f44:	4b3f      	ldr	r3, [pc, #252]	; (8002044 <HAL_RCC_OscConfig+0x7c4>)
 8001f46:	681b      	ldr	r3, [r3, #0]
 8001f48:	4a3e      	ldr	r2, [pc, #248]	; (8002044 <HAL_RCC_OscConfig+0x7c4>)
 8001f4a:	f043 7380 	orr.w	r3, r3, #16777216	; 0x1000000
 8001f4e:	6013      	str	r3, [r2, #0]

            /* Enable PLL System Clock output. */
            __HAL_RCC_PLLCLKOUT_ENABLE(RCC_PLL_SYSCLK);
 8001f50:	4b3c      	ldr	r3, [pc, #240]	; (8002044 <HAL_RCC_OscConfig+0x7c4>)
 8001f52:	68db      	ldr	r3, [r3, #12]
 8001f54:	4a3b      	ldr	r2, [pc, #236]	; (8002044 <HAL_RCC_OscConfig+0x7c4>)
 8001f56:	f043 7380 	orr.w	r3, r3, #16777216	; 0x1000000
 8001f5a:	60d3      	str	r3, [r2, #12]

            /* Get Start Tick*/
            tickstart = HAL_GetTick();
 8001f5c:	f7fe fdf4 	bl	8000b48 <HAL_GetTick>
 8001f60:	6138      	str	r0, [r7, #16]

            /* Wait till PLL is ready */
            while(READ_BIT(RCC->CR, RCC_CR_PLLRDY) == 0U)
 8001f62:	e008      	b.n	8001f76 <HAL_RCC_OscConfig+0x6f6>
            {
              if((HAL_GetTick() - tickstart) > PLL_TIMEOUT_VALUE)
 8001f64:	f7fe fdf0 	bl	8000b48 <HAL_GetTick>
 8001f68:	4602      	mov	r2, r0
 8001f6a:	693b      	ldr	r3, [r7, #16]
 8001f6c:	1ad3      	subs	r3, r2, r3
 8001f6e:	2b02      	cmp	r3, #2
 8001f70:	d901      	bls.n	8001f76 <HAL_RCC_OscConfig+0x6f6>
              {
                return HAL_TIMEOUT;
 8001f72:	2303      	movs	r3, #3
 8001f74:	e062      	b.n	800203c <HAL_RCC_OscConfig+0x7bc>
            while(READ_BIT(RCC->CR, RCC_CR_PLLRDY) == 0U)
 8001f76:	4b33      	ldr	r3, [pc, #204]	; (8002044 <HAL_RCC_OscConfig+0x7c4>)
 8001f78:	681b      	ldr	r3, [r3, #0]
 8001f7a:	f003 7300 	and.w	r3, r3, #33554432	; 0x2000000
 8001f7e:	2b00      	cmp	r3, #0
 8001f80:	d0f0      	beq.n	8001f64 <HAL_RCC_OscConfig+0x6e4>
        if(sysclk_source != RCC_CFGR_SWS_PLL)
 8001f82:	e05a      	b.n	800203a <HAL_RCC_OscConfig+0x7ba>
          }
        }
        else
        {
          /* PLL is already used as System core clock */
          return HAL_ERROR;
 8001f84:	2301      	movs	r3, #1
 8001f86:	e059      	b.n	800203c <HAL_RCC_OscConfig+0x7bc>
      }
      else
      {
        /* PLL configuration is unchanged */
        /* Re-enable PLL if it was disabled (ie. low power mode) */
        if(READ_BIT(RCC->CR, RCC_CR_PLLRDY) == 0U)
 8001f88:	4b2e      	ldr	r3, [pc, #184]	; (8002044 <HAL_RCC_OscConfig+0x7c4>)
 8001f8a:	681b      	ldr	r3, [r3, #0]
 8001f8c:	f003 7300 	and.w	r3, r3, #33554432	; 0x2000000
 8001f90:	2b00      	cmp	r3, #0
 8001f92:	d152      	bne.n	800203a <HAL_RCC_OscConfig+0x7ba>
        {
          /* Enable the main PLL. */
          __HAL_RCC_PLL_ENABLE();
 8001f94:	4b2b      	ldr	r3, [pc, #172]	; (8002044 <HAL_RCC_OscConfig+0x7c4>)
 8001f96:	681b      	ldr	r3, [r3, #0]
 8001f98:	4a2a      	ldr	r2, [pc, #168]	; (8002044 <HAL_RCC_OscConfig+0x7c4>)
 8001f9a:	f043 7380 	orr.w	r3, r3, #16777216	; 0x1000000
 8001f9e:	6013      	str	r3, [r2, #0]

          /* Enable PLL System Clock output. */
          __HAL_RCC_PLLCLKOUT_ENABLE(RCC_PLL_SYSCLK);
 8001fa0:	4b28      	ldr	r3, [pc, #160]	; (8002044 <HAL_RCC_OscConfig+0x7c4>)
 8001fa2:	68db      	ldr	r3, [r3, #12]
 8001fa4:	4a27      	ldr	r2, [pc, #156]	; (8002044 <HAL_RCC_OscConfig+0x7c4>)
 8001fa6:	f043 7380 	orr.w	r3, r3, #16777216	; 0x1000000
 8001faa:	60d3      	str	r3, [r2, #12]

          /* Get Start Tick*/
          tickstart = HAL_GetTick();
 8001fac:	f7fe fdcc 	bl	8000b48 <HAL_GetTick>
 8001fb0:	6138      	str	r0, [r7, #16]

          /* Wait till PLL is ready */
          while(READ_BIT(RCC->CR, RCC_CR_PLLRDY) == 0U)
 8001fb2:	e008      	b.n	8001fc6 <HAL_RCC_OscConfig+0x746>
          {
            if((HAL_GetTick() - tickstart) > PLL_TIMEOUT_VALUE)
 8001fb4:	f7fe fdc8 	bl	8000b48 <HAL_GetTick>
 8001fb8:	4602      	mov	r2, r0
 8001fba:	693b      	ldr	r3, [r7, #16]
 8001fbc:	1ad3      	subs	r3, r2, r3
 8001fbe:	2b02      	cmp	r3, #2
 8001fc0:	d901      	bls.n	8001fc6 <HAL_RCC_OscConfig+0x746>
            {
              return HAL_TIMEOUT;
 8001fc2:	2303      	movs	r3, #3
 8001fc4:	e03a      	b.n	800203c <HAL_RCC_OscConfig+0x7bc>
          while(READ_BIT(RCC->CR, RCC_CR_PLLRDY) == 0U)
 8001fc6:	4b1f      	ldr	r3, [pc, #124]	; (8002044 <HAL_RCC_OscConfig+0x7c4>)
 8001fc8:	681b      	ldr	r3, [r3, #0]
 8001fca:	f003 7300 	and.w	r3, r3, #33554432	; 0x2000000
 8001fce:	2b00      	cmp	r3, #0
 8001fd0:	d0f0      	beq.n	8001fb4 <HAL_RCC_OscConfig+0x734>
 8001fd2:	e032      	b.n	800203a <HAL_RCC_OscConfig+0x7ba>
      }
    }
    else
    {
      /* Check that PLL is not used as system clock or not */
      if(sysclk_source != RCC_CFGR_SWS_PLL)
 8001fd4:	69bb      	ldr	r3, [r7, #24]
 8001fd6:	2b0c      	cmp	r3, #12
 8001fd8:	d02d      	beq.n	8002036 <HAL_RCC_OscConfig+0x7b6>
      {
        /* Disable the main PLL. */
        __HAL_RCC_PLL_DISABLE();
 8001fda:	4b1a      	ldr	r3, [pc, #104]	; (8002044 <HAL_RCC_OscConfig+0x7c4>)
 8001fdc:	681b      	ldr	r3, [r3, #0]
 8001fde:	4a19      	ldr	r2, [pc, #100]	; (8002044 <HAL_RCC_OscConfig+0x7c4>)
 8001fe0:	f023 7380 	bic.w	r3, r3, #16777216	; 0x1000000
 8001fe4:	6013      	str	r3, [r2, #0]

        /* Disable all PLL outputs to save power if no PLLs on */
#if defined(RCC_PLLSAI1_SUPPORT) && defined(RCC_CR_PLLSAI2RDY)
        if(READ_BIT(RCC->CR, (RCC_CR_PLLSAI1RDY | RCC_CR_PLLSAI2RDY)) == 0U)
 8001fe6:	4b17      	ldr	r3, [pc, #92]	; (8002044 <HAL_RCC_OscConfig+0x7c4>)
 8001fe8:	681b      	ldr	r3, [r3, #0]
 8001fea:	f003 5320 	and.w	r3, r3, #671088640	; 0x28000000
 8001fee:	2b00      	cmp	r3, #0
 8001ff0:	d105      	bne.n	8001ffe <HAL_RCC_OscConfig+0x77e>
        {
          MODIFY_REG(RCC->PLLCFGR, RCC_PLLCFGR_PLLSRC, RCC_PLLSOURCE_NONE);
 8001ff2:	4b14      	ldr	r3, [pc, #80]	; (8002044 <HAL_RCC_OscConfig+0x7c4>)
 8001ff4:	68db      	ldr	r3, [r3, #12]
 8001ff6:	4a13      	ldr	r2, [pc, #76]	; (8002044 <HAL_RCC_OscConfig+0x7c4>)
 8001ff8:	f023 0303 	bic.w	r3, r3, #3
 8001ffc:	60d3      	str	r3, [r2, #12]
#else
        MODIFY_REG(RCC->PLLCFGR, RCC_PLLCFGR_PLLSRC, RCC_PLLSOURCE_NONE);
#endif /* RCC_PLLSAI1_SUPPORT && RCC_CR_PLLSAI2RDY */

#if defined(RCC_PLLSAI2_SUPPORT)
        __HAL_RCC_PLLCLKOUT_DISABLE(RCC_PLL_SYSCLK | RCC_PLL_48M1CLK | RCC_PLL_SAI3CLK);
 8001ffe:	4b11      	ldr	r3, [pc, #68]	; (8002044 <HAL_RCC_OscConfig+0x7c4>)
 8002000:	68db      	ldr	r3, [r3, #12]
 8002002:	4a10      	ldr	r2, [pc, #64]	; (8002044 <HAL_RCC_OscConfig+0x7c4>)
 8002004:	f023 7388 	bic.w	r3, r3, #17825792	; 0x1100000
 8002008:	f423 3380 	bic.w	r3, r3, #65536	; 0x10000
 800200c:	60d3      	str	r3, [r2, #12]
#else
        __HAL_RCC_PLLCLKOUT_DISABLE(RCC_PLL_SYSCLK | RCC_PLL_48M1CLK);
#endif /* RCC_PLLSAI2_SUPPORT */

        /* Get Start Tick*/
        tickstart = HAL_GetTick();
 800200e:	f7fe fd9b 	bl	8000b48 <HAL_GetTick>
 8002012:	6138      	str	r0, [r7, #16]

        /* Wait till PLL is disabled */
        while(READ_BIT(RCC->CR, RCC_CR_PLLRDY) != 0U)
 8002014:	e008      	b.n	8002028 <HAL_RCC_OscConfig+0x7a8>
        {
          if((HAL_GetTick() - tickstart) > PLL_TIMEOUT_VALUE)
 8002016:	f7fe fd97 	bl	8000b48 <HAL_GetTick>
 800201a:	4602      	mov	r2, r0
 800201c:	693b      	ldr	r3, [r7, #16]
 800201e:	1ad3      	subs	r3, r2, r3
 8002020:	2b02      	cmp	r3, #2
 8002022:	d901      	bls.n	8002028 <HAL_RCC_OscConfig+0x7a8>
          {
            return HAL_TIMEOUT;
 8002024:	2303      	movs	r3, #3
 8002026:	e009      	b.n	800203c <HAL_RCC_OscConfig+0x7bc>
        while(READ_BIT(RCC->CR, RCC_CR_PLLRDY) != 0U)
 8002028:	4b06      	ldr	r3, [pc, #24]	; (8002044 <HAL_RCC_OscConfig+0x7c4>)
 800202a:	681b      	ldr	r3, [r3, #0]
 800202c:	f003 7300 	and.w	r3, r3, #33554432	; 0x2000000
 8002030:	2b00      	cmp	r3, #0
 8002032:	d1f0      	bne.n	8002016 <HAL_RCC_OscConfig+0x796>
 8002034:	e001      	b.n	800203a <HAL_RCC_OscConfig+0x7ba>
        }
      }
      else
      {
        /* PLL is already used as System core clock */
        return HAL_ERROR;
 8002036:	2301      	movs	r3, #1
 8002038:	e000      	b.n	800203c <HAL_RCC_OscConfig+0x7bc>
      }
    }
  }
  return HAL_OK;
 800203a:	2300      	movs	r3, #0
}
 800203c:	4618      	mov	r0, r3
 800203e:	3720      	adds	r7, #32
 8002040:	46bd      	mov	sp, r7
 8002042:	bd80      	pop	{r7, pc}
 8002044:	40021000 	.word	0x40021000
 8002048:	f99d808c 	.word	0xf99d808c

0800204c <HAL_RCC_ClockConfig>:
  *         HPRE[3:0] bits to ensure that HCLK not exceed the maximum allowed frequency
  *         (for more details refer to section above "Initialization/de-initialization functions")
  * @retval None
  */
HAL_StatusTypeDef HAL_RCC_ClockConfig(RCC_ClkInitTypeDef  *RCC_ClkInitStruct, uint32_t FLatency)
{
 800204c:	b580      	push	{r7, lr}
 800204e:	b084      	sub	sp, #16
 8002050:	af00      	add	r7, sp, #0
 8002052:	6078      	str	r0, [r7, #4]
 8002054:	6039      	str	r1, [r7, #0]
  uint32_t hpre = RCC_SYSCLK_DIV1;
#endif
  HAL_StatusTypeDef status;

  /* Check Null pointer */
  if(RCC_ClkInitStruct == NULL)
 8002056:	687b      	ldr	r3, [r7, #4]
 8002058:	2b00      	cmp	r3, #0
 800205a:	d101      	bne.n	8002060 <HAL_RCC_ClockConfig+0x14>
  {
    return HAL_ERROR;
 800205c:	2301      	movs	r3, #1
 800205e:	e0c8      	b.n	80021f2 <HAL_RCC_ClockConfig+0x1a6>
  /* To correctly read data from FLASH memory, the number of wait states (LATENCY)
    must be correctly programmed according to the frequency of the CPU clock
    (HCLK) and the supply voltage of the device. */

  /* Increasing the number of wait states because of higher CPU frequency */
  if(FLatency > __HAL_FLASH_GET_LATENCY())
 8002060:	4b66      	ldr	r3, [pc, #408]	; (80021fc <HAL_RCC_ClockConfig+0x1b0>)
 8002062:	681b      	ldr	r3, [r3, #0]
 8002064:	f003 0307 	and.w	r3, r3, #7
 8002068:	683a      	ldr	r2, [r7, #0]
 800206a:	429a      	cmp	r2, r3
 800206c:	d910      	bls.n	8002090 <HAL_RCC_ClockConfig+0x44>
  {
    /* Program the new number of wait states to the LATENCY bits in the FLASH_ACR register */
    __HAL_FLASH_SET_LATENCY(FLatency);
 800206e:	4b63      	ldr	r3, [pc, #396]	; (80021fc <HAL_RCC_ClockConfig+0x1b0>)
 8002070:	681b      	ldr	r3, [r3, #0]
 8002072:	f023 0207 	bic.w	r2, r3, #7
 8002076:	4961      	ldr	r1, [pc, #388]	; (80021fc <HAL_RCC_ClockConfig+0x1b0>)
 8002078:	683b      	ldr	r3, [r7, #0]
 800207a:	4313      	orrs	r3, r2
 800207c:	600b      	str	r3, [r1, #0]

    /* Check that the new number of wait states is taken into account to access the Flash
    memory by reading the FLASH_ACR register */
    if(__HAL_FLASH_GET_LATENCY() != FLatency)
 800207e:	4b5f      	ldr	r3, [pc, #380]	; (80021fc <HAL_RCC_ClockConfig+0x1b0>)
 8002080:	681b      	ldr	r3, [r3, #0]
 8002082:	f003 0307 	and.w	r3, r3, #7
 8002086:	683a      	ldr	r2, [r7, #0]
 8002088:	429a      	cmp	r2, r3
 800208a:	d001      	beq.n	8002090 <HAL_RCC_ClockConfig+0x44>
    {
      return HAL_ERROR;
 800208c:	2301      	movs	r3, #1
 800208e:	e0b0      	b.n	80021f2 <HAL_RCC_ClockConfig+0x1a6>
    }
  }

  /*------------------------- SYSCLK Configuration ---------------------------*/
  if(((RCC_ClkInitStruct->ClockType) & RCC_CLOCKTYPE_SYSCLK) == RCC_CLOCKTYPE_SYSCLK)
 8002090:	687b      	ldr	r3, [r7, #4]
 8002092:	681b      	ldr	r3, [r3, #0]
 8002094:	f003 0301 	and.w	r3, r3, #1
 8002098:	2b00      	cmp	r3, #0
 800209a:	d04c      	beq.n	8002136 <HAL_RCC_ClockConfig+0xea>
  {
    assert_param(IS_RCC_SYSCLKSOURCE(RCC_ClkInitStruct->SYSCLKSource));

    /* PLL is selected as System Clock Source */
    if(RCC_ClkInitStruct->SYSCLKSource == RCC_SYSCLKSOURCE_PLLCLK)
 800209c:	687b      	ldr	r3, [r7, #4]
 800209e:	685b      	ldr	r3, [r3, #4]
 80020a0:	2b03      	cmp	r3, #3
 80020a2:	d107      	bne.n	80020b4 <HAL_RCC_ClockConfig+0x68>
    {
      /* Check the PLL ready flag */
      if(READ_BIT(RCC->CR, RCC_CR_PLLRDY) == 0U)
 80020a4:	4b56      	ldr	r3, [pc, #344]	; (8002200 <HAL_RCC_ClockConfig+0x1b4>)
 80020a6:	681b      	ldr	r3, [r3, #0]
 80020a8:	f003 7300 	and.w	r3, r3, #33554432	; 0x2000000
 80020ac:	2b00      	cmp	r3, #0
 80020ae:	d121      	bne.n	80020f4 <HAL_RCC_ClockConfig+0xa8>
      {
        return HAL_ERROR;
 80020b0:	2301      	movs	r3, #1
 80020b2:	e09e      	b.n	80021f2 <HAL_RCC_ClockConfig+0x1a6>
#endif
    }
    else
    {
      /* HSE is selected as System Clock Source */
      if(RCC_ClkInitStruct->SYSCLKSource == RCC_SYSCLKSOURCE_HSE)
 80020b4:	687b      	ldr	r3, [r7, #4]
 80020b6:	685b      	ldr	r3, [r3, #4]
 80020b8:	2b02      	cmp	r3, #2
 80020ba:	d107      	bne.n	80020cc <HAL_RCC_ClockConfig+0x80>
      {
        /* Check the HSE ready flag */
        if(READ_BIT(RCC->CR, RCC_CR_HSERDY) == 0U)
 80020bc:	4b50      	ldr	r3, [pc, #320]	; (8002200 <HAL_RCC_ClockConfig+0x1b4>)
 80020be:	681b      	ldr	r3, [r3, #0]
 80020c0:	f403 3300 	and.w	r3, r3, #131072	; 0x20000
 80020c4:	2b00      	cmp	r3, #0
 80020c6:	d115      	bne.n	80020f4 <HAL_RCC_ClockConfig+0xa8>
        {
          return HAL_ERROR;
 80020c8:	2301      	movs	r3, #1
 80020ca:	e092      	b.n	80021f2 <HAL_RCC_ClockConfig+0x1a6>
        }
      }
      /* MSI is selected as System Clock Source */
      else if(RCC_ClkInitStruct->SYSCLKSource == RCC_SYSCLKSOURCE_MSI)
 80020cc:	687b      	ldr	r3, [r7, #4]
 80020ce:	685b      	ldr	r3, [r3, #4]
 80020d0:	2b00      	cmp	r3, #0
 80020d2:	d107      	bne.n	80020e4 <HAL_RCC_ClockConfig+0x98>
      {
        /* Check the MSI ready flag */
        if(READ_BIT(RCC->CR, RCC_CR_MSIRDY) == 0U)
 80020d4:	4b4a      	ldr	r3, [pc, #296]	; (8002200 <HAL_RCC_ClockConfig+0x1b4>)
 80020d6:	681b      	ldr	r3, [r3, #0]
 80020d8:	f003 0302 	and.w	r3, r3, #2
 80020dc:	2b00      	cmp	r3, #0
 80020de:	d109      	bne.n	80020f4 <HAL_RCC_ClockConfig+0xa8>
        {
          return HAL_ERROR;
 80020e0:	2301      	movs	r3, #1
 80020e2:	e086      	b.n	80021f2 <HAL_RCC_ClockConfig+0x1a6>
      }
      /* HSI is selected as System Clock Source */
      else
      {
        /* Check the HSI ready flag */
        if(READ_BIT(RCC->CR, RCC_CR_HSIRDY) == 0U)
 80020e4:	4b46      	ldr	r3, [pc, #280]	; (8002200 <HAL_RCC_ClockConfig+0x1b4>)
 80020e6:	681b      	ldr	r3, [r3, #0]
 80020e8:	f403 6380 	and.w	r3, r3, #1024	; 0x400
 80020ec:	2b00      	cmp	r3, #0
 80020ee:	d101      	bne.n	80020f4 <HAL_RCC_ClockConfig+0xa8>
        {
          return HAL_ERROR;
 80020f0:	2301      	movs	r3, #1
 80020f2:	e07e      	b.n	80021f2 <HAL_RCC_ClockConfig+0x1a6>
      }
#endif

    }

    MODIFY_REG(RCC->CFGR, RCC_CFGR_SW, RCC_ClkInitStruct->SYSCLKSource);
 80020f4:	4b42      	ldr	r3, [pc, #264]	; (8002200 <HAL_RCC_ClockConfig+0x1b4>)
 80020f6:	689b      	ldr	r3, [r3, #8]
 80020f8:	f023 0203 	bic.w	r2, r3, #3
 80020fc:	687b      	ldr	r3, [r7, #4]
 80020fe:	685b      	ldr	r3, [r3, #4]
 8002100:	493f      	ldr	r1, [pc, #252]	; (8002200 <HAL_RCC_ClockConfig+0x1b4>)
 8002102:	4313      	orrs	r3, r2
 8002104:	608b      	str	r3, [r1, #8]

    /* Get Start Tick*/
    tickstart = HAL_GetTick();
 8002106:	f7fe fd1f 	bl	8000b48 <HAL_GetTick>
 800210a:	60f8      	str	r0, [r7, #12]

    while(__HAL_RCC_GET_SYSCLK_SOURCE() != (RCC_ClkInitStruct->SYSCLKSource << RCC_CFGR_SWS_Pos))
 800210c:	e00a      	b.n	8002124 <HAL_RCC_ClockConfig+0xd8>
    {
      if((HAL_GetTick() - tickstart) > CLOCKSWITCH_TIMEOUT_VALUE)
 800210e:	f7fe fd1b 	bl	8000b48 <HAL_GetTick>
 8002112:	4602      	mov	r2, r0
 8002114:	68fb      	ldr	r3, [r7, #12]
 8002116:	1ad3      	subs	r3, r2, r3
 8002118:	f241 3288 	movw	r2, #5000	; 0x1388
 800211c:	4293      	cmp	r3, r2
 800211e:	d901      	bls.n	8002124 <HAL_RCC_ClockConfig+0xd8>
      {
        return HAL_TIMEOUT;
 8002120:	2303      	movs	r3, #3
 8002122:	e066      	b.n	80021f2 <HAL_RCC_ClockConfig+0x1a6>
    while(__HAL_RCC_GET_SYSCLK_SOURCE() != (RCC_ClkInitStruct->SYSCLKSource << RCC_CFGR_SWS_Pos))
 8002124:	4b36      	ldr	r3, [pc, #216]	; (8002200 <HAL_RCC_ClockConfig+0x1b4>)
 8002126:	689b      	ldr	r3, [r3, #8]
 8002128:	f003 020c 	and.w	r2, r3, #12
 800212c:	687b      	ldr	r3, [r7, #4]
 800212e:	685b      	ldr	r3, [r3, #4]
 8002130:	009b      	lsls	r3, r3, #2
 8002132:	429a      	cmp	r2, r3
 8002134:	d1eb      	bne.n	800210e <HAL_RCC_ClockConfig+0xc2>
      }
    }
  }

  /*-------------------------- HCLK Configuration --------------------------*/
  if(((RCC_ClkInitStruct->ClockType) & RCC_CLOCKTYPE_HCLK) == RCC_CLOCKTYPE_HCLK)
 8002136:	687b      	ldr	r3, [r7, #4]
 8002138:	681b      	ldr	r3, [r3, #0]
 800213a:	f003 0302 	and.w	r3, r3, #2
 800213e:	2b00      	cmp	r3, #0
 8002140:	d008      	beq.n	8002154 <HAL_RCC_ClockConfig+0x108>
  {
    assert_param(IS_RCC_HCLK(RCC_ClkInitStruct->AHBCLKDivider));
    MODIFY_REG(RCC->CFGR, RCC_CFGR_HPRE, RCC_ClkInitStruct->AHBCLKDivider);
 8002142:	4b2f      	ldr	r3, [pc, #188]	; (8002200 <HAL_RCC_ClockConfig+0x1b4>)
 8002144:	689b      	ldr	r3, [r3, #8]
 8002146:	f023 02f0 	bic.w	r2, r3, #240	; 0xf0
 800214a:	687b      	ldr	r3, [r7, #4]
 800214c:	689b      	ldr	r3, [r3, #8]
 800214e:	492c      	ldr	r1, [pc, #176]	; (8002200 <HAL_RCC_ClockConfig+0x1b4>)
 8002150:	4313      	orrs	r3, r2
 8002152:	608b      	str	r3, [r1, #8]
    }
  }
#endif

  /* Decreasing the number of wait states because of lower CPU frequency */
  if(FLatency < __HAL_FLASH_GET_LATENCY())
 8002154:	4b29      	ldr	r3, [pc, #164]	; (80021fc <HAL_RCC_ClockConfig+0x1b0>)
 8002156:	681b      	ldr	r3, [r3, #0]
 8002158:	f003 0307 	and.w	r3, r3, #7
 800215c:	683a      	ldr	r2, [r7, #0]
 800215e:	429a      	cmp	r2, r3
 8002160:	d210      	bcs.n	8002184 <HAL_RCC_ClockConfig+0x138>
  {
    /* Program the new number of wait states to the LATENCY bits in the FLASH_ACR register */
    __HAL_FLASH_SET_LATENCY(FLatency);
 8002162:	4b26      	ldr	r3, [pc, #152]	; (80021fc <HAL_RCC_ClockConfig+0x1b0>)
 8002164:	681b      	ldr	r3, [r3, #0]
 8002166:	f023 0207 	bic.w	r2, r3, #7
 800216a:	4924      	ldr	r1, [pc, #144]	; (80021fc <HAL_RCC_ClockConfig+0x1b0>)
 800216c:	683b      	ldr	r3, [r7, #0]
 800216e:	4313      	orrs	r3, r2
 8002170:	600b      	str	r3, [r1, #0]

    /* Check that the new number of wait states is taken into account to access the Flash
    memory by reading the FLASH_ACR register */
    if(__HAL_FLASH_GET_LATENCY() != FLatency)
 8002172:	4b22      	ldr	r3, [pc, #136]	; (80021fc <HAL_RCC_ClockConfig+0x1b0>)
 8002174:	681b      	ldr	r3, [r3, #0]
 8002176:	f003 0307 	and.w	r3, r3, #7
 800217a:	683a      	ldr	r2, [r7, #0]
 800217c:	429a      	cmp	r2, r3
 800217e:	d001      	beq.n	8002184 <HAL_RCC_ClockConfig+0x138>
    {
      return HAL_ERROR;
 8002180:	2301      	movs	r3, #1
 8002182:	e036      	b.n	80021f2 <HAL_RCC_ClockConfig+0x1a6>
    }
  }

  /*-------------------------- PCLK1 Configuration ---------------------------*/
  if(((RCC_ClkInitStruct->ClockType) & RCC_CLOCKTYPE_PCLK1) == RCC_CLOCKTYPE_PCLK1)
 8002184:	687b      	ldr	r3, [r7, #4]
 8002186:	681b      	ldr	r3, [r3, #0]
 8002188:	f003 0304 	and.w	r3, r3, #4
 800218c:	2b00      	cmp	r3, #0
 800218e:	d008      	beq.n	80021a2 <HAL_RCC_ClockConfig+0x156>
  {
    assert_param(IS_RCC_PCLK(RCC_ClkInitStruct->APB1CLKDivider));
    MODIFY_REG(RCC->CFGR, RCC_CFGR_PPRE1, RCC_ClkInitStruct->APB1CLKDivider);
 8002190:	4b1b      	ldr	r3, [pc, #108]	; (8002200 <HAL_RCC_ClockConfig+0x1b4>)
 8002192:	689b      	ldr	r3, [r3, #8]
 8002194:	f423 62e0 	bic.w	r2, r3, #1792	; 0x700
 8002198:	687b      	ldr	r3, [r7, #4]
 800219a:	68db      	ldr	r3, [r3, #12]
 800219c:	4918      	ldr	r1, [pc, #96]	; (8002200 <HAL_RCC_ClockConfig+0x1b4>)
 800219e:	4313      	orrs	r3, r2
 80021a0:	608b      	str	r3, [r1, #8]
  }

  /*-------------------------- PCLK2 Configuration ---------------------------*/
  if(((RCC_ClkInitStruct->ClockType) & RCC_CLOCKTYPE_PCLK2) == RCC_CLOCKTYPE_PCLK2)
 80021a2:	687b      	ldr	r3, [r7, #4]
 80021a4:	681b      	ldr	r3, [r3, #0]
 80021a6:	f003 0308 	and.w	r3, r3, #8
 80021aa:	2b00      	cmp	r3, #0
 80021ac:	d009      	beq.n	80021c2 <HAL_RCC_ClockConfig+0x176>
  {
    assert_param(IS_RCC_PCLK(RCC_ClkInitStruct->APB2CLKDivider));
    MODIFY_REG(RCC->CFGR, RCC_CFGR_PPRE2, ((RCC_ClkInitStruct->APB2CLKDivider) << 3U));
 80021ae:	4b14      	ldr	r3, [pc, #80]	; (8002200 <HAL_RCC_ClockConfig+0x1b4>)
 80021b0:	689b      	ldr	r3, [r3, #8]
 80021b2:	f423 5260 	bic.w	r2, r3, #14336	; 0x3800
 80021b6:	687b      	ldr	r3, [r7, #4]
 80021b8:	691b      	ldr	r3, [r3, #16]
 80021ba:	00db      	lsls	r3, r3, #3
 80021bc:	4910      	ldr	r1, [pc, #64]	; (8002200 <HAL_RCC_ClockConfig+0x1b4>)
 80021be:	4313      	orrs	r3, r2
 80021c0:	608b      	str	r3, [r1, #8]
  }

  /* Update the SystemCoreClock global variable */
  SystemCoreClock = HAL_RCC_GetSysClockFreq() >> (AHBPrescTable[READ_BIT(RCC->CFGR, RCC_CFGR_HPRE) >> RCC_CFGR_HPRE_Pos] & 0x1FU);
 80021c2:	f000 f825 	bl	8002210 <HAL_RCC_GetSysClockFreq>
 80021c6:	4602      	mov	r2, r0
 80021c8:	4b0d      	ldr	r3, [pc, #52]	; (8002200 <HAL_RCC_ClockConfig+0x1b4>)
 80021ca:	689b      	ldr	r3, [r3, #8]
 80021cc:	091b      	lsrs	r3, r3, #4
 80021ce:	f003 030f 	and.w	r3, r3, #15
 80021d2:	490c      	ldr	r1, [pc, #48]	; (8002204 <HAL_RCC_ClockConfig+0x1b8>)
 80021d4:	5ccb      	ldrb	r3, [r1, r3]
 80021d6:	f003 031f 	and.w	r3, r3, #31
 80021da:	fa22 f303 	lsr.w	r3, r2, r3
 80021de:	4a0a      	ldr	r2, [pc, #40]	; (8002208 <HAL_RCC_ClockConfig+0x1bc>)
 80021e0:	6013      	str	r3, [r2, #0]

  /* Configure the source of time base considering new system clocks settings*/
  status = HAL_InitTick(uwTickPrio);
 80021e2:	4b0a      	ldr	r3, [pc, #40]	; (800220c <HAL_RCC_ClockConfig+0x1c0>)
 80021e4:	681b      	ldr	r3, [r3, #0]
 80021e6:	4618      	mov	r0, r3
 80021e8:	f7fe fc5e 	bl	8000aa8 <HAL_InitTick>
 80021ec:	4603      	mov	r3, r0
 80021ee:	72fb      	strb	r3, [r7, #11]

  return status;
 80021f0:	7afb      	ldrb	r3, [r7, #11]
}
 80021f2:	4618      	mov	r0, r3
 80021f4:	3710      	adds	r7, #16
 80021f6:	46bd      	mov	sp, r7
 80021f8:	bd80      	pop	{r7, pc}
 80021fa:	bf00      	nop
 80021fc:	40022000 	.word	0x40022000
 8002200:	40021000 	.word	0x40021000
 8002204:	080036c0 	.word	0x080036c0
 8002208:	20000000 	.word	0x20000000
 800220c:	20000004 	.word	0x20000004

08002210 <HAL_RCC_GetSysClockFreq>:
  *
  *
  * @retval SYSCLK frequency
  */
uint32_t HAL_RCC_GetSysClockFreq(void)
{
 8002210:	b480      	push	{r7}
 8002212:	b089      	sub	sp, #36	; 0x24
 8002214:	af00      	add	r7, sp, #0
  uint32_t msirange = 0U, sysclockfreq = 0U;
 8002216:	2300      	movs	r3, #0
 8002218:	61fb      	str	r3, [r7, #28]
 800221a:	2300      	movs	r3, #0
 800221c:	61bb      	str	r3, [r7, #24]
  uint32_t pllvco, pllsource, pllr, pllm;    /* no init needed */
  uint32_t sysclk_source, pll_oscsource;

  sysclk_source = __HAL_RCC_GET_SYSCLK_SOURCE();
 800221e:	4b3e      	ldr	r3, [pc, #248]	; (8002318 <HAL_RCC_GetSysClockFreq+0x108>)
 8002220:	689b      	ldr	r3, [r3, #8]
 8002222:	f003 030c 	and.w	r3, r3, #12
 8002226:	613b      	str	r3, [r7, #16]
  pll_oscsource = __HAL_RCC_GET_PLL_OSCSOURCE();
 8002228:	4b3b      	ldr	r3, [pc, #236]	; (8002318 <HAL_RCC_GetSysClockFreq+0x108>)
 800222a:	68db      	ldr	r3, [r3, #12]
 800222c:	f003 0303 	and.w	r3, r3, #3
 8002230:	60fb      	str	r3, [r7, #12]

  if((sysclk_source == RCC_CFGR_SWS_MSI) ||
 8002232:	693b      	ldr	r3, [r7, #16]
 8002234:	2b00      	cmp	r3, #0
 8002236:	d005      	beq.n	8002244 <HAL_RCC_GetSysClockFreq+0x34>
 8002238:	693b      	ldr	r3, [r7, #16]
 800223a:	2b0c      	cmp	r3, #12
 800223c:	d121      	bne.n	8002282 <HAL_RCC_GetSysClockFreq+0x72>
     ((sysclk_source == RCC_CFGR_SWS_PLL) && (pll_oscsource == RCC_PLLSOURCE_MSI)))
 800223e:	68fb      	ldr	r3, [r7, #12]
 8002240:	2b01      	cmp	r3, #1
 8002242:	d11e      	bne.n	8002282 <HAL_RCC_GetSysClockFreq+0x72>
  {
    /* MSI or PLL with MSI source used as system clock source */

    /* Get SYSCLK source */
    if(READ_BIT(RCC->CR, RCC_CR_MSIRGSEL) == 0U)
 8002244:	4b34      	ldr	r3, [pc, #208]	; (8002318 <HAL_RCC_GetSysClockFreq+0x108>)
 8002246:	681b      	ldr	r3, [r3, #0]
 8002248:	f003 0308 	and.w	r3, r3, #8
 800224c:	2b00      	cmp	r3, #0
 800224e:	d107      	bne.n	8002260 <HAL_RCC_GetSysClockFreq+0x50>
    { /* MSISRANGE from RCC_CSR applies */
      msirange = READ_BIT(RCC->CSR, RCC_CSR_MSISRANGE) >> RCC_CSR_MSISRANGE_Pos;
 8002250:	4b31      	ldr	r3, [pc, #196]	; (8002318 <HAL_RCC_GetSysClockFreq+0x108>)
 8002252:	f8d3 3094 	ldr.w	r3, [r3, #148]	; 0x94
 8002256:	0a1b      	lsrs	r3, r3, #8
 8002258:	f003 030f 	and.w	r3, r3, #15
 800225c:	61fb      	str	r3, [r7, #28]
 800225e:	e005      	b.n	800226c <HAL_RCC_GetSysClockFreq+0x5c>
    }
    else
    { /* MSIRANGE from RCC_CR applies */
      msirange = READ_BIT(RCC->CR, RCC_CR_MSIRANGE) >> RCC_CR_MSIRANGE_Pos;
 8002260:	4b2d      	ldr	r3, [pc, #180]	; (8002318 <HAL_RCC_GetSysClockFreq+0x108>)
 8002262:	681b      	ldr	r3, [r3, #0]
 8002264:	091b      	lsrs	r3, r3, #4
 8002266:	f003 030f 	and.w	r3, r3, #15
 800226a:	61fb      	str	r3, [r7, #28]
    }
    /*MSI frequency range in HZ*/
    msirange = MSIRangeTable[msirange];
 800226c:	4a2b      	ldr	r2, [pc, #172]	; (800231c <HAL_RCC_GetSysClockFreq+0x10c>)
 800226e:	69fb      	ldr	r3, [r7, #28]
 8002270:	f852 3023 	ldr.w	r3, [r2, r3, lsl #2]
 8002274:	61fb      	str	r3, [r7, #28]

    if(sysclk_source == RCC_CFGR_SWS_MSI)
 8002276:	693b      	ldr	r3, [r7, #16]
 8002278:	2b00      	cmp	r3, #0
 800227a:	d10d      	bne.n	8002298 <HAL_RCC_GetSysClockFreq+0x88>
    {
      /* MSI used as system clock source */
      sysclockfreq = msirange;
 800227c:	69fb      	ldr	r3, [r7, #28]
 800227e:	61bb      	str	r3, [r7, #24]
    if(sysclk_source == RCC_CFGR_SWS_MSI)
 8002280:	e00a      	b.n	8002298 <HAL_RCC_GetSysClockFreq+0x88>
    }
  }
  else if(sysclk_source == RCC_CFGR_SWS_HSI)
 8002282:	693b      	ldr	r3, [r7, #16]
 8002284:	2b04      	cmp	r3, #4
 8002286:	d102      	bne.n	800228e <HAL_RCC_GetSysClockFreq+0x7e>
  {
    /* HSI used as system clock source */
    sysclockfreq = HSI_VALUE;
 8002288:	4b25      	ldr	r3, [pc, #148]	; (8002320 <HAL_RCC_GetSysClockFreq+0x110>)
 800228a:	61bb      	str	r3, [r7, #24]
 800228c:	e004      	b.n	8002298 <HAL_RCC_GetSysClockFreq+0x88>
  }
  else if(sysclk_source == RCC_CFGR_SWS_HSE)
 800228e:	693b      	ldr	r3, [r7, #16]
 8002290:	2b08      	cmp	r3, #8
 8002292:	d101      	bne.n	8002298 <HAL_RCC_GetSysClockFreq+0x88>
  {
    /* HSE used as system clock source */
    sysclockfreq = HSE_VALUE;
 8002294:	4b23      	ldr	r3, [pc, #140]	; (8002324 <HAL_RCC_GetSysClockFreq+0x114>)
 8002296:	61bb      	str	r3, [r7, #24]
  else
  {
    /* unexpected case: sysclockfreq at 0 */
  }

  if(sysclk_source == RCC_CFGR_SWS_PLL)
 8002298:	693b      	ldr	r3, [r7, #16]
 800229a:	2b0c      	cmp	r3, #12
 800229c:	d134      	bne.n	8002308 <HAL_RCC_GetSysClockFreq+0xf8>
    /* PLL used as system clock  source */

    /* PLL_VCO = (HSE_VALUE or HSI_VALUE or MSI_VALUE) * PLLN / PLLM
    SYSCLK = PLL_VCO / PLLR
    */
    pllsource = READ_BIT(RCC->PLLCFGR, RCC_PLLCFGR_PLLSRC);
 800229e:	4b1e      	ldr	r3, [pc, #120]	; (8002318 <HAL_RCC_GetSysClockFreq+0x108>)
 80022a0:	68db      	ldr	r3, [r3, #12]
 80022a2:	f003 0303 	and.w	r3, r3, #3
 80022a6:	60bb      	str	r3, [r7, #8]

    switch (pllsource)
 80022a8:	68bb      	ldr	r3, [r7, #8]
 80022aa:	2b02      	cmp	r3, #2
 80022ac:	d003      	beq.n	80022b6 <HAL_RCC_GetSysClockFreq+0xa6>
 80022ae:	68bb      	ldr	r3, [r7, #8]
 80022b0:	2b03      	cmp	r3, #3
 80022b2:	d003      	beq.n	80022bc <HAL_RCC_GetSysClockFreq+0xac>
 80022b4:	e005      	b.n	80022c2 <HAL_RCC_GetSysClockFreq+0xb2>
    {
    case RCC_PLLSOURCE_HSI:  /* HSI used as PLL clock source */
      pllvco = HSI_VALUE;
 80022b6:	4b1a      	ldr	r3, [pc, #104]	; (8002320 <HAL_RCC_GetSysClockFreq+0x110>)
 80022b8:	617b      	str	r3, [r7, #20]
      break;
 80022ba:	e005      	b.n	80022c8 <HAL_RCC_GetSysClockFreq+0xb8>

    case RCC_PLLSOURCE_HSE:  /* HSE used as PLL clock source */
      pllvco = HSE_VALUE;
 80022bc:	4b19      	ldr	r3, [pc, #100]	; (8002324 <HAL_RCC_GetSysClockFreq+0x114>)
 80022be:	617b      	str	r3, [r7, #20]
      break;
 80022c0:	e002      	b.n	80022c8 <HAL_RCC_GetSysClockFreq+0xb8>

    case RCC_PLLSOURCE_MSI:  /* MSI used as PLL clock source */
    default:
      pllvco = msirange;
 80022c2:	69fb      	ldr	r3, [r7, #28]
 80022c4:	617b      	str	r3, [r7, #20]
      break;
 80022c6:	bf00      	nop
    }
    pllm = (READ_BIT(RCC->PLLCFGR, RCC_PLLCFGR_PLLM) >> RCC_PLLCFGR_PLLM_Pos) + 1U ;
 80022c8:	4b13      	ldr	r3, [pc, #76]	; (8002318 <HAL_RCC_GetSysClockFreq+0x108>)
 80022ca:	68db      	ldr	r3, [r3, #12]
 80022cc:	091b      	lsrs	r3, r3, #4
 80022ce:	f003 0307 	and.w	r3, r3, #7
 80022d2:	3301      	adds	r3, #1
 80022d4:	607b      	str	r3, [r7, #4]
    pllvco = (pllvco * (READ_BIT(RCC->PLLCFGR, RCC_PLLCFGR_PLLN) >> RCC_PLLCFGR_PLLN_Pos)) / pllm;
 80022d6:	4b10      	ldr	r3, [pc, #64]	; (8002318 <HAL_RCC_GetSysClockFreq+0x108>)
 80022d8:	68db      	ldr	r3, [r3, #12]
 80022da:	0a1b      	lsrs	r3, r3, #8
 80022dc:	f003 037f 	and.w	r3, r3, #127	; 0x7f
 80022e0:	697a      	ldr	r2, [r7, #20]
 80022e2:	fb02 f203 	mul.w	r2, r2, r3
 80022e6:	687b      	ldr	r3, [r7, #4]
 80022e8:	fbb2 f3f3 	udiv	r3, r2, r3
 80022ec:	617b      	str	r3, [r7, #20]
    pllr = ((READ_BIT(RCC->PLLCFGR, RCC_PLLCFGR_PLLR) >> RCC_PLLCFGR_PLLR_Pos) + 1U ) * 2U;
 80022ee:	4b0a      	ldr	r3, [pc, #40]	; (8002318 <HAL_RCC_GetSysClockFreq+0x108>)
 80022f0:	68db      	ldr	r3, [r3, #12]
 80022f2:	0e5b      	lsrs	r3, r3, #25
 80022f4:	f003 0303 	and.w	r3, r3, #3
 80022f8:	3301      	adds	r3, #1
 80022fa:	005b      	lsls	r3, r3, #1
 80022fc:	603b      	str	r3, [r7, #0]
    sysclockfreq = pllvco / pllr;
 80022fe:	697a      	ldr	r2, [r7, #20]
 8002300:	683b      	ldr	r3, [r7, #0]
 8002302:	fbb2 f3f3 	udiv	r3, r2, r3
 8002306:	61bb      	str	r3, [r7, #24]
  }

  return sysclockfreq;
 8002308:	69bb      	ldr	r3, [r7, #24]
}
 800230a:	4618      	mov	r0, r3
 800230c:	3724      	adds	r7, #36	; 0x24
 800230e:	46bd      	mov	sp, r7
 8002310:	f85d 7b04 	ldr.w	r7, [sp], #4
 8002314:	4770      	bx	lr
 8002316:	bf00      	nop
 8002318:	40021000 	.word	0x40021000
 800231c:	080036d8 	.word	0x080036d8
 8002320:	00f42400 	.word	0x00f42400
 8002324:	007a1200 	.word	0x007a1200

08002328 <HAL_RCC_GetHCLKFreq>:
  *
  * @note   The SystemCoreClock CMSIS variable is used to store System Clock Frequency.
  * @retval HCLK frequency in Hz
  */
uint32_t HAL_RCC_GetHCLKFreq(void)
{
 8002328:	b480      	push	{r7}
 800232a:	af00      	add	r7, sp, #0
  return SystemCoreClock;
 800232c:	4b03      	ldr	r3, [pc, #12]	; (800233c <HAL_RCC_GetHCLKFreq+0x14>)
 800232e:	681b      	ldr	r3, [r3, #0]
}
 8002330:	4618      	mov	r0, r3
 8002332:	46bd      	mov	sp, r7
 8002334:	f85d 7b04 	ldr.w	r7, [sp], #4
 8002338:	4770      	bx	lr
 800233a:	bf00      	nop
 800233c:	20000000 	.word	0x20000000

08002340 <HAL_RCC_GetPCLK1Freq>:
  * @note   Each time PCLK1 changes, this function must be called to update the
  *         right PCLK1 value. Otherwise, any configuration based on this function will be incorrect.
  * @retval PCLK1 frequency in Hz
  */
uint32_t HAL_RCC_GetPCLK1Freq(void)
{
 8002340:	b580      	push	{r7, lr}
 8002342:	af00      	add	r7, sp, #0
  /* Get HCLK source and Compute PCLK1 frequency ---------------------------*/
  return (HAL_RCC_GetHCLKFreq() >> (APBPrescTable[READ_BIT(RCC->CFGR, RCC_CFGR_PPRE1) >> RCC_CFGR_PPRE1_Pos] & 0x1FU));
 8002344:	f7ff fff0 	bl	8002328 <HAL_RCC_GetHCLKFreq>
 8002348:	4602      	mov	r2, r0
 800234a:	4b06      	ldr	r3, [pc, #24]	; (8002364 <HAL_RCC_GetPCLK1Freq+0x24>)
 800234c:	689b      	ldr	r3, [r3, #8]
 800234e:	0a1b      	lsrs	r3, r3, #8
 8002350:	f003 0307 	and.w	r3, r3, #7
 8002354:	4904      	ldr	r1, [pc, #16]	; (8002368 <HAL_RCC_GetPCLK1Freq+0x28>)
 8002356:	5ccb      	ldrb	r3, [r1, r3]
 8002358:	f003 031f 	and.w	r3, r3, #31
 800235c:	fa22 f303 	lsr.w	r3, r2, r3
}
 8002360:	4618      	mov	r0, r3
 8002362:	bd80      	pop	{r7, pc}
 8002364:	40021000 	.word	0x40021000
 8002368:	080036d0 	.word	0x080036d0

0800236c <HAL_RCC_GetPCLK2Freq>:
  * @note   Each time PCLK2 changes, this function must be called to update the
  *         right PCLK2 value. Otherwise, any configuration based on this function will be incorrect.
  * @retval PCLK2 frequency in Hz
  */
uint32_t HAL_RCC_GetPCLK2Freq(void)
{
 800236c:	b580      	push	{r7, lr}
 800236e:	af00      	add	r7, sp, #0
  /* Get HCLK source and Compute PCLK2 frequency ---------------------------*/
  return (HAL_RCC_GetHCLKFreq()>> (APBPrescTable[READ_BIT(RCC->CFGR, RCC_CFGR_PPRE2) >> RCC_CFGR_PPRE2_Pos] & 0x1FU));
 8002370:	f7ff ffda 	bl	8002328 <HAL_RCC_GetHCLKFreq>
 8002374:	4602      	mov	r2, r0
 8002376:	4b06      	ldr	r3, [pc, #24]	; (8002390 <HAL_RCC_GetPCLK2Freq+0x24>)
 8002378:	689b      	ldr	r3, [r3, #8]
 800237a:	0adb      	lsrs	r3, r3, #11
 800237c:	f003 0307 	and.w	r3, r3, #7
 8002380:	4904      	ldr	r1, [pc, #16]	; (8002394 <HAL_RCC_GetPCLK2Freq+0x28>)
 8002382:	5ccb      	ldrb	r3, [r1, r3]
 8002384:	f003 031f 	and.w	r3, r3, #31
 8002388:	fa22 f303 	lsr.w	r3, r2, r3
}
 800238c:	4618      	mov	r0, r3
 800238e:	bd80      	pop	{r7, pc}
 8002390:	40021000 	.word	0x40021000
 8002394:	080036d0 	.word	0x080036d0

08002398 <RCC_SetFlashLatencyFromMSIRange>:
            voltage range.
  * @param  msirange  MSI range value from RCC_MSIRANGE_0 to RCC_MSIRANGE_11
  * @retval HAL status
  */
static HAL_StatusTypeDef RCC_SetFlashLatencyFromMSIRange(uint32_t msirange)
{
 8002398:	b580      	push	{r7, lr}
 800239a:	b086      	sub	sp, #24
 800239c:	af00      	add	r7, sp, #0
 800239e:	6078      	str	r0, [r7, #4]
  uint32_t vos;
  uint32_t latency = FLASH_LATENCY_0;  /* default value 0WS */
 80023a0:	2300      	movs	r3, #0
 80023a2:	613b      	str	r3, [r7, #16]

  if(__HAL_RCC_PWR_IS_CLK_ENABLED())
 80023a4:	4b2a      	ldr	r3, [pc, #168]	; (8002450 <RCC_SetFlashLatencyFromMSIRange+0xb8>)
 80023a6:	6d9b      	ldr	r3, [r3, #88]	; 0x58
 80023a8:	f003 5380 	and.w	r3, r3, #268435456	; 0x10000000
 80023ac:	2b00      	cmp	r3, #0
 80023ae:	d003      	beq.n	80023b8 <RCC_SetFlashLatencyFromMSIRange+0x20>
  {
    vos = HAL_PWREx_GetVoltageRange();
 80023b0:	f7ff fa02 	bl	80017b8 <HAL_PWREx_GetVoltageRange>
 80023b4:	6178      	str	r0, [r7, #20]
 80023b6:	e014      	b.n	80023e2 <RCC_SetFlashLatencyFromMSIRange+0x4a>
  }
  else
  {
    __HAL_RCC_PWR_CLK_ENABLE();
 80023b8:	4b25      	ldr	r3, [pc, #148]	; (8002450 <RCC_SetFlashLatencyFromMSIRange+0xb8>)
 80023ba:	6d9b      	ldr	r3, [r3, #88]	; 0x58
 80023bc:	4a24      	ldr	r2, [pc, #144]	; (8002450 <RCC_SetFlashLatencyFromMSIRange+0xb8>)
 80023be:	f043 5380 	orr.w	r3, r3, #268435456	; 0x10000000
 80023c2:	6593      	str	r3, [r2, #88]	; 0x58
 80023c4:	4b22      	ldr	r3, [pc, #136]	; (8002450 <RCC_SetFlashLatencyFromMSIRange+0xb8>)
 80023c6:	6d9b      	ldr	r3, [r3, #88]	; 0x58
 80023c8:	f003 5380 	and.w	r3, r3, #268435456	; 0x10000000
 80023cc:	60fb      	str	r3, [r7, #12]
 80023ce:	68fb      	ldr	r3, [r7, #12]
    vos = HAL_PWREx_GetVoltageRange();
 80023d0:	f7ff f9f2 	bl	80017b8 <HAL_PWREx_GetVoltageRange>
 80023d4:	6178      	str	r0, [r7, #20]
    __HAL_RCC_PWR_CLK_DISABLE();
 80023d6:	4b1e      	ldr	r3, [pc, #120]	; (8002450 <RCC_SetFlashLatencyFromMSIRange+0xb8>)
 80023d8:	6d9b      	ldr	r3, [r3, #88]	; 0x58
 80023da:	4a1d      	ldr	r2, [pc, #116]	; (8002450 <RCC_SetFlashLatencyFromMSIRange+0xb8>)
 80023dc:	f023 5380 	bic.w	r3, r3, #268435456	; 0x10000000
 80023e0:	6593      	str	r3, [r2, #88]	; 0x58
  }

  if(vos == PWR_REGULATOR_VOLTAGE_SCALE1)
 80023e2:	697b      	ldr	r3, [r7, #20]
 80023e4:	f5b3 7f00 	cmp.w	r3, #512	; 0x200
 80023e8:	d10b      	bne.n	8002402 <RCC_SetFlashLatencyFromMSIRange+0x6a>
  {
    if(msirange > RCC_MSIRANGE_8)
 80023ea:	687b      	ldr	r3, [r7, #4]
 80023ec:	2b80      	cmp	r3, #128	; 0x80
 80023ee:	d919      	bls.n	8002424 <RCC_SetFlashLatencyFromMSIRange+0x8c>
    {
      /* MSI > 16Mhz */
      if(msirange > RCC_MSIRANGE_10)
 80023f0:	687b      	ldr	r3, [r7, #4]
 80023f2:	2ba0      	cmp	r3, #160	; 0xa0
 80023f4:	d902      	bls.n	80023fc <RCC_SetFlashLatencyFromMSIRange+0x64>
      {
        /* MSI 48Mhz */
        latency = FLASH_LATENCY_2; /* 2WS */
 80023f6:	2302      	movs	r3, #2
 80023f8:	613b      	str	r3, [r7, #16]
 80023fa:	e013      	b.n	8002424 <RCC_SetFlashLatencyFromMSIRange+0x8c>
      }
      else
      {
        /* MSI 24Mhz or 32Mhz */
        latency = FLASH_LATENCY_1; /* 1WS */
 80023fc:	2301      	movs	r3, #1
 80023fe:	613b      	str	r3, [r7, #16]
 8002400:	e010      	b.n	8002424 <RCC_SetFlashLatencyFromMSIRange+0x8c>
        latency = FLASH_LATENCY_1; /* 1WS */
      }
      /* else MSI < 8Mhz default FLASH_LATENCY_0 0WS */
    }
#else
    if(msirange > RCC_MSIRANGE_8)
 8002402:	687b      	ldr	r3, [r7, #4]
 8002404:	2b80      	cmp	r3, #128	; 0x80
 8002406:	d902      	bls.n	800240e <RCC_SetFlashLatencyFromMSIRange+0x76>
    {
      /* MSI > 16Mhz */
      latency = FLASH_LATENCY_3; /* 3WS */
 8002408:	2303      	movs	r3, #3
 800240a:	613b      	str	r3, [r7, #16]
 800240c:	e00a      	b.n	8002424 <RCC_SetFlashLatencyFromMSIRange+0x8c>
    }
    else
    {
      if(msirange == RCC_MSIRANGE_8)
 800240e:	687b      	ldr	r3, [r7, #4]
 8002410:	2b80      	cmp	r3, #128	; 0x80
 8002412:	d102      	bne.n	800241a <RCC_SetFlashLatencyFromMSIRange+0x82>
      {
        /* MSI 16Mhz */
        latency = FLASH_LATENCY_2; /* 2WS */
 8002414:	2302      	movs	r3, #2
 8002416:	613b      	str	r3, [r7, #16]
 8002418:	e004      	b.n	8002424 <RCC_SetFlashLatencyFromMSIRange+0x8c>
      }
      else if(msirange == RCC_MSIRANGE_7)
 800241a:	687b      	ldr	r3, [r7, #4]
 800241c:	2b70      	cmp	r3, #112	; 0x70
 800241e:	d101      	bne.n	8002424 <RCC_SetFlashLatencyFromMSIRange+0x8c>
      {
        /* MSI 8Mhz */
        latency = FLASH_LATENCY_1; /* 1WS */
 8002420:	2301      	movs	r3, #1
 8002422:	613b      	str	r3, [r7, #16]
      /* else MSI < 8Mhz default FLASH_LATENCY_0 0WS */
    }
#endif
  }

  __HAL_FLASH_SET_LATENCY(latency);
 8002424:	4b0b      	ldr	r3, [pc, #44]	; (8002454 <RCC_SetFlashLatencyFromMSIRange+0xbc>)
 8002426:	681b      	ldr	r3, [r3, #0]
 8002428:	f023 0207 	bic.w	r2, r3, #7
 800242c:	4909      	ldr	r1, [pc, #36]	; (8002454 <RCC_SetFlashLatencyFromMSIRange+0xbc>)
 800242e:	693b      	ldr	r3, [r7, #16]
 8002430:	4313      	orrs	r3, r2
 8002432:	600b      	str	r3, [r1, #0]

  /* Check that the new number of wait states is taken into account to access the Flash
     memory by reading the FLASH_ACR register */
  if(__HAL_FLASH_GET_LATENCY() != latency)
 8002434:	4b07      	ldr	r3, [pc, #28]	; (8002454 <RCC_SetFlashLatencyFromMSIRange+0xbc>)
 8002436:	681b      	ldr	r3, [r3, #0]
 8002438:	f003 0307 	and.w	r3, r3, #7
 800243c:	693a      	ldr	r2, [r7, #16]
 800243e:	429a      	cmp	r2, r3
 8002440:	d001      	beq.n	8002446 <RCC_SetFlashLatencyFromMSIRange+0xae>
  {
    return HAL_ERROR;
 8002442:	2301      	movs	r3, #1
 8002444:	e000      	b.n	8002448 <RCC_SetFlashLatencyFromMSIRange+0xb0>
  }

  return HAL_OK;
 8002446:	2300      	movs	r3, #0
}
 8002448:	4618      	mov	r0, r3
 800244a:	3718      	adds	r7, #24
 800244c:	46bd      	mov	sp, r7
 800244e:	bd80      	pop	{r7, pc}
 8002450:	40021000 	.word	0x40021000
 8002454:	40022000 	.word	0x40022000

08002458 <HAL_RCCEx_PeriphCLKConfig>:
  *         the RTC clock source: in this case the access to Backup domain is enabled.
  *
  * @retval HAL status
  */
HAL_StatusTypeDef HAL_RCCEx_PeriphCLKConfig(RCC_PeriphCLKInitTypeDef  *PeriphClkInit)
{
 8002458:	b580      	push	{r7, lr}
 800245a:	b086      	sub	sp, #24
 800245c:	af00      	add	r7, sp, #0
 800245e:	6078      	str	r0, [r7, #4]
  uint32_t tmpregister, tickstart;     /* no init needed */
  HAL_StatusTypeDef ret = HAL_OK;      /* Intermediate status */
 8002460:	2300      	movs	r3, #0
 8002462:	74fb      	strb	r3, [r7, #19]
  HAL_StatusTypeDef status = HAL_OK;   /* Final status */
 8002464:	2300      	movs	r3, #0
 8002466:	74bb      	strb	r3, [r7, #18]
  assert_param(IS_RCC_PERIPHCLOCK(PeriphClkInit->PeriphClockSelection));

#if defined(SAI1)

  /*-------------------------- SAI1 clock source configuration ---------------------*/
  if((((PeriphClkInit->PeriphClockSelection) & RCC_PERIPHCLK_SAI1) == RCC_PERIPHCLK_SAI1))
 8002468:	687b      	ldr	r3, [r7, #4]
 800246a:	681b      	ldr	r3, [r3, #0]
 800246c:	f403 6300 	and.w	r3, r3, #2048	; 0x800
 8002470:	2b00      	cmp	r3, #0
 8002472:	d041      	beq.n	80024f8 <HAL_RCCEx_PeriphCLKConfig+0xa0>
  {
    /* Check the parameters */
    assert_param(IS_RCC_SAI1CLK(PeriphClkInit->Sai1ClockSelection));

    switch(PeriphClkInit->Sai1ClockSelection)
 8002474:	687b      	ldr	r3, [r7, #4]
 8002476:	6e5b      	ldr	r3, [r3, #100]	; 0x64
 8002478:	f5b3 0f40 	cmp.w	r3, #12582912	; 0xc00000
 800247c:	d02a      	beq.n	80024d4 <HAL_RCCEx_PeriphCLKConfig+0x7c>
 800247e:	f5b3 0f40 	cmp.w	r3, #12582912	; 0xc00000
 8002482:	d824      	bhi.n	80024ce <HAL_RCCEx_PeriphCLKConfig+0x76>
 8002484:	f5b3 0f00 	cmp.w	r3, #8388608	; 0x800000
 8002488:	d008      	beq.n	800249c <HAL_RCCEx_PeriphCLKConfig+0x44>
 800248a:	f5b3 0f00 	cmp.w	r3, #8388608	; 0x800000
 800248e:	d81e      	bhi.n	80024ce <HAL_RCCEx_PeriphCLKConfig+0x76>
 8002490:	2b00      	cmp	r3, #0
 8002492:	d00a      	beq.n	80024aa <HAL_RCCEx_PeriphCLKConfig+0x52>
 8002494:	f5b3 0f80 	cmp.w	r3, #4194304	; 0x400000
 8002498:	d010      	beq.n	80024bc <HAL_RCCEx_PeriphCLKConfig+0x64>
 800249a:	e018      	b.n	80024ce <HAL_RCCEx_PeriphCLKConfig+0x76>
    {
    case RCC_SAI1CLKSOURCE_PLL:      /* PLL is used as clock source for SAI1*/
      /* Enable SAI Clock output generated from System PLL . */
#if defined(RCC_PLLSAI2_SUPPORT)
      __HAL_RCC_PLLCLKOUT_ENABLE(RCC_PLL_SAI3CLK);
 800249c:	4b86      	ldr	r3, [pc, #536]	; (80026b8 <HAL_RCCEx_PeriphCLKConfig+0x260>)
 800249e:	68db      	ldr	r3, [r3, #12]
 80024a0:	4a85      	ldr	r2, [pc, #532]	; (80026b8 <HAL_RCCEx_PeriphCLKConfig+0x260>)
 80024a2:	f443 3380 	orr.w	r3, r3, #65536	; 0x10000
 80024a6:	60d3      	str	r3, [r2, #12]
#else
      __HAL_RCC_PLLCLKOUT_ENABLE(RCC_PLL_SAI2CLK);
#endif /* RCC_PLLSAI2_SUPPORT */
      /* SAI1 clock source config set later after clock selection check */
      break;
 80024a8:	e015      	b.n	80024d6 <HAL_RCCEx_PeriphCLKConfig+0x7e>

    case RCC_SAI1CLKSOURCE_PLLSAI1:  /* PLLSAI1 is used as clock source for SAI1*/
      /* PLLSAI1 input clock, parameters M, N & P configuration and clock output (PLLSAI1ClockOut) */
      ret = RCCEx_PLLSAI1_Config(&(PeriphClkInit->PLLSAI1), DIVIDER_P_UPDATE);
 80024aa:	687b      	ldr	r3, [r7, #4]
 80024ac:	3304      	adds	r3, #4
 80024ae:	2100      	movs	r1, #0
 80024b0:	4618      	mov	r0, r3
 80024b2:	f000 fabb 	bl	8002a2c <RCCEx_PLLSAI1_Config>
 80024b6:	4603      	mov	r3, r0
 80024b8:	74fb      	strb	r3, [r7, #19]
      /* SAI1 clock source config set later after clock selection check */
      break;
 80024ba:	e00c      	b.n	80024d6 <HAL_RCCEx_PeriphCLKConfig+0x7e>

#if defined(RCC_PLLSAI2_SUPPORT)

    case RCC_SAI1CLKSOURCE_PLLSAI2:  /* PLLSAI2 is used as clock source for SAI1*/
      /* PLLSAI2 input clock, parameters M, N & P configuration clock output (PLLSAI2ClockOut) */
      ret = RCCEx_PLLSAI2_Config(&(PeriphClkInit->PLLSAI2), DIVIDER_P_UPDATE);
 80024bc:	687b      	ldr	r3, [r7, #4]
 80024be:	3320      	adds	r3, #32
 80024c0:	2100      	movs	r1, #0
 80024c2:	4618      	mov	r0, r3
 80024c4:	f000 fba6 	bl	8002c14 <RCCEx_PLLSAI2_Config>
 80024c8:	4603      	mov	r3, r0
 80024ca:	74fb      	strb	r3, [r7, #19]
      /* SAI1 clock source config set later after clock selection check */
      break;
 80024cc:	e003      	b.n	80024d6 <HAL_RCCEx_PeriphCLKConfig+0x7e>
#endif /* STM32L4P5xx || STM32L4Q5xx || STM32L4R5xx || STM32L4R7xx || STM32L4R9xx || STM32L4S5xx || STM32L4S7xx || STM32L4S9xx */
      /* SAI1 clock source config set later after clock selection check */
      break;

    default:
      ret = HAL_ERROR;
 80024ce:	2301      	movs	r3, #1
 80024d0:	74fb      	strb	r3, [r7, #19]
      break;
 80024d2:	e000      	b.n	80024d6 <HAL_RCCEx_PeriphCLKConfig+0x7e>
      break;
 80024d4:	bf00      	nop
    }

    if(ret == HAL_OK)
 80024d6:	7cfb      	ldrb	r3, [r7, #19]
 80024d8:	2b00      	cmp	r3, #0
 80024da:	d10b      	bne.n	80024f4 <HAL_RCCEx_PeriphCLKConfig+0x9c>
    {
      /* Set the source of SAI1 clock*/
      __HAL_RCC_SAI1_CONFIG(PeriphClkInit->Sai1ClockSelection);
 80024dc:	4b76      	ldr	r3, [pc, #472]	; (80026b8 <HAL_RCCEx_PeriphCLKConfig+0x260>)
 80024de:	f8d3 3088 	ldr.w	r3, [r3, #136]	; 0x88
 80024e2:	f423 0240 	bic.w	r2, r3, #12582912	; 0xc00000
 80024e6:	687b      	ldr	r3, [r7, #4]
 80024e8:	6e5b      	ldr	r3, [r3, #100]	; 0x64
 80024ea:	4973      	ldr	r1, [pc, #460]	; (80026b8 <HAL_RCCEx_PeriphCLKConfig+0x260>)
 80024ec:	4313      	orrs	r3, r2
 80024ee:	f8c1 3088 	str.w	r3, [r1, #136]	; 0x88
 80024f2:	e001      	b.n	80024f8 <HAL_RCCEx_PeriphCLKConfig+0xa0>
    }
    else
    {
      /* set overall return value */
      status = ret;
 80024f4:	7cfb      	ldrb	r3, [r7, #19]
 80024f6:	74bb      	strb	r3, [r7, #18]
#endif /* SAI1 */

#if defined(SAI2)

  /*-------------------------- SAI2 clock source configuration ---------------------*/
  if((((PeriphClkInit->PeriphClockSelection) & RCC_PERIPHCLK_SAI2) == RCC_PERIPHCLK_SAI2))
 80024f8:	687b      	ldr	r3, [r7, #4]
 80024fa:	681b      	ldr	r3, [r3, #0]
 80024fc:	f403 5380 	and.w	r3, r3, #4096	; 0x1000
 8002500:	2b00      	cmp	r3, #0
 8002502:	d041      	beq.n	8002588 <HAL_RCCEx_PeriphCLKConfig+0x130>
  {
    /* Check the parameters */
    assert_param(IS_RCC_SAI2CLK(PeriphClkInit->Sai2ClockSelection));

    switch(PeriphClkInit->Sai2ClockSelection)
 8002504:	687b      	ldr	r3, [r7, #4]
 8002506:	6e9b      	ldr	r3, [r3, #104]	; 0x68
 8002508:	f1b3 7f40 	cmp.w	r3, #50331648	; 0x3000000
 800250c:	d02a      	beq.n	8002564 <HAL_RCCEx_PeriphCLKConfig+0x10c>
 800250e:	f1b3 7f40 	cmp.w	r3, #50331648	; 0x3000000
 8002512:	d824      	bhi.n	800255e <HAL_RCCEx_PeriphCLKConfig+0x106>
 8002514:	f1b3 7f00 	cmp.w	r3, #33554432	; 0x2000000
 8002518:	d008      	beq.n	800252c <HAL_RCCEx_PeriphCLKConfig+0xd4>
 800251a:	f1b3 7f00 	cmp.w	r3, #33554432	; 0x2000000
 800251e:	d81e      	bhi.n	800255e <HAL_RCCEx_PeriphCLKConfig+0x106>
 8002520:	2b00      	cmp	r3, #0
 8002522:	d00a      	beq.n	800253a <HAL_RCCEx_PeriphCLKConfig+0xe2>
 8002524:	f1b3 7f80 	cmp.w	r3, #16777216	; 0x1000000
 8002528:	d010      	beq.n	800254c <HAL_RCCEx_PeriphCLKConfig+0xf4>
 800252a:	e018      	b.n	800255e <HAL_RCCEx_PeriphCLKConfig+0x106>
    {
    case RCC_SAI2CLKSOURCE_PLL:      /* PLL is used as clock source for SAI2*/
      /* Enable SAI Clock output generated from System PLL . */
      __HAL_RCC_PLLCLKOUT_ENABLE(RCC_PLL_SAI3CLK);
 800252c:	4b62      	ldr	r3, [pc, #392]	; (80026b8 <HAL_RCCEx_PeriphCLKConfig+0x260>)
 800252e:	68db      	ldr	r3, [r3, #12]
 8002530:	4a61      	ldr	r2, [pc, #388]	; (80026b8 <HAL_RCCEx_PeriphCLKConfig+0x260>)
 8002532:	f443 3380 	orr.w	r3, r3, #65536	; 0x10000
 8002536:	60d3      	str	r3, [r2, #12]
      /* SAI2 clock source config set later after clock selection check */
      break;
 8002538:	e015      	b.n	8002566 <HAL_RCCEx_PeriphCLKConfig+0x10e>

    case RCC_SAI2CLKSOURCE_PLLSAI1: /* PLLSAI1 is used as clock source for SAI2*/
      /* PLLSAI1 input clock, parameters M, N & P configuration and clock output (PLLSAI1ClockOut) */
      ret = RCCEx_PLLSAI1_Config(&(PeriphClkInit->PLLSAI1), DIVIDER_P_UPDATE);
 800253a:	687b      	ldr	r3, [r7, #4]
 800253c:	3304      	adds	r3, #4
 800253e:	2100      	movs	r1, #0
 8002540:	4618      	mov	r0, r3
 8002542:	f000 fa73 	bl	8002a2c <RCCEx_PLLSAI1_Config>
 8002546:	4603      	mov	r3, r0
 8002548:	74fb      	strb	r3, [r7, #19]
      /* SAI2 clock source config set later after clock selection check */
      break;
 800254a:	e00c      	b.n	8002566 <HAL_RCCEx_PeriphCLKConfig+0x10e>

    case RCC_SAI2CLKSOURCE_PLLSAI2:  /* PLLSAI2 is used as clock source for SAI2*/
      /* PLLSAI2 input clock, parameters M, N & P configuration and clock output (PLLSAI2ClockOut) */
      ret = RCCEx_PLLSAI2_Config(&(PeriphClkInit->PLLSAI2), DIVIDER_P_UPDATE);
 800254c:	687b      	ldr	r3, [r7, #4]
 800254e:	3320      	adds	r3, #32
 8002550:	2100      	movs	r1, #0
 8002552:	4618      	mov	r0, r3
 8002554:	f000 fb5e 	bl	8002c14 <RCCEx_PLLSAI2_Config>
 8002558:	4603      	mov	r3, r0
 800255a:	74fb      	strb	r3, [r7, #19]
      /* SAI2 clock source config set later after clock selection check */
      break;
 800255c:	e003      	b.n	8002566 <HAL_RCCEx_PeriphCLKConfig+0x10e>
#endif /* STM32L4P5xx || STM32L4Q5xx || STM32L4R5xx || STM32L4R7xx || STM32L4R9xx || STM32L4S5xx || STM32L4S7xx || STM32L4S9xx */
      /* SAI2 clock source config set later after clock selection check */
      break;

    default:
      ret = HAL_ERROR;
 800255e:	2301      	movs	r3, #1
 8002560:	74fb      	strb	r3, [r7, #19]
      break;
 8002562:	e000      	b.n	8002566 <HAL_RCCEx_PeriphCLKConfig+0x10e>
      break;
 8002564:	bf00      	nop
    }

    if(ret == HAL_OK)
 8002566:	7cfb      	ldrb	r3, [r7, #19]
 8002568:	2b00      	cmp	r3, #0
 800256a:	d10b      	bne.n	8002584 <HAL_RCCEx_PeriphCLKConfig+0x12c>
    {
      /* Set the source of SAI2 clock*/
      __HAL_RCC_SAI2_CONFIG(PeriphClkInit->Sai2ClockSelection);
 800256c:	4b52      	ldr	r3, [pc, #328]	; (80026b8 <HAL_RCCEx_PeriphCLKConfig+0x260>)
 800256e:	f8d3 3088 	ldr.w	r3, [r3, #136]	; 0x88
 8002572:	f023 7240 	bic.w	r2, r3, #50331648	; 0x3000000
 8002576:	687b      	ldr	r3, [r7, #4]
 8002578:	6e9b      	ldr	r3, [r3, #104]	; 0x68
 800257a:	494f      	ldr	r1, [pc, #316]	; (80026b8 <HAL_RCCEx_PeriphCLKConfig+0x260>)
 800257c:	4313      	orrs	r3, r2
 800257e:	f8c1 3088 	str.w	r3, [r1, #136]	; 0x88
 8002582:	e001      	b.n	8002588 <HAL_RCCEx_PeriphCLKConfig+0x130>
    }
    else
    {
      /* set overall return value */
      status = ret;
 8002584:	7cfb      	ldrb	r3, [r7, #19]
 8002586:	74bb      	strb	r3, [r7, #18]
    }
  }
#endif /* SAI2 */

  /*-------------------------- RTC clock source configuration ----------------------*/
  if((PeriphClkInit->PeriphClockSelection & RCC_PERIPHCLK_RTC) == RCC_PERIPHCLK_RTC)
 8002588:	687b      	ldr	r3, [r7, #4]
 800258a:	681b      	ldr	r3, [r3, #0]
 800258c:	f403 3300 	and.w	r3, r3, #131072	; 0x20000
 8002590:	2b00      	cmp	r3, #0
 8002592:	f000 80a0 	beq.w	80026d6 <HAL_RCCEx_PeriphCLKConfig+0x27e>
  {
    FlagStatus       pwrclkchanged = RESET;
 8002596:	2300      	movs	r3, #0
 8002598:	747b      	strb	r3, [r7, #17]

    /* Check for RTC Parameters used to output RTCCLK */
    assert_param(IS_RCC_RTCCLKSOURCE(PeriphClkInit->RTCClockSelection));

    /* Enable Power Clock */
    if(__HAL_RCC_PWR_IS_CLK_DISABLED() != 0U)
 800259a:	4b47      	ldr	r3, [pc, #284]	; (80026b8 <HAL_RCCEx_PeriphCLKConfig+0x260>)
 800259c:	6d9b      	ldr	r3, [r3, #88]	; 0x58
 800259e:	f003 5380 	and.w	r3, r3, #268435456	; 0x10000000
 80025a2:	2b00      	cmp	r3, #0
 80025a4:	d101      	bne.n	80025aa <HAL_RCCEx_PeriphCLKConfig+0x152>
 80025a6:	2301      	movs	r3, #1
 80025a8:	e000      	b.n	80025ac <HAL_RCCEx_PeriphCLKConfig+0x154>
 80025aa:	2300      	movs	r3, #0
 80025ac:	2b00      	cmp	r3, #0
 80025ae:	d00d      	beq.n	80025cc <HAL_RCCEx_PeriphCLKConfig+0x174>
    {
      __HAL_RCC_PWR_CLK_ENABLE();
 80025b0:	4b41      	ldr	r3, [pc, #260]	; (80026b8 <HAL_RCCEx_PeriphCLKConfig+0x260>)
 80025b2:	6d9b      	ldr	r3, [r3, #88]	; 0x58
 80025b4:	4a40      	ldr	r2, [pc, #256]	; (80026b8 <HAL_RCCEx_PeriphCLKConfig+0x260>)
 80025b6:	f043 5380 	orr.w	r3, r3, #268435456	; 0x10000000
 80025ba:	6593      	str	r3, [r2, #88]	; 0x58
 80025bc:	4b3e      	ldr	r3, [pc, #248]	; (80026b8 <HAL_RCCEx_PeriphCLKConfig+0x260>)
 80025be:	6d9b      	ldr	r3, [r3, #88]	; 0x58
 80025c0:	f003 5380 	and.w	r3, r3, #268435456	; 0x10000000
 80025c4:	60bb      	str	r3, [r7, #8]
 80025c6:	68bb      	ldr	r3, [r7, #8]
      pwrclkchanged = SET;
 80025c8:	2301      	movs	r3, #1
 80025ca:	747b      	strb	r3, [r7, #17]
    }

    /* Enable write access to Backup domain */
    SET_BIT(PWR->CR1, PWR_CR1_DBP);
 80025cc:	4b3b      	ldr	r3, [pc, #236]	; (80026bc <HAL_RCCEx_PeriphCLKConfig+0x264>)
 80025ce:	681b      	ldr	r3, [r3, #0]
 80025d0:	4a3a      	ldr	r2, [pc, #232]	; (80026bc <HAL_RCCEx_PeriphCLKConfig+0x264>)
 80025d2:	f443 7380 	orr.w	r3, r3, #256	; 0x100
 80025d6:	6013      	str	r3, [r2, #0]

    /* Wait for Backup domain Write protection disable */
    tickstart = HAL_GetTick();
 80025d8:	f7fe fab6 	bl	8000b48 <HAL_GetTick>
 80025dc:	60f8      	str	r0, [r7, #12]

    while(READ_BIT(PWR->CR1, PWR_CR1_DBP) == 0U)
 80025de:	e009      	b.n	80025f4 <HAL_RCCEx_PeriphCLKConfig+0x19c>
    {
      if((HAL_GetTick() - tickstart) > RCC_DBP_TIMEOUT_VALUE)
 80025e0:	f7fe fab2 	bl	8000b48 <HAL_GetTick>
 80025e4:	4602      	mov	r2, r0
 80025e6:	68fb      	ldr	r3, [r7, #12]
 80025e8:	1ad3      	subs	r3, r2, r3
 80025ea:	2b02      	cmp	r3, #2
 80025ec:	d902      	bls.n	80025f4 <HAL_RCCEx_PeriphCLKConfig+0x19c>
      {
        ret = HAL_TIMEOUT;
 80025ee:	2303      	movs	r3, #3
 80025f0:	74fb      	strb	r3, [r7, #19]
        break;
 80025f2:	e005      	b.n	8002600 <HAL_RCCEx_PeriphCLKConfig+0x1a8>
    while(READ_BIT(PWR->CR1, PWR_CR1_DBP) == 0U)
 80025f4:	4b31      	ldr	r3, [pc, #196]	; (80026bc <HAL_RCCEx_PeriphCLKConfig+0x264>)
 80025f6:	681b      	ldr	r3, [r3, #0]
 80025f8:	f403 7380 	and.w	r3, r3, #256	; 0x100
 80025fc:	2b00      	cmp	r3, #0
 80025fe:	d0ef      	beq.n	80025e0 <HAL_RCCEx_PeriphCLKConfig+0x188>
      }
    }

    if(ret == HAL_OK)
 8002600:	7cfb      	ldrb	r3, [r7, #19]
 8002602:	2b00      	cmp	r3, #0
 8002604:	d15c      	bne.n	80026c0 <HAL_RCCEx_PeriphCLKConfig+0x268>
    {
      /* Reset the Backup domain only if the RTC Clock source selection is modified from default */
      tmpregister = READ_BIT(RCC->BDCR, RCC_BDCR_RTCSEL);
 8002606:	4b2c      	ldr	r3, [pc, #176]	; (80026b8 <HAL_RCCEx_PeriphCLKConfig+0x260>)
 8002608:	f8d3 3090 	ldr.w	r3, [r3, #144]	; 0x90
 800260c:	f403 7340 	and.w	r3, r3, #768	; 0x300
 8002610:	617b      	str	r3, [r7, #20]

      if((tmpregister != RCC_RTCCLKSOURCE_NONE) && (tmpregister != PeriphClkInit->RTCClockSelection))
 8002612:	697b      	ldr	r3, [r7, #20]
 8002614:	2b00      	cmp	r3, #0
 8002616:	d01f      	beq.n	8002658 <HAL_RCCEx_PeriphCLKConfig+0x200>
 8002618:	687b      	ldr	r3, [r7, #4]
 800261a:	f8d3 3084 	ldr.w	r3, [r3, #132]	; 0x84
 800261e:	697a      	ldr	r2, [r7, #20]
 8002620:	429a      	cmp	r2, r3
 8002622:	d019      	beq.n	8002658 <HAL_RCCEx_PeriphCLKConfig+0x200>
      {
        /* Store the content of BDCR register before the reset of Backup Domain */
        tmpregister = READ_BIT(RCC->BDCR, ~(RCC_BDCR_RTCSEL));
 8002624:	4b24      	ldr	r3, [pc, #144]	; (80026b8 <HAL_RCCEx_PeriphCLKConfig+0x260>)
 8002626:	f8d3 3090 	ldr.w	r3, [r3, #144]	; 0x90
 800262a:	f423 7340 	bic.w	r3, r3, #768	; 0x300
 800262e:	617b      	str	r3, [r7, #20]
        /* RTC Clock selection can be changed only if the Backup Domain is reset */
        __HAL_RCC_BACKUPRESET_FORCE();
 8002630:	4b21      	ldr	r3, [pc, #132]	; (80026b8 <HAL_RCCEx_PeriphCLKConfig+0x260>)
 8002632:	f8d3 3090 	ldr.w	r3, [r3, #144]	; 0x90
 8002636:	4a20      	ldr	r2, [pc, #128]	; (80026b8 <HAL_RCCEx_PeriphCLKConfig+0x260>)
 8002638:	f443 3380 	orr.w	r3, r3, #65536	; 0x10000
 800263c:	f8c2 3090 	str.w	r3, [r2, #144]	; 0x90
        __HAL_RCC_BACKUPRESET_RELEASE();
 8002640:	4b1d      	ldr	r3, [pc, #116]	; (80026b8 <HAL_RCCEx_PeriphCLKConfig+0x260>)
 8002642:	f8d3 3090 	ldr.w	r3, [r3, #144]	; 0x90
 8002646:	4a1c      	ldr	r2, [pc, #112]	; (80026b8 <HAL_RCCEx_PeriphCLKConfig+0x260>)
 8002648:	f423 3380 	bic.w	r3, r3, #65536	; 0x10000
 800264c:	f8c2 3090 	str.w	r3, [r2, #144]	; 0x90
        /* Restore the Content of BDCR register */
        RCC->BDCR = tmpregister;
 8002650:	4a19      	ldr	r2, [pc, #100]	; (80026b8 <HAL_RCCEx_PeriphCLKConfig+0x260>)
 8002652:	697b      	ldr	r3, [r7, #20]
 8002654:	f8c2 3090 	str.w	r3, [r2, #144]	; 0x90
      }

      /* Wait for LSE reactivation if LSE was enable prior to Backup Domain reset */
      if (HAL_IS_BIT_SET(tmpregister, RCC_BDCR_LSEON))
 8002658:	697b      	ldr	r3, [r7, #20]
 800265a:	f003 0301 	and.w	r3, r3, #1
 800265e:	2b00      	cmp	r3, #0
 8002660:	d016      	beq.n	8002690 <HAL_RCCEx_PeriphCLKConfig+0x238>
      {
        /* Get Start Tick*/
        tickstart = HAL_GetTick();
 8002662:	f7fe fa71 	bl	8000b48 <HAL_GetTick>
 8002666:	60f8      	str	r0, [r7, #12]

        /* Wait till LSE is ready */
        while(READ_BIT(RCC->BDCR, RCC_BDCR_LSERDY) == 0U)
 8002668:	e00b      	b.n	8002682 <HAL_RCCEx_PeriphCLKConfig+0x22a>
        {
          if((HAL_GetTick() - tickstart) > RCC_LSE_TIMEOUT_VALUE)
 800266a:	f7fe fa6d 	bl	8000b48 <HAL_GetTick>
 800266e:	4602      	mov	r2, r0
 8002670:	68fb      	ldr	r3, [r7, #12]
 8002672:	1ad3      	subs	r3, r2, r3
 8002674:	f241 3288 	movw	r2, #5000	; 0x1388
 8002678:	4293      	cmp	r3, r2
 800267a:	d902      	bls.n	8002682 <HAL_RCCEx_PeriphCLKConfig+0x22a>
          {
            ret = HAL_TIMEOUT;
 800267c:	2303      	movs	r3, #3
 800267e:	74fb      	strb	r3, [r7, #19]
            break;
 8002680:	e006      	b.n	8002690 <HAL_RCCEx_PeriphCLKConfig+0x238>
        while(READ_BIT(RCC->BDCR, RCC_BDCR_LSERDY) == 0U)
 8002682:	4b0d      	ldr	r3, [pc, #52]	; (80026b8 <HAL_RCCEx_PeriphCLKConfig+0x260>)
 8002684:	f8d3 3090 	ldr.w	r3, [r3, #144]	; 0x90
 8002688:	f003 0302 	and.w	r3, r3, #2
 800268c:	2b00      	cmp	r3, #0
 800268e:	d0ec      	beq.n	800266a <HAL_RCCEx_PeriphCLKConfig+0x212>
          }
        }
      }

      if(ret == HAL_OK)
 8002690:	7cfb      	ldrb	r3, [r7, #19]
 8002692:	2b00      	cmp	r3, #0
 8002694:	d10c      	bne.n	80026b0 <HAL_RCCEx_PeriphCLKConfig+0x258>
      {
        /* Apply new RTC clock source selection */
        __HAL_RCC_RTC_CONFIG(PeriphClkInit->RTCClockSelection);
 8002696:	4b08      	ldr	r3, [pc, #32]	; (80026b8 <HAL_RCCEx_PeriphCLKConfig+0x260>)
 8002698:	f8d3 3090 	ldr.w	r3, [r3, #144]	; 0x90
 800269c:	f423 7240 	bic.w	r2, r3, #768	; 0x300
 80026a0:	687b      	ldr	r3, [r7, #4]
 80026a2:	f8d3 3084 	ldr.w	r3, [r3, #132]	; 0x84
 80026a6:	4904      	ldr	r1, [pc, #16]	; (80026b8 <HAL_RCCEx_PeriphCLKConfig+0x260>)
 80026a8:	4313      	orrs	r3, r2
 80026aa:	f8c1 3090 	str.w	r3, [r1, #144]	; 0x90
 80026ae:	e009      	b.n	80026c4 <HAL_RCCEx_PeriphCLKConfig+0x26c>
      }
      else
      {
        /* set overall return value */
        status = ret;
 80026b0:	7cfb      	ldrb	r3, [r7, #19]
 80026b2:	74bb      	strb	r3, [r7, #18]
 80026b4:	e006      	b.n	80026c4 <HAL_RCCEx_PeriphCLKConfig+0x26c>
 80026b6:	bf00      	nop
 80026b8:	40021000 	.word	0x40021000
 80026bc:	40007000 	.word	0x40007000
      }
    }
    else
    {
      /* set overall return value */
      status = ret;
 80026c0:	7cfb      	ldrb	r3, [r7, #19]
 80026c2:	74bb      	strb	r3, [r7, #18]
    }

    /* Restore clock configuration if changed */
    if(pwrclkchanged == SET)
 80026c4:	7c7b      	ldrb	r3, [r7, #17]
 80026c6:	2b01      	cmp	r3, #1
 80026c8:	d105      	bne.n	80026d6 <HAL_RCCEx_PeriphCLKConfig+0x27e>
    {
      __HAL_RCC_PWR_CLK_DISABLE();
 80026ca:	4b9e      	ldr	r3, [pc, #632]	; (8002944 <HAL_RCCEx_PeriphCLKConfig+0x4ec>)
 80026cc:	6d9b      	ldr	r3, [r3, #88]	; 0x58
 80026ce:	4a9d      	ldr	r2, [pc, #628]	; (8002944 <HAL_RCCEx_PeriphCLKConfig+0x4ec>)
 80026d0:	f023 5380 	bic.w	r3, r3, #268435456	; 0x10000000
 80026d4:	6593      	str	r3, [r2, #88]	; 0x58
    }
  }

  /*-------------------------- USART1 clock source configuration -------------------*/
  if(((PeriphClkInit->PeriphClockSelection) & RCC_PERIPHCLK_USART1) == RCC_PERIPHCLK_USART1)
 80026d6:	687b      	ldr	r3, [r7, #4]
 80026d8:	681b      	ldr	r3, [r3, #0]
 80026da:	f003 0301 	and.w	r3, r3, #1
 80026de:	2b00      	cmp	r3, #0
 80026e0:	d00a      	beq.n	80026f8 <HAL_RCCEx_PeriphCLKConfig+0x2a0>
  {
    /* Check the parameters */
    assert_param(IS_RCC_USART1CLKSOURCE(PeriphClkInit->Usart1ClockSelection));

    /* Configure the USART1 clock source */
    __HAL_RCC_USART1_CONFIG(PeriphClkInit->Usart1ClockSelection);
 80026e2:	4b98      	ldr	r3, [pc, #608]	; (8002944 <HAL_RCCEx_PeriphCLKConfig+0x4ec>)
 80026e4:	f8d3 3088 	ldr.w	r3, [r3, #136]	; 0x88
 80026e8:	f023 0203 	bic.w	r2, r3, #3
 80026ec:	687b      	ldr	r3, [r7, #4]
 80026ee:	6b9b      	ldr	r3, [r3, #56]	; 0x38
 80026f0:	4994      	ldr	r1, [pc, #592]	; (8002944 <HAL_RCCEx_PeriphCLKConfig+0x4ec>)
 80026f2:	4313      	orrs	r3, r2
 80026f4:	f8c1 3088 	str.w	r3, [r1, #136]	; 0x88
  }

  /*-------------------------- USART2 clock source configuration -------------------*/
  if(((PeriphClkInit->PeriphClockSelection) & RCC_PERIPHCLK_USART2) == RCC_PERIPHCLK_USART2)
 80026f8:	687b      	ldr	r3, [r7, #4]
 80026fa:	681b      	ldr	r3, [r3, #0]
 80026fc:	f003 0302 	and.w	r3, r3, #2
 8002700:	2b00      	cmp	r3, #0
 8002702:	d00a      	beq.n	800271a <HAL_RCCEx_PeriphCLKConfig+0x2c2>
  {
    /* Check the parameters */
    assert_param(IS_RCC_USART2CLKSOURCE(PeriphClkInit->Usart2ClockSelection));

    /* Configure the USART2 clock source */
    __HAL_RCC_USART2_CONFIG(PeriphClkInit->Usart2ClockSelection);
 8002704:	4b8f      	ldr	r3, [pc, #572]	; (8002944 <HAL_RCCEx_PeriphCLKConfig+0x4ec>)
 8002706:	f8d3 3088 	ldr.w	r3, [r3, #136]	; 0x88
 800270a:	f023 020c 	bic.w	r2, r3, #12
 800270e:	687b      	ldr	r3, [r7, #4]
 8002710:	6bdb      	ldr	r3, [r3, #60]	; 0x3c
 8002712:	498c      	ldr	r1, [pc, #560]	; (8002944 <HAL_RCCEx_PeriphCLKConfig+0x4ec>)
 8002714:	4313      	orrs	r3, r2
 8002716:	f8c1 3088 	str.w	r3, [r1, #136]	; 0x88
  }

#if defined(USART3)

  /*-------------------------- USART3 clock source configuration -------------------*/
  if(((PeriphClkInit->PeriphClockSelection) & RCC_PERIPHCLK_USART3) == RCC_PERIPHCLK_USART3)
 800271a:	687b      	ldr	r3, [r7, #4]
 800271c:	681b      	ldr	r3, [r3, #0]
 800271e:	f003 0304 	and.w	r3, r3, #4
 8002722:	2b00      	cmp	r3, #0
 8002724:	d00a      	beq.n	800273c <HAL_RCCEx_PeriphCLKConfig+0x2e4>
  {
    /* Check the parameters */
    assert_param(IS_RCC_USART3CLKSOURCE(PeriphClkInit->Usart3ClockSelection));

    /* Configure the USART3 clock source */
    __HAL_RCC_USART3_CONFIG(PeriphClkInit->Usart3ClockSelection);
 8002726:	4b87      	ldr	r3, [pc, #540]	; (8002944 <HAL_RCCEx_PeriphCLKConfig+0x4ec>)
 8002728:	f8d3 3088 	ldr.w	r3, [r3, #136]	; 0x88
 800272c:	f023 0230 	bic.w	r2, r3, #48	; 0x30
 8002730:	687b      	ldr	r3, [r7, #4]
 8002732:	6c1b      	ldr	r3, [r3, #64]	; 0x40
 8002734:	4983      	ldr	r1, [pc, #524]	; (8002944 <HAL_RCCEx_PeriphCLKConfig+0x4ec>)
 8002736:	4313      	orrs	r3, r2
 8002738:	f8c1 3088 	str.w	r3, [r1, #136]	; 0x88
#endif /* USART3 */

#if defined(UART4)

  /*-------------------------- UART4 clock source configuration --------------------*/
  if(((PeriphClkInit->PeriphClockSelection) & RCC_PERIPHCLK_UART4) == RCC_PERIPHCLK_UART4)
 800273c:	687b      	ldr	r3, [r7, #4]
 800273e:	681b      	ldr	r3, [r3, #0]
 8002740:	f003 0308 	and.w	r3, r3, #8
 8002744:	2b00      	cmp	r3, #0
 8002746:	d00a      	beq.n	800275e <HAL_RCCEx_PeriphCLKConfig+0x306>
  {
    /* Check the parameters */
    assert_param(IS_RCC_UART4CLKSOURCE(PeriphClkInit->Uart4ClockSelection));

    /* Configure the UART4 clock source */
    __HAL_RCC_UART4_CONFIG(PeriphClkInit->Uart4ClockSelection);
 8002748:	4b7e      	ldr	r3, [pc, #504]	; (8002944 <HAL_RCCEx_PeriphCLKConfig+0x4ec>)
 800274a:	f8d3 3088 	ldr.w	r3, [r3, #136]	; 0x88
 800274e:	f023 02c0 	bic.w	r2, r3, #192	; 0xc0
 8002752:	687b      	ldr	r3, [r7, #4]
 8002754:	6c5b      	ldr	r3, [r3, #68]	; 0x44
 8002756:	497b      	ldr	r1, [pc, #492]	; (8002944 <HAL_RCCEx_PeriphCLKConfig+0x4ec>)
 8002758:	4313      	orrs	r3, r2
 800275a:	f8c1 3088 	str.w	r3, [r1, #136]	; 0x88
#endif /* UART4 */

#if defined(UART5)

  /*-------------------------- UART5 clock source configuration --------------------*/
  if(((PeriphClkInit->PeriphClockSelection) & RCC_PERIPHCLK_UART5) == RCC_PERIPHCLK_UART5)
 800275e:	687b      	ldr	r3, [r7, #4]
 8002760:	681b      	ldr	r3, [r3, #0]
 8002762:	f003 0310 	and.w	r3, r3, #16
 8002766:	2b00      	cmp	r3, #0
 8002768:	d00a      	beq.n	8002780 <HAL_RCCEx_PeriphCLKConfig+0x328>
  {
    /* Check the parameters */
    assert_param(IS_RCC_UART5CLKSOURCE(PeriphClkInit->Uart5ClockSelection));

    /* Configure the UART5 clock source */
    __HAL_RCC_UART5_CONFIG(PeriphClkInit->Uart5ClockSelection);
 800276a:	4b76      	ldr	r3, [pc, #472]	; (8002944 <HAL_RCCEx_PeriphCLKConfig+0x4ec>)
 800276c:	f8d3 3088 	ldr.w	r3, [r3, #136]	; 0x88
 8002770:	f423 7240 	bic.w	r2, r3, #768	; 0x300
 8002774:	687b      	ldr	r3, [r7, #4]
 8002776:	6c9b      	ldr	r3, [r3, #72]	; 0x48
 8002778:	4972      	ldr	r1, [pc, #456]	; (8002944 <HAL_RCCEx_PeriphCLKConfig+0x4ec>)
 800277a:	4313      	orrs	r3, r2
 800277c:	f8c1 3088 	str.w	r3, [r1, #136]	; 0x88
  }

#endif /* UART5 */

  /*-------------------------- LPUART1 clock source configuration ------------------*/
  if(((PeriphClkInit->PeriphClockSelection) & RCC_PERIPHCLK_LPUART1) == RCC_PERIPHCLK_LPUART1)
 8002780:	687b      	ldr	r3, [r7, #4]
 8002782:	681b      	ldr	r3, [r3, #0]
 8002784:	f003 0320 	and.w	r3, r3, #32
 8002788:	2b00      	cmp	r3, #0
 800278a:	d00a      	beq.n	80027a2 <HAL_RCCEx_PeriphCLKConfig+0x34a>
  {
    /* Check the parameters */
    assert_param(IS_RCC_LPUART1CLKSOURCE(PeriphClkInit->Lpuart1ClockSelection));

    /* Configure the LPUART1 clock source */
    __HAL_RCC_LPUART1_CONFIG(PeriphClkInit->Lpuart1ClockSelection);
 800278c:	4b6d      	ldr	r3, [pc, #436]	; (8002944 <HAL_RCCEx_PeriphCLKConfig+0x4ec>)
 800278e:	f8d3 3088 	ldr.w	r3, [r3, #136]	; 0x88
 8002792:	f423 6240 	bic.w	r2, r3, #3072	; 0xc00
 8002796:	687b      	ldr	r3, [r7, #4]
 8002798:	6cdb      	ldr	r3, [r3, #76]	; 0x4c
 800279a:	496a      	ldr	r1, [pc, #424]	; (8002944 <HAL_RCCEx_PeriphCLKConfig+0x4ec>)
 800279c:	4313      	orrs	r3, r2
 800279e:	f8c1 3088 	str.w	r3, [r1, #136]	; 0x88
  }

  /*-------------------------- LPTIM1 clock source configuration -------------------*/
  if(((PeriphClkInit->PeriphClockSelection) & RCC_PERIPHCLK_LPTIM1) == (RCC_PERIPHCLK_LPTIM1))
 80027a2:	687b      	ldr	r3, [r7, #4]
 80027a4:	681b      	ldr	r3, [r3, #0]
 80027a6:	f403 7300 	and.w	r3, r3, #512	; 0x200
 80027aa:	2b00      	cmp	r3, #0
 80027ac:	d00a      	beq.n	80027c4 <HAL_RCCEx_PeriphCLKConfig+0x36c>
  {
    assert_param(IS_RCC_LPTIM1CLK(PeriphClkInit->Lptim1ClockSelection));
    __HAL_RCC_LPTIM1_CONFIG(PeriphClkInit->Lptim1ClockSelection);
 80027ae:	4b65      	ldr	r3, [pc, #404]	; (8002944 <HAL_RCCEx_PeriphCLKConfig+0x4ec>)
 80027b0:	f8d3 3088 	ldr.w	r3, [r3, #136]	; 0x88
 80027b4:	f423 2240 	bic.w	r2, r3, #786432	; 0xc0000
 80027b8:	687b      	ldr	r3, [r7, #4]
 80027ba:	6ddb      	ldr	r3, [r3, #92]	; 0x5c
 80027bc:	4961      	ldr	r1, [pc, #388]	; (8002944 <HAL_RCCEx_PeriphCLKConfig+0x4ec>)
 80027be:	4313      	orrs	r3, r2
 80027c0:	f8c1 3088 	str.w	r3, [r1, #136]	; 0x88
  }

  /*-------------------------- LPTIM2 clock source configuration -------------------*/
  if(((PeriphClkInit->PeriphClockSelection) & RCC_PERIPHCLK_LPTIM2) == (RCC_PERIPHCLK_LPTIM2))
 80027c4:	687b      	ldr	r3, [r7, #4]
 80027c6:	681b      	ldr	r3, [r3, #0]
 80027c8:	f403 6380 	and.w	r3, r3, #1024	; 0x400
 80027cc:	2b00      	cmp	r3, #0
 80027ce:	d00a      	beq.n	80027e6 <HAL_RCCEx_PeriphCLKConfig+0x38e>
  {
    assert_param(IS_RCC_LPTIM2CLK(PeriphClkInit->Lptim2ClockSelection));
    __HAL_RCC_LPTIM2_CONFIG(PeriphClkInit->Lptim2ClockSelection);
 80027d0:	4b5c      	ldr	r3, [pc, #368]	; (8002944 <HAL_RCCEx_PeriphCLKConfig+0x4ec>)
 80027d2:	f8d3 3088 	ldr.w	r3, [r3, #136]	; 0x88
 80027d6:	f423 1240 	bic.w	r2, r3, #3145728	; 0x300000
 80027da:	687b      	ldr	r3, [r7, #4]
 80027dc:	6e1b      	ldr	r3, [r3, #96]	; 0x60
 80027de:	4959      	ldr	r1, [pc, #356]	; (8002944 <HAL_RCCEx_PeriphCLKConfig+0x4ec>)
 80027e0:	4313      	orrs	r3, r2
 80027e2:	f8c1 3088 	str.w	r3, [r1, #136]	; 0x88
  }

  /*-------------------------- I2C1 clock source configuration ---------------------*/
  if(((PeriphClkInit->PeriphClockSelection) & RCC_PERIPHCLK_I2C1) == RCC_PERIPHCLK_I2C1)
 80027e6:	687b      	ldr	r3, [r7, #4]
 80027e8:	681b      	ldr	r3, [r3, #0]
 80027ea:	f003 0340 	and.w	r3, r3, #64	; 0x40
 80027ee:	2b00      	cmp	r3, #0
 80027f0:	d00a      	beq.n	8002808 <HAL_RCCEx_PeriphCLKConfig+0x3b0>
  {
    /* Check the parameters */
    assert_param(IS_RCC_I2C1CLKSOURCE(PeriphClkInit->I2c1ClockSelection));

    /* Configure the I2C1 clock source */
    __HAL_RCC_I2C1_CONFIG(PeriphClkInit->I2c1ClockSelection);
 80027f2:	4b54      	ldr	r3, [pc, #336]	; (8002944 <HAL_RCCEx_PeriphCLKConfig+0x4ec>)
 80027f4:	f8d3 3088 	ldr.w	r3, [r3, #136]	; 0x88
 80027f8:	f423 5240 	bic.w	r2, r3, #12288	; 0x3000
 80027fc:	687b      	ldr	r3, [r7, #4]
 80027fe:	6d1b      	ldr	r3, [r3, #80]	; 0x50
 8002800:	4950      	ldr	r1, [pc, #320]	; (8002944 <HAL_RCCEx_PeriphCLKConfig+0x4ec>)
 8002802:	4313      	orrs	r3, r2
 8002804:	f8c1 3088 	str.w	r3, [r1, #136]	; 0x88
  }

#if defined(I2C2)

  /*-------------------------- I2C2 clock source configuration ---------------------*/
  if(((PeriphClkInit->PeriphClockSelection) & RCC_PERIPHCLK_I2C2) == RCC_PERIPHCLK_I2C2)
 8002808:	687b      	ldr	r3, [r7, #4]
 800280a:	681b      	ldr	r3, [r3, #0]
 800280c:	f003 0380 	and.w	r3, r3, #128	; 0x80
 8002810:	2b00      	cmp	r3, #0
 8002812:	d00a      	beq.n	800282a <HAL_RCCEx_PeriphCLKConfig+0x3d2>
  {
    /* Check the parameters */
    assert_param(IS_RCC_I2C2CLKSOURCE(PeriphClkInit->I2c2ClockSelection));

    /* Configure the I2C2 clock source */
    __HAL_RCC_I2C2_CONFIG(PeriphClkInit->I2c2ClockSelection);
 8002814:	4b4b      	ldr	r3, [pc, #300]	; (8002944 <HAL_RCCEx_PeriphCLKConfig+0x4ec>)
 8002816:	f8d3 3088 	ldr.w	r3, [r3, #136]	; 0x88
 800281a:	f423 4240 	bic.w	r2, r3, #49152	; 0xc000
 800281e:	687b      	ldr	r3, [r7, #4]
 8002820:	6d5b      	ldr	r3, [r3, #84]	; 0x54
 8002822:	4948      	ldr	r1, [pc, #288]	; (8002944 <HAL_RCCEx_PeriphCLKConfig+0x4ec>)
 8002824:	4313      	orrs	r3, r2
 8002826:	f8c1 3088 	str.w	r3, [r1, #136]	; 0x88
  }

#endif /* I2C2 */

  /*-------------------------- I2C3 clock source configuration ---------------------*/
  if(((PeriphClkInit->PeriphClockSelection) & RCC_PERIPHCLK_I2C3) == RCC_PERIPHCLK_I2C3)
 800282a:	687b      	ldr	r3, [r7, #4]
 800282c:	681b      	ldr	r3, [r3, #0]
 800282e:	f403 7380 	and.w	r3, r3, #256	; 0x100
 8002832:	2b00      	cmp	r3, #0
 8002834:	d00a      	beq.n	800284c <HAL_RCCEx_PeriphCLKConfig+0x3f4>
  {
    /* Check the parameters */
    assert_param(IS_RCC_I2C3CLKSOURCE(PeriphClkInit->I2c3ClockSelection));

    /* Configure the I2C3 clock source */
    __HAL_RCC_I2C3_CONFIG(PeriphClkInit->I2c3ClockSelection);
 8002836:	4b43      	ldr	r3, [pc, #268]	; (8002944 <HAL_RCCEx_PeriphCLKConfig+0x4ec>)
 8002838:	f8d3 3088 	ldr.w	r3, [r3, #136]	; 0x88
 800283c:	f423 3240 	bic.w	r2, r3, #196608	; 0x30000
 8002840:	687b      	ldr	r3, [r7, #4]
 8002842:	6d9b      	ldr	r3, [r3, #88]	; 0x58
 8002844:	493f      	ldr	r1, [pc, #252]	; (8002944 <HAL_RCCEx_PeriphCLKConfig+0x4ec>)
 8002846:	4313      	orrs	r3, r2
 8002848:	f8c1 3088 	str.w	r3, [r1, #136]	; 0x88
#endif /* I2C4 */

#if defined(USB_OTG_FS) || defined(USB)

  /*-------------------------- USB clock source configuration ----------------------*/
  if(((PeriphClkInit->PeriphClockSelection) & RCC_PERIPHCLK_USB) == (RCC_PERIPHCLK_USB))
 800284c:	687b      	ldr	r3, [r7, #4]
 800284e:	681b      	ldr	r3, [r3, #0]
 8002850:	f403 5300 	and.w	r3, r3, #8192	; 0x2000
 8002854:	2b00      	cmp	r3, #0
 8002856:	d028      	beq.n	80028aa <HAL_RCCEx_PeriphCLKConfig+0x452>
  {
    assert_param(IS_RCC_USBCLKSOURCE(PeriphClkInit->UsbClockSelection));
    __HAL_RCC_USB_CONFIG(PeriphClkInit->UsbClockSelection);
 8002858:	4b3a      	ldr	r3, [pc, #232]	; (8002944 <HAL_RCCEx_PeriphCLKConfig+0x4ec>)
 800285a:	f8d3 3088 	ldr.w	r3, [r3, #136]	; 0x88
 800285e:	f023 6240 	bic.w	r2, r3, #201326592	; 0xc000000
 8002862:	687b      	ldr	r3, [r7, #4]
 8002864:	6edb      	ldr	r3, [r3, #108]	; 0x6c
 8002866:	4937      	ldr	r1, [pc, #220]	; (8002944 <HAL_RCCEx_PeriphCLKConfig+0x4ec>)
 8002868:	4313      	orrs	r3, r2
 800286a:	f8c1 3088 	str.w	r3, [r1, #136]	; 0x88

    if(PeriphClkInit->UsbClockSelection == RCC_USBCLKSOURCE_PLL)
 800286e:	687b      	ldr	r3, [r7, #4]
 8002870:	6edb      	ldr	r3, [r3, #108]	; 0x6c
 8002872:	f1b3 6f00 	cmp.w	r3, #134217728	; 0x8000000
 8002876:	d106      	bne.n	8002886 <HAL_RCCEx_PeriphCLKConfig+0x42e>
    {
      /* Enable PLL48M1CLK output clock */
      __HAL_RCC_PLLCLKOUT_ENABLE(RCC_PLL_48M1CLK);
 8002878:	4b32      	ldr	r3, [pc, #200]	; (8002944 <HAL_RCCEx_PeriphCLKConfig+0x4ec>)
 800287a:	68db      	ldr	r3, [r3, #12]
 800287c:	4a31      	ldr	r2, [pc, #196]	; (8002944 <HAL_RCCEx_PeriphCLKConfig+0x4ec>)
 800287e:	f443 1380 	orr.w	r3, r3, #1048576	; 0x100000
 8002882:	60d3      	str	r3, [r2, #12]
 8002884:	e011      	b.n	80028aa <HAL_RCCEx_PeriphCLKConfig+0x452>
    }
    else
    {
#if defined(RCC_PLLSAI1_SUPPORT)
      if(PeriphClkInit->UsbClockSelection == RCC_USBCLKSOURCE_PLLSAI1)
 8002886:	687b      	ldr	r3, [r7, #4]
 8002888:	6edb      	ldr	r3, [r3, #108]	; 0x6c
 800288a:	f1b3 6f80 	cmp.w	r3, #67108864	; 0x4000000
 800288e:	d10c      	bne.n	80028aa <HAL_RCCEx_PeriphCLKConfig+0x452>
      {
        /* PLLSAI1 input clock, parameters M, N & Q configuration and clock output (PLLSAI1ClockOut) */
        ret = RCCEx_PLLSAI1_Config(&(PeriphClkInit->PLLSAI1), DIVIDER_Q_UPDATE);
 8002890:	687b      	ldr	r3, [r7, #4]
 8002892:	3304      	adds	r3, #4
 8002894:	2101      	movs	r1, #1
 8002896:	4618      	mov	r0, r3
 8002898:	f000 f8c8 	bl	8002a2c <RCCEx_PLLSAI1_Config>
 800289c:	4603      	mov	r3, r0
 800289e:	74fb      	strb	r3, [r7, #19]

        if(ret != HAL_OK)
 80028a0:	7cfb      	ldrb	r3, [r7, #19]
 80028a2:	2b00      	cmp	r3, #0
 80028a4:	d001      	beq.n	80028aa <HAL_RCCEx_PeriphCLKConfig+0x452>
        {
          /* set overall return value */
          status = ret;
 80028a6:	7cfb      	ldrb	r3, [r7, #19]
 80028a8:	74bb      	strb	r3, [r7, #18]
#endif /* USB_OTG_FS || USB */

#if defined(SDMMC1)

  /*-------------------------- SDMMC1 clock source configuration -------------------*/
  if(((PeriphClkInit->PeriphClockSelection) & RCC_PERIPHCLK_SDMMC1) == (RCC_PERIPHCLK_SDMMC1))
 80028aa:	687b      	ldr	r3, [r7, #4]
 80028ac:	681b      	ldr	r3, [r3, #0]
 80028ae:	f403 2300 	and.w	r3, r3, #524288	; 0x80000
 80028b2:	2b00      	cmp	r3, #0
 80028b4:	d028      	beq.n	8002908 <HAL_RCCEx_PeriphCLKConfig+0x4b0>
  {
    assert_param(IS_RCC_SDMMC1CLKSOURCE(PeriphClkInit->Sdmmc1ClockSelection));
    __HAL_RCC_SDMMC1_CONFIG(PeriphClkInit->Sdmmc1ClockSelection);
 80028b6:	4b23      	ldr	r3, [pc, #140]	; (8002944 <HAL_RCCEx_PeriphCLKConfig+0x4ec>)
 80028b8:	f8d3 3088 	ldr.w	r3, [r3, #136]	; 0x88
 80028bc:	f023 6240 	bic.w	r2, r3, #201326592	; 0xc000000
 80028c0:	687b      	ldr	r3, [r7, #4]
 80028c2:	6f1b      	ldr	r3, [r3, #112]	; 0x70
 80028c4:	491f      	ldr	r1, [pc, #124]	; (8002944 <HAL_RCCEx_PeriphCLKConfig+0x4ec>)
 80028c6:	4313      	orrs	r3, r2
 80028c8:	f8c1 3088 	str.w	r3, [r1, #136]	; 0x88

    if(PeriphClkInit->Sdmmc1ClockSelection == RCC_SDMMC1CLKSOURCE_PLL)   /* PLL "Q" ? */
 80028cc:	687b      	ldr	r3, [r7, #4]
 80028ce:	6f1b      	ldr	r3, [r3, #112]	; 0x70
 80028d0:	f1b3 6f00 	cmp.w	r3, #134217728	; 0x8000000
 80028d4:	d106      	bne.n	80028e4 <HAL_RCCEx_PeriphCLKConfig+0x48c>
    {
      /* Enable PLL48M1CLK output clock */
      __HAL_RCC_PLLCLKOUT_ENABLE(RCC_PLL_48M1CLK);
 80028d6:	4b1b      	ldr	r3, [pc, #108]	; (8002944 <HAL_RCCEx_PeriphCLKConfig+0x4ec>)
 80028d8:	68db      	ldr	r3, [r3, #12]
 80028da:	4a1a      	ldr	r2, [pc, #104]	; (8002944 <HAL_RCCEx_PeriphCLKConfig+0x4ec>)
 80028dc:	f443 1380 	orr.w	r3, r3, #1048576	; 0x100000
 80028e0:	60d3      	str	r3, [r2, #12]
 80028e2:	e011      	b.n	8002908 <HAL_RCCEx_PeriphCLKConfig+0x4b0>
    {
      /* Enable PLLSAI3CLK output */
      __HAL_RCC_PLLCLKOUT_ENABLE(RCC_PLL_SAI3CLK);
    }
#endif
    else if(PeriphClkInit->Sdmmc1ClockSelection == RCC_SDMMC1CLKSOURCE_PLLSAI1)
 80028e4:	687b      	ldr	r3, [r7, #4]
 80028e6:	6f1b      	ldr	r3, [r3, #112]	; 0x70
 80028e8:	f1b3 6f80 	cmp.w	r3, #67108864	; 0x4000000
 80028ec:	d10c      	bne.n	8002908 <HAL_RCCEx_PeriphCLKConfig+0x4b0>
    {
      /* PLLSAI1 input clock, parameters M, N & Q configuration and clock output (PLLSAI1ClockOut) */
      ret = RCCEx_PLLSAI1_Config(&(PeriphClkInit->PLLSAI1), DIVIDER_Q_UPDATE);
 80028ee:	687b      	ldr	r3, [r7, #4]
 80028f0:	3304      	adds	r3, #4
 80028f2:	2101      	movs	r1, #1
 80028f4:	4618      	mov	r0, r3
 80028f6:	f000 f899 	bl	8002a2c <RCCEx_PLLSAI1_Config>
 80028fa:	4603      	mov	r3, r0
 80028fc:	74fb      	strb	r3, [r7, #19]

      if(ret != HAL_OK)
 80028fe:	7cfb      	ldrb	r3, [r7, #19]
 8002900:	2b00      	cmp	r3, #0
 8002902:	d001      	beq.n	8002908 <HAL_RCCEx_PeriphCLKConfig+0x4b0>
      {
        /* set overall return value */
        status = ret;
 8002904:	7cfb      	ldrb	r3, [r7, #19]
 8002906:	74bb      	strb	r3, [r7, #18]
  }

#endif /* SDMMC1 */

  /*-------------------------- RNG clock source configuration ----------------------*/
  if(((PeriphClkInit->PeriphClockSelection) & RCC_PERIPHCLK_RNG) == (RCC_PERIPHCLK_RNG))
 8002908:	687b      	ldr	r3, [r7, #4]
 800290a:	681b      	ldr	r3, [r3, #0]
 800290c:	f403 2380 	and.w	r3, r3, #262144	; 0x40000
 8002910:	2b00      	cmp	r3, #0
 8002912:	d02b      	beq.n	800296c <HAL_RCCEx_PeriphCLKConfig+0x514>
  {
    assert_param(IS_RCC_RNGCLKSOURCE(PeriphClkInit->RngClockSelection));
    __HAL_RCC_RNG_CONFIG(PeriphClkInit->RngClockSelection);
 8002914:	4b0b      	ldr	r3, [pc, #44]	; (8002944 <HAL_RCCEx_PeriphCLKConfig+0x4ec>)
 8002916:	f8d3 3088 	ldr.w	r3, [r3, #136]	; 0x88
 800291a:	f023 6240 	bic.w	r2, r3, #201326592	; 0xc000000
 800291e:	687b      	ldr	r3, [r7, #4]
 8002920:	6f5b      	ldr	r3, [r3, #116]	; 0x74
 8002922:	4908      	ldr	r1, [pc, #32]	; (8002944 <HAL_RCCEx_PeriphCLKConfig+0x4ec>)
 8002924:	4313      	orrs	r3, r2
 8002926:	f8c1 3088 	str.w	r3, [r1, #136]	; 0x88

    if(PeriphClkInit->RngClockSelection == RCC_RNGCLKSOURCE_PLL)
 800292a:	687b      	ldr	r3, [r7, #4]
 800292c:	6f5b      	ldr	r3, [r3, #116]	; 0x74
 800292e:	f1b3 6f00 	cmp.w	r3, #134217728	; 0x8000000
 8002932:	d109      	bne.n	8002948 <HAL_RCCEx_PeriphCLKConfig+0x4f0>
    {
      /* Enable PLL48M1CLK output clock */
      __HAL_RCC_PLLCLKOUT_ENABLE(RCC_PLL_48M1CLK);
 8002934:	4b03      	ldr	r3, [pc, #12]	; (8002944 <HAL_RCCEx_PeriphCLKConfig+0x4ec>)
 8002936:	68db      	ldr	r3, [r3, #12]
 8002938:	4a02      	ldr	r2, [pc, #8]	; (8002944 <HAL_RCCEx_PeriphCLKConfig+0x4ec>)
 800293a:	f443 1380 	orr.w	r3, r3, #1048576	; 0x100000
 800293e:	60d3      	str	r3, [r2, #12]
 8002940:	e014      	b.n	800296c <HAL_RCCEx_PeriphCLKConfig+0x514>
 8002942:	bf00      	nop
 8002944:	40021000 	.word	0x40021000
    }
#if defined(RCC_PLLSAI1_SUPPORT)
    else if(PeriphClkInit->RngClockSelection == RCC_RNGCLKSOURCE_PLLSAI1)
 8002948:	687b      	ldr	r3, [r7, #4]
 800294a:	6f5b      	ldr	r3, [r3, #116]	; 0x74
 800294c:	f1b3 6f80 	cmp.w	r3, #67108864	; 0x4000000
 8002950:	d10c      	bne.n	800296c <HAL_RCCEx_PeriphCLKConfig+0x514>
    {
      /* PLLSAI1 input clock, parameters M, N & Q configuration and clock output (PLLSAI1ClockOut) */
      ret = RCCEx_PLLSAI1_Config(&(PeriphClkInit->PLLSAI1), DIVIDER_Q_UPDATE);
 8002952:	687b      	ldr	r3, [r7, #4]
 8002954:	3304      	adds	r3, #4
 8002956:	2101      	movs	r1, #1
 8002958:	4618      	mov	r0, r3
 800295a:	f000 f867 	bl	8002a2c <RCCEx_PLLSAI1_Config>
 800295e:	4603      	mov	r3, r0
 8002960:	74fb      	strb	r3, [r7, #19]

      if(ret != HAL_OK)
 8002962:	7cfb      	ldrb	r3, [r7, #19]
 8002964:	2b00      	cmp	r3, #0
 8002966:	d001      	beq.n	800296c <HAL_RCCEx_PeriphCLKConfig+0x514>
      {
        /* set overall return value */
        status = ret;
 8002968:	7cfb      	ldrb	r3, [r7, #19]
 800296a:	74bb      	strb	r3, [r7, #18]
    }
  }

  /*-------------------------- ADC clock source configuration ----------------------*/
#if !defined(STM32L412xx) && !defined(STM32L422xx)
  if(((PeriphClkInit->PeriphClockSelection) & RCC_PERIPHCLK_ADC) == RCC_PERIPHCLK_ADC)
 800296c:	687b      	ldr	r3, [r7, #4]
 800296e:	681b      	ldr	r3, [r3, #0]
 8002970:	f403 4380 	and.w	r3, r3, #16384	; 0x4000
 8002974:	2b00      	cmp	r3, #0
 8002976:	d02f      	beq.n	80029d8 <HAL_RCCEx_PeriphCLKConfig+0x580>
  {
    /* Check the parameters */
    assert_param(IS_RCC_ADCCLKSOURCE(PeriphClkInit->AdcClockSelection));

    /* Configure the ADC interface clock source */
    __HAL_RCC_ADC_CONFIG(PeriphClkInit->AdcClockSelection);
 8002978:	4b2b      	ldr	r3, [pc, #172]	; (8002a28 <HAL_RCCEx_PeriphCLKConfig+0x5d0>)
 800297a:	f8d3 3088 	ldr.w	r3, [r3, #136]	; 0x88
 800297e:	f023 5240 	bic.w	r2, r3, #805306368	; 0x30000000
 8002982:	687b      	ldr	r3, [r7, #4]
 8002984:	6f9b      	ldr	r3, [r3, #120]	; 0x78
 8002986:	4928      	ldr	r1, [pc, #160]	; (8002a28 <HAL_RCCEx_PeriphCLKConfig+0x5d0>)
 8002988:	4313      	orrs	r3, r2
 800298a:	f8c1 3088 	str.w	r3, [r1, #136]	; 0x88

#if defined(RCC_PLLSAI1_SUPPORT)
    if(PeriphClkInit->AdcClockSelection == RCC_ADCCLKSOURCE_PLLSAI1)
 800298e:	687b      	ldr	r3, [r7, #4]
 8002990:	6f9b      	ldr	r3, [r3, #120]	; 0x78
 8002992:	f1b3 5f80 	cmp.w	r3, #268435456	; 0x10000000
 8002996:	d10d      	bne.n	80029b4 <HAL_RCCEx_PeriphCLKConfig+0x55c>
    {
      /* PLLSAI1 input clock, parameters M, N & R configuration and clock output (PLLSAI1ClockOut) */
      ret = RCCEx_PLLSAI1_Config(&(PeriphClkInit->PLLSAI1), DIVIDER_R_UPDATE);
 8002998:	687b      	ldr	r3, [r7, #4]
 800299a:	3304      	adds	r3, #4
 800299c:	2102      	movs	r1, #2
 800299e:	4618      	mov	r0, r3
 80029a0:	f000 f844 	bl	8002a2c <RCCEx_PLLSAI1_Config>
 80029a4:	4603      	mov	r3, r0
 80029a6:	74fb      	strb	r3, [r7, #19]

      if(ret != HAL_OK)
 80029a8:	7cfb      	ldrb	r3, [r7, #19]
 80029aa:	2b00      	cmp	r3, #0
 80029ac:	d014      	beq.n	80029d8 <HAL_RCCEx_PeriphCLKConfig+0x580>
      {
        /* set overall return value */
        status = ret;
 80029ae:	7cfb      	ldrb	r3, [r7, #19]
 80029b0:	74bb      	strb	r3, [r7, #18]
 80029b2:	e011      	b.n	80029d8 <HAL_RCCEx_PeriphCLKConfig+0x580>
    }
#endif /* RCC_PLLSAI1_SUPPORT */

#if defined(STM32L471xx) || defined(STM32L475xx) || defined(STM32L476xx) || defined(STM32L485xx) || defined(STM32L486xx) || defined(STM32L496xx) || defined(STM32L4A6xx)

    else if(PeriphClkInit->AdcClockSelection == RCC_ADCCLKSOURCE_PLLSAI2)
 80029b4:	687b      	ldr	r3, [r7, #4]
 80029b6:	6f9b      	ldr	r3, [r3, #120]	; 0x78
 80029b8:	f1b3 5f00 	cmp.w	r3, #536870912	; 0x20000000
 80029bc:	d10c      	bne.n	80029d8 <HAL_RCCEx_PeriphCLKConfig+0x580>
    {
      /* PLLSAI2 input clock, parameters M, N & R configuration and clock output (PLLSAI2ClockOut) */
      ret = RCCEx_PLLSAI2_Config(&(PeriphClkInit->PLLSAI2), DIVIDER_R_UPDATE);
 80029be:	687b      	ldr	r3, [r7, #4]
 80029c0:	3320      	adds	r3, #32
 80029c2:	2102      	movs	r1, #2
 80029c4:	4618      	mov	r0, r3
 80029c6:	f000 f925 	bl	8002c14 <RCCEx_PLLSAI2_Config>
 80029ca:	4603      	mov	r3, r0
 80029cc:	74fb      	strb	r3, [r7, #19]

      if(ret != HAL_OK)
 80029ce:	7cfb      	ldrb	r3, [r7, #19]
 80029d0:	2b00      	cmp	r3, #0
 80029d2:	d001      	beq.n	80029d8 <HAL_RCCEx_PeriphCLKConfig+0x580>
      {
        /* set overall return value */
        status = ret;
 80029d4:	7cfb      	ldrb	r3, [r7, #19]
 80029d6:	74bb      	strb	r3, [r7, #18]
#endif /* !STM32L412xx && !STM32L422xx */

#if defined(SWPMI1)

  /*-------------------------- SWPMI1 clock source configuration -------------------*/
  if(((PeriphClkInit->PeriphClockSelection) & RCC_PERIPHCLK_SWPMI1) == RCC_PERIPHCLK_SWPMI1)
 80029d8:	687b      	ldr	r3, [r7, #4]
 80029da:	681b      	ldr	r3, [r3, #0]
 80029dc:	f403 4300 	and.w	r3, r3, #32768	; 0x8000
 80029e0:	2b00      	cmp	r3, #0
 80029e2:	d00a      	beq.n	80029fa <HAL_RCCEx_PeriphCLKConfig+0x5a2>
  {
    /* Check the parameters */
    assert_param(IS_RCC_SWPMI1CLKSOURCE(PeriphClkInit->Swpmi1ClockSelection));

    /* Configure the SWPMI1 clock source */
    __HAL_RCC_SWPMI1_CONFIG(PeriphClkInit->Swpmi1ClockSelection);
 80029e4:	4b10      	ldr	r3, [pc, #64]	; (8002a28 <HAL_RCCEx_PeriphCLKConfig+0x5d0>)
 80029e6:	f8d3 3088 	ldr.w	r3, [r3, #136]	; 0x88
 80029ea:	f023 4280 	bic.w	r2, r3, #1073741824	; 0x40000000
 80029ee:	687b      	ldr	r3, [r7, #4]
 80029f0:	6fdb      	ldr	r3, [r3, #124]	; 0x7c
 80029f2:	490d      	ldr	r1, [pc, #52]	; (8002a28 <HAL_RCCEx_PeriphCLKConfig+0x5d0>)
 80029f4:	4313      	orrs	r3, r2
 80029f6:	f8c1 3088 	str.w	r3, [r1, #136]	; 0x88
#endif /* SWPMI1 */

#if defined(DFSDM1_Filter0)

  /*-------------------------- DFSDM1 clock source configuration -------------------*/
  if(((PeriphClkInit->PeriphClockSelection) & RCC_PERIPHCLK_DFSDM1) == RCC_PERIPHCLK_DFSDM1)
 80029fa:	687b      	ldr	r3, [r7, #4]
 80029fc:	681b      	ldr	r3, [r3, #0]
 80029fe:	f403 3380 	and.w	r3, r3, #65536	; 0x10000
 8002a02:	2b00      	cmp	r3, #0
 8002a04:	d00b      	beq.n	8002a1e <HAL_RCCEx_PeriphCLKConfig+0x5c6>
  {
    /* Check the parameters */
    assert_param(IS_RCC_DFSDM1CLKSOURCE(PeriphClkInit->Dfsdm1ClockSelection));

    /* Configure the DFSDM1 interface clock source */
    __HAL_RCC_DFSDM1_CONFIG(PeriphClkInit->Dfsdm1ClockSelection);
 8002a06:	4b08      	ldr	r3, [pc, #32]	; (8002a28 <HAL_RCCEx_PeriphCLKConfig+0x5d0>)
 8002a08:	f8d3 3088 	ldr.w	r3, [r3, #136]	; 0x88
 8002a0c:	f023 4200 	bic.w	r2, r3, #2147483648	; 0x80000000
 8002a10:	687b      	ldr	r3, [r7, #4]
 8002a12:	f8d3 3080 	ldr.w	r3, [r3, #128]	; 0x80
 8002a16:	4904      	ldr	r1, [pc, #16]	; (8002a28 <HAL_RCCEx_PeriphCLKConfig+0x5d0>)
 8002a18:	4313      	orrs	r3, r2
 8002a1a:	f8c1 3088 	str.w	r3, [r1, #136]	; 0x88
    }
  }

#endif /* OCTOSPI1 || OCTOSPI2 */

  return status;
 8002a1e:	7cbb      	ldrb	r3, [r7, #18]
}
 8002a20:	4618      	mov	r0, r3
 8002a22:	3718      	adds	r7, #24
 8002a24:	46bd      	mov	sp, r7
 8002a26:	bd80      	pop	{r7, pc}
 8002a28:	40021000 	.word	0x40021000

08002a2c <RCCEx_PLLSAI1_Config>:
  * @note   PLLSAI1 is temporary disable to apply new parameters
  *
  * @retval HAL status
  */
static HAL_StatusTypeDef RCCEx_PLLSAI1_Config(RCC_PLLSAI1InitTypeDef *PllSai1, uint32_t Divider)
{
 8002a2c:	b580      	push	{r7, lr}
 8002a2e:	b084      	sub	sp, #16
 8002a30:	af00      	add	r7, sp, #0
 8002a32:	6078      	str	r0, [r7, #4]
 8002a34:	6039      	str	r1, [r7, #0]
  uint32_t tickstart;
  HAL_StatusTypeDef status = HAL_OK;
 8002a36:	2300      	movs	r3, #0
 8002a38:	73fb      	strb	r3, [r7, #15]
  assert_param(IS_RCC_PLLSAI1M_VALUE(PllSai1->PLLSAI1M));
  assert_param(IS_RCC_PLLSAI1N_VALUE(PllSai1->PLLSAI1N));
  assert_param(IS_RCC_PLLSAI1CLOCKOUT_VALUE(PllSai1->PLLSAI1ClockOut));

  /* Check that PLLSAI1 clock source and divider M can be applied */
  if(__HAL_RCC_GET_PLL_OSCSOURCE() != RCC_PLLSOURCE_NONE)
 8002a3a:	4b75      	ldr	r3, [pc, #468]	; (8002c10 <RCCEx_PLLSAI1_Config+0x1e4>)
 8002a3c:	68db      	ldr	r3, [r3, #12]
 8002a3e:	f003 0303 	and.w	r3, r3, #3
 8002a42:	2b00      	cmp	r3, #0
 8002a44:	d018      	beq.n	8002a78 <RCCEx_PLLSAI1_Config+0x4c>
  {
    /* PLL clock source and divider M already set, check that no request for change  */
    if((__HAL_RCC_GET_PLL_OSCSOURCE() != PllSai1->PLLSAI1Source)
 8002a46:	4b72      	ldr	r3, [pc, #456]	; (8002c10 <RCCEx_PLLSAI1_Config+0x1e4>)
 8002a48:	68db      	ldr	r3, [r3, #12]
 8002a4a:	f003 0203 	and.w	r2, r3, #3
 8002a4e:	687b      	ldr	r3, [r7, #4]
 8002a50:	681b      	ldr	r3, [r3, #0]
 8002a52:	429a      	cmp	r2, r3
 8002a54:	d10d      	bne.n	8002a72 <RCCEx_PLLSAI1_Config+0x46>
       ||
       (PllSai1->PLLSAI1Source == RCC_PLLSOURCE_NONE)
 8002a56:	687b      	ldr	r3, [r7, #4]
 8002a58:	681b      	ldr	r3, [r3, #0]
       ||
 8002a5a:	2b00      	cmp	r3, #0
 8002a5c:	d009      	beq.n	8002a72 <RCCEx_PLLSAI1_Config+0x46>
#if !defined(RCC_PLLSAI1M_DIV_1_16_SUPPORT)
       ||
       (((READ_BIT(RCC->PLLCFGR, RCC_PLLCFGR_PLLM) >> RCC_PLLCFGR_PLLM_Pos) + 1U) != PllSai1->PLLSAI1M)
 8002a5e:	4b6c      	ldr	r3, [pc, #432]	; (8002c10 <RCCEx_PLLSAI1_Config+0x1e4>)
 8002a60:	68db      	ldr	r3, [r3, #12]
 8002a62:	091b      	lsrs	r3, r3, #4
 8002a64:	f003 0307 	and.w	r3, r3, #7
 8002a68:	1c5a      	adds	r2, r3, #1
 8002a6a:	687b      	ldr	r3, [r7, #4]
 8002a6c:	685b      	ldr	r3, [r3, #4]
       ||
 8002a6e:	429a      	cmp	r2, r3
 8002a70:	d047      	beq.n	8002b02 <RCCEx_PLLSAI1_Config+0xd6>
#endif
      )
    {
      status = HAL_ERROR;
 8002a72:	2301      	movs	r3, #1
 8002a74:	73fb      	strb	r3, [r7, #15]
 8002a76:	e044      	b.n	8002b02 <RCCEx_PLLSAI1_Config+0xd6>
    }
  }
  else
  {
    /* Check PLLSAI1 clock source availability */
    switch(PllSai1->PLLSAI1Source)
 8002a78:	687b      	ldr	r3, [r7, #4]
 8002a7a:	681b      	ldr	r3, [r3, #0]
 8002a7c:	2b03      	cmp	r3, #3
 8002a7e:	d018      	beq.n	8002ab2 <RCCEx_PLLSAI1_Config+0x86>
 8002a80:	2b03      	cmp	r3, #3
 8002a82:	d825      	bhi.n	8002ad0 <RCCEx_PLLSAI1_Config+0xa4>
 8002a84:	2b01      	cmp	r3, #1
 8002a86:	d002      	beq.n	8002a8e <RCCEx_PLLSAI1_Config+0x62>
 8002a88:	2b02      	cmp	r3, #2
 8002a8a:	d009      	beq.n	8002aa0 <RCCEx_PLLSAI1_Config+0x74>
 8002a8c:	e020      	b.n	8002ad0 <RCCEx_PLLSAI1_Config+0xa4>
    {
    case RCC_PLLSOURCE_MSI:
      if(HAL_IS_BIT_CLR(RCC->CR, RCC_CR_MSIRDY))
 8002a8e:	4b60      	ldr	r3, [pc, #384]	; (8002c10 <RCCEx_PLLSAI1_Config+0x1e4>)
 8002a90:	681b      	ldr	r3, [r3, #0]
 8002a92:	f003 0302 	and.w	r3, r3, #2
 8002a96:	2b00      	cmp	r3, #0
 8002a98:	d11d      	bne.n	8002ad6 <RCCEx_PLLSAI1_Config+0xaa>
      {
        status = HAL_ERROR;
 8002a9a:	2301      	movs	r3, #1
 8002a9c:	73fb      	strb	r3, [r7, #15]
      }
      break;
 8002a9e:	e01a      	b.n	8002ad6 <RCCEx_PLLSAI1_Config+0xaa>
    case RCC_PLLSOURCE_HSI:
      if(HAL_IS_BIT_CLR(RCC->CR, RCC_CR_HSIRDY))
 8002aa0:	4b5b      	ldr	r3, [pc, #364]	; (8002c10 <RCCEx_PLLSAI1_Config+0x1e4>)
 8002aa2:	681b      	ldr	r3, [r3, #0]
 8002aa4:	f403 6380 	and.w	r3, r3, #1024	; 0x400
 8002aa8:	2b00      	cmp	r3, #0
 8002aaa:	d116      	bne.n	8002ada <RCCEx_PLLSAI1_Config+0xae>
      {
        status = HAL_ERROR;
 8002aac:	2301      	movs	r3, #1
 8002aae:	73fb      	strb	r3, [r7, #15]
      }
      break;
 8002ab0:	e013      	b.n	8002ada <RCCEx_PLLSAI1_Config+0xae>
    case RCC_PLLSOURCE_HSE:
      if(HAL_IS_BIT_CLR(RCC->CR, RCC_CR_HSERDY))
 8002ab2:	4b57      	ldr	r3, [pc, #348]	; (8002c10 <RCCEx_PLLSAI1_Config+0x1e4>)
 8002ab4:	681b      	ldr	r3, [r3, #0]
 8002ab6:	f403 3300 	and.w	r3, r3, #131072	; 0x20000
 8002aba:	2b00      	cmp	r3, #0
 8002abc:	d10f      	bne.n	8002ade <RCCEx_PLLSAI1_Config+0xb2>
      {
        if(HAL_IS_BIT_CLR(RCC->CR, RCC_CR_HSEBYP))
 8002abe:	4b54      	ldr	r3, [pc, #336]	; (8002c10 <RCCEx_PLLSAI1_Config+0x1e4>)
 8002ac0:	681b      	ldr	r3, [r3, #0]
 8002ac2:	f403 2380 	and.w	r3, r3, #262144	; 0x40000
 8002ac6:	2b00      	cmp	r3, #0
 8002ac8:	d109      	bne.n	8002ade <RCCEx_PLLSAI1_Config+0xb2>
        {
          status = HAL_ERROR;
 8002aca:	2301      	movs	r3, #1
 8002acc:	73fb      	strb	r3, [r7, #15]
        }
      }
      break;
 8002ace:	e006      	b.n	8002ade <RCCEx_PLLSAI1_Config+0xb2>
    default:
      status = HAL_ERROR;
 8002ad0:	2301      	movs	r3, #1
 8002ad2:	73fb      	strb	r3, [r7, #15]
      break;
 8002ad4:	e004      	b.n	8002ae0 <RCCEx_PLLSAI1_Config+0xb4>
      break;
 8002ad6:	bf00      	nop
 8002ad8:	e002      	b.n	8002ae0 <RCCEx_PLLSAI1_Config+0xb4>
      break;
 8002ada:	bf00      	nop
 8002adc:	e000      	b.n	8002ae0 <RCCEx_PLLSAI1_Config+0xb4>
      break;
 8002ade:	bf00      	nop
    }

    if(status == HAL_OK)
 8002ae0:	7bfb      	ldrb	r3, [r7, #15]
 8002ae2:	2b00      	cmp	r3, #0
 8002ae4:	d10d      	bne.n	8002b02 <RCCEx_PLLSAI1_Config+0xd6>
#if defined(RCC_PLLSAI1M_DIV_1_16_SUPPORT)
      /* Set PLLSAI1 clock source */
      MODIFY_REG(RCC->PLLCFGR, RCC_PLLCFGR_PLLSRC, PllSai1->PLLSAI1Source);
#else
      /* Set PLLSAI1 clock source and divider M */
      MODIFY_REG(RCC->PLLCFGR, RCC_PLLCFGR_PLLSRC | RCC_PLLCFGR_PLLM, PllSai1->PLLSAI1Source | (PllSai1->PLLSAI1M - 1U) << RCC_PLLCFGR_PLLM_Pos);
 8002ae6:	4b4a      	ldr	r3, [pc, #296]	; (8002c10 <RCCEx_PLLSAI1_Config+0x1e4>)
 8002ae8:	68db      	ldr	r3, [r3, #12]
 8002aea:	f023 0273 	bic.w	r2, r3, #115	; 0x73
 8002aee:	687b      	ldr	r3, [r7, #4]
 8002af0:	6819      	ldr	r1, [r3, #0]
 8002af2:	687b      	ldr	r3, [r7, #4]
 8002af4:	685b      	ldr	r3, [r3, #4]
 8002af6:	3b01      	subs	r3, #1
 8002af8:	011b      	lsls	r3, r3, #4
 8002afa:	430b      	orrs	r3, r1
 8002afc:	4944      	ldr	r1, [pc, #272]	; (8002c10 <RCCEx_PLLSAI1_Config+0x1e4>)
 8002afe:	4313      	orrs	r3, r2
 8002b00:	60cb      	str	r3, [r1, #12]
#endif
    }
  }

  if(status == HAL_OK)
 8002b02:	7bfb      	ldrb	r3, [r7, #15]
 8002b04:	2b00      	cmp	r3, #0
 8002b06:	d17d      	bne.n	8002c04 <RCCEx_PLLSAI1_Config+0x1d8>
  {
    /* Disable the PLLSAI1 */
    __HAL_RCC_PLLSAI1_DISABLE();
 8002b08:	4b41      	ldr	r3, [pc, #260]	; (8002c10 <RCCEx_PLLSAI1_Config+0x1e4>)
 8002b0a:	681b      	ldr	r3, [r3, #0]
 8002b0c:	4a40      	ldr	r2, [pc, #256]	; (8002c10 <RCCEx_PLLSAI1_Config+0x1e4>)
 8002b0e:	f023 6380 	bic.w	r3, r3, #67108864	; 0x4000000
 8002b12:	6013      	str	r3, [r2, #0]

    /* Get Start Tick*/
    tickstart = HAL_GetTick();
 8002b14:	f7fe f818 	bl	8000b48 <HAL_GetTick>
 8002b18:	60b8      	str	r0, [r7, #8]

    /* Wait till PLLSAI1 is ready to be updated */
    while(READ_BIT(RCC->CR, RCC_CR_PLLSAI1RDY) != 0U)
 8002b1a:	e009      	b.n	8002b30 <RCCEx_PLLSAI1_Config+0x104>
    {
      if((HAL_GetTick() - tickstart) > PLLSAI1_TIMEOUT_VALUE)
 8002b1c:	f7fe f814 	bl	8000b48 <HAL_GetTick>
 8002b20:	4602      	mov	r2, r0
 8002b22:	68bb      	ldr	r3, [r7, #8]
 8002b24:	1ad3      	subs	r3, r2, r3
 8002b26:	2b02      	cmp	r3, #2
 8002b28:	d902      	bls.n	8002b30 <RCCEx_PLLSAI1_Config+0x104>
      {
        status = HAL_TIMEOUT;
 8002b2a:	2303      	movs	r3, #3
 8002b2c:	73fb      	strb	r3, [r7, #15]
        break;
 8002b2e:	e005      	b.n	8002b3c <RCCEx_PLLSAI1_Config+0x110>
    while(READ_BIT(RCC->CR, RCC_CR_PLLSAI1RDY) != 0U)
 8002b30:	4b37      	ldr	r3, [pc, #220]	; (8002c10 <RCCEx_PLLSAI1_Config+0x1e4>)
 8002b32:	681b      	ldr	r3, [r3, #0]
 8002b34:	f003 6300 	and.w	r3, r3, #134217728	; 0x8000000
 8002b38:	2b00      	cmp	r3, #0
 8002b3a:	d1ef      	bne.n	8002b1c <RCCEx_PLLSAI1_Config+0xf0>
      }
    }

    if(status == HAL_OK)
 8002b3c:	7bfb      	ldrb	r3, [r7, #15]
 8002b3e:	2b00      	cmp	r3, #0
 8002b40:	d160      	bne.n	8002c04 <RCCEx_PLLSAI1_Config+0x1d8>
    {
      if(Divider == DIVIDER_P_UPDATE)
 8002b42:	683b      	ldr	r3, [r7, #0]
 8002b44:	2b00      	cmp	r3, #0
 8002b46:	d111      	bne.n	8002b6c <RCCEx_PLLSAI1_Config+0x140>
        MODIFY_REG(RCC->PLLSAI1CFGR,
                   RCC_PLLSAI1CFGR_PLLSAI1N | RCC_PLLSAI1CFGR_PLLSAI1PDIV,
                   (PllSai1->PLLSAI1N << RCC_PLLSAI1CFGR_PLLSAI1N_Pos) |
                   (PllSai1->PLLSAI1P << RCC_PLLSAI1CFGR_PLLSAI1PDIV_Pos));
#else
        MODIFY_REG(RCC->PLLSAI1CFGR,
 8002b48:	4b31      	ldr	r3, [pc, #196]	; (8002c10 <RCCEx_PLLSAI1_Config+0x1e4>)
 8002b4a:	691b      	ldr	r3, [r3, #16]
 8002b4c:	f423 331f 	bic.w	r3, r3, #162816	; 0x27c00
 8002b50:	f423 7340 	bic.w	r3, r3, #768	; 0x300
 8002b54:	687a      	ldr	r2, [r7, #4]
 8002b56:	6892      	ldr	r2, [r2, #8]
 8002b58:	0211      	lsls	r1, r2, #8
 8002b5a:	687a      	ldr	r2, [r7, #4]
 8002b5c:	68d2      	ldr	r2, [r2, #12]
 8002b5e:	0912      	lsrs	r2, r2, #4
 8002b60:	0452      	lsls	r2, r2, #17
 8002b62:	430a      	orrs	r2, r1
 8002b64:	492a      	ldr	r1, [pc, #168]	; (8002c10 <RCCEx_PLLSAI1_Config+0x1e4>)
 8002b66:	4313      	orrs	r3, r2
 8002b68:	610b      	str	r3, [r1, #16]
 8002b6a:	e027      	b.n	8002bbc <RCCEx_PLLSAI1_Config+0x190>
                   ((PllSai1->PLLSAI1P >> 4U) << RCC_PLLSAI1CFGR_PLLSAI1P_Pos));
#endif /* RCC_PLLSAI1P_DIV_2_31_SUPPORT */

#endif /* RCC_PLLSAI1M_DIV_1_16_SUPPORT */
      }
      else if(Divider == DIVIDER_Q_UPDATE)
 8002b6c:	683b      	ldr	r3, [r7, #0]
 8002b6e:	2b01      	cmp	r3, #1
 8002b70:	d112      	bne.n	8002b98 <RCCEx_PLLSAI1_Config+0x16c>
                   (PllSai1->PLLSAI1N << RCC_PLLSAI1CFGR_PLLSAI1N_Pos) |
                   (((PllSai1->PLLSAI1Q >> 1U) - 1U) << RCC_PLLSAI1CFGR_PLLSAI1Q_Pos) |
                   ((PllSai1->PLLSAI1M - 1U) << RCC_PLLSAI1CFGR_PLLSAI1M_Pos));
#else
        /* Configure the PLLSAI1 Division factor Q and Multiplication factor N*/
        MODIFY_REG(RCC->PLLSAI1CFGR,
 8002b72:	4b27      	ldr	r3, [pc, #156]	; (8002c10 <RCCEx_PLLSAI1_Config+0x1e4>)
 8002b74:	691b      	ldr	r3, [r3, #16]
 8002b76:	f423 03c0 	bic.w	r3, r3, #6291456	; 0x600000
 8002b7a:	f423 43fe 	bic.w	r3, r3, #32512	; 0x7f00
 8002b7e:	687a      	ldr	r2, [r7, #4]
 8002b80:	6892      	ldr	r2, [r2, #8]
 8002b82:	0211      	lsls	r1, r2, #8
 8002b84:	687a      	ldr	r2, [r7, #4]
 8002b86:	6912      	ldr	r2, [r2, #16]
 8002b88:	0852      	lsrs	r2, r2, #1
 8002b8a:	3a01      	subs	r2, #1
 8002b8c:	0552      	lsls	r2, r2, #21
 8002b8e:	430a      	orrs	r2, r1
 8002b90:	491f      	ldr	r1, [pc, #124]	; (8002c10 <RCCEx_PLLSAI1_Config+0x1e4>)
 8002b92:	4313      	orrs	r3, r2
 8002b94:	610b      	str	r3, [r1, #16]
 8002b96:	e011      	b.n	8002bbc <RCCEx_PLLSAI1_Config+0x190>
                   (PllSai1->PLLSAI1N << RCC_PLLSAI1CFGR_PLLSAI1N_Pos) |
                   (((PllSai1->PLLSAI1R >> 1U) - 1U) << RCC_PLLSAI1CFGR_PLLSAI1R_Pos) |
                   ((PllSai1->PLLSAI1M - 1U) << RCC_PLLSAI1CFGR_PLLSAI1M_Pos));
#else
        /* Configure the PLLSAI1 Division factor R and Multiplication factor N*/
        MODIFY_REG(RCC->PLLSAI1CFGR,
 8002b98:	4b1d      	ldr	r3, [pc, #116]	; (8002c10 <RCCEx_PLLSAI1_Config+0x1e4>)
 8002b9a:	691b      	ldr	r3, [r3, #16]
 8002b9c:	f023 63c0 	bic.w	r3, r3, #100663296	; 0x6000000
 8002ba0:	f423 43fe 	bic.w	r3, r3, #32512	; 0x7f00
 8002ba4:	687a      	ldr	r2, [r7, #4]
 8002ba6:	6892      	ldr	r2, [r2, #8]
 8002ba8:	0211      	lsls	r1, r2, #8
 8002baa:	687a      	ldr	r2, [r7, #4]
 8002bac:	6952      	ldr	r2, [r2, #20]
 8002bae:	0852      	lsrs	r2, r2, #1
 8002bb0:	3a01      	subs	r2, #1
 8002bb2:	0652      	lsls	r2, r2, #25
 8002bb4:	430a      	orrs	r2, r1
 8002bb6:	4916      	ldr	r1, [pc, #88]	; (8002c10 <RCCEx_PLLSAI1_Config+0x1e4>)
 8002bb8:	4313      	orrs	r3, r2
 8002bba:	610b      	str	r3, [r1, #16]
                   (((PllSai1->PLLSAI1R >> 1U) - 1U) << RCC_PLLSAI1CFGR_PLLSAI1R_Pos));
#endif /* RCC_PLLSAI1M_DIV_1_16_SUPPORT */
      }

      /* Enable the PLLSAI1 again by setting PLLSAI1ON to 1*/
      __HAL_RCC_PLLSAI1_ENABLE();
 8002bbc:	4b14      	ldr	r3, [pc, #80]	; (8002c10 <RCCEx_PLLSAI1_Config+0x1e4>)
 8002bbe:	681b      	ldr	r3, [r3, #0]
 8002bc0:	4a13      	ldr	r2, [pc, #76]	; (8002c10 <RCCEx_PLLSAI1_Config+0x1e4>)
 8002bc2:	f043 6380 	orr.w	r3, r3, #67108864	; 0x4000000
 8002bc6:	6013      	str	r3, [r2, #0]

      /* Get Start Tick*/
      tickstart = HAL_GetTick();
 8002bc8:	f7fd ffbe 	bl	8000b48 <HAL_GetTick>
 8002bcc:	60b8      	str	r0, [r7, #8]

      /* Wait till PLLSAI1 is ready */
      while(READ_BIT(RCC->CR, RCC_CR_PLLSAI1RDY) == 0U)
 8002bce:	e009      	b.n	8002be4 <RCCEx_PLLSAI1_Config+0x1b8>
      {
        if((HAL_GetTick() - tickstart) > PLLSAI1_TIMEOUT_VALUE)
 8002bd0:	f7fd ffba 	bl	8000b48 <HAL_GetTick>
 8002bd4:	4602      	mov	r2, r0
 8002bd6:	68bb      	ldr	r3, [r7, #8]
 8002bd8:	1ad3      	subs	r3, r2, r3
 8002bda:	2b02      	cmp	r3, #2
 8002bdc:	d902      	bls.n	8002be4 <RCCEx_PLLSAI1_Config+0x1b8>
        {
          status = HAL_TIMEOUT;
 8002bde:	2303      	movs	r3, #3
 8002be0:	73fb      	strb	r3, [r7, #15]
          break;
 8002be2:	e005      	b.n	8002bf0 <RCCEx_PLLSAI1_Config+0x1c4>
      while(READ_BIT(RCC->CR, RCC_CR_PLLSAI1RDY) == 0U)
 8002be4:	4b0a      	ldr	r3, [pc, #40]	; (8002c10 <RCCEx_PLLSAI1_Config+0x1e4>)
 8002be6:	681b      	ldr	r3, [r3, #0]
 8002be8:	f003 6300 	and.w	r3, r3, #134217728	; 0x8000000
 8002bec:	2b00      	cmp	r3, #0
 8002bee:	d0ef      	beq.n	8002bd0 <RCCEx_PLLSAI1_Config+0x1a4>
        }
      }

      if(status == HAL_OK)
 8002bf0:	7bfb      	ldrb	r3, [r7, #15]
 8002bf2:	2b00      	cmp	r3, #0
 8002bf4:	d106      	bne.n	8002c04 <RCCEx_PLLSAI1_Config+0x1d8>
      {
        /* Configure the PLLSAI1 Clock output(s) */
        __HAL_RCC_PLLSAI1CLKOUT_ENABLE(PllSai1->PLLSAI1ClockOut);
 8002bf6:	4b06      	ldr	r3, [pc, #24]	; (8002c10 <RCCEx_PLLSAI1_Config+0x1e4>)
 8002bf8:	691a      	ldr	r2, [r3, #16]
 8002bfa:	687b      	ldr	r3, [r7, #4]
 8002bfc:	699b      	ldr	r3, [r3, #24]
 8002bfe:	4904      	ldr	r1, [pc, #16]	; (8002c10 <RCCEx_PLLSAI1_Config+0x1e4>)
 8002c00:	4313      	orrs	r3, r2
 8002c02:	610b      	str	r3, [r1, #16]
      }
    }
  }

  return status;
 8002c04:	7bfb      	ldrb	r3, [r7, #15]
}
 8002c06:	4618      	mov	r0, r3
 8002c08:	3710      	adds	r7, #16
 8002c0a:	46bd      	mov	sp, r7
 8002c0c:	bd80      	pop	{r7, pc}
 8002c0e:	bf00      	nop
 8002c10:	40021000 	.word	0x40021000

08002c14 <RCCEx_PLLSAI2_Config>:
  * @note   PLLSAI2 is temporary disable to apply new parameters
  *
  * @retval HAL status
  */
static HAL_StatusTypeDef RCCEx_PLLSAI2_Config(RCC_PLLSAI2InitTypeDef *PllSai2, uint32_t Divider)
{
 8002c14:	b580      	push	{r7, lr}
 8002c16:	b084      	sub	sp, #16
 8002c18:	af00      	add	r7, sp, #0
 8002c1a:	6078      	str	r0, [r7, #4]
 8002c1c:	6039      	str	r1, [r7, #0]
  uint32_t tickstart;
  HAL_StatusTypeDef status = HAL_OK;
 8002c1e:	2300      	movs	r3, #0
 8002c20:	73fb      	strb	r3, [r7, #15]
  assert_param(IS_RCC_PLLSAI2M_VALUE(PllSai2->PLLSAI2M));
  assert_param(IS_RCC_PLLSAI2N_VALUE(PllSai2->PLLSAI2N));
  assert_param(IS_RCC_PLLSAI2CLOCKOUT_VALUE(PllSai2->PLLSAI2ClockOut));

  /* Check that PLLSAI2 clock source and divider M can be applied */
  if(__HAL_RCC_GET_PLL_OSCSOURCE() != RCC_PLLSOURCE_NONE)
 8002c22:	4b6a      	ldr	r3, [pc, #424]	; (8002dcc <RCCEx_PLLSAI2_Config+0x1b8>)
 8002c24:	68db      	ldr	r3, [r3, #12]
 8002c26:	f003 0303 	and.w	r3, r3, #3
 8002c2a:	2b00      	cmp	r3, #0
 8002c2c:	d018      	beq.n	8002c60 <RCCEx_PLLSAI2_Config+0x4c>
  {
    /* PLL clock source and divider M already set, check that no request for change  */
    if((__HAL_RCC_GET_PLL_OSCSOURCE() != PllSai2->PLLSAI2Source)
 8002c2e:	4b67      	ldr	r3, [pc, #412]	; (8002dcc <RCCEx_PLLSAI2_Config+0x1b8>)
 8002c30:	68db      	ldr	r3, [r3, #12]
 8002c32:	f003 0203 	and.w	r2, r3, #3
 8002c36:	687b      	ldr	r3, [r7, #4]
 8002c38:	681b      	ldr	r3, [r3, #0]
 8002c3a:	429a      	cmp	r2, r3
 8002c3c:	d10d      	bne.n	8002c5a <RCCEx_PLLSAI2_Config+0x46>
       ||
       (PllSai2->PLLSAI2Source == RCC_PLLSOURCE_NONE)
 8002c3e:	687b      	ldr	r3, [r7, #4]
 8002c40:	681b      	ldr	r3, [r3, #0]
       ||
 8002c42:	2b00      	cmp	r3, #0
 8002c44:	d009      	beq.n	8002c5a <RCCEx_PLLSAI2_Config+0x46>
#if !defined(RCC_PLLSAI2M_DIV_1_16_SUPPORT)
       ||
       (((READ_BIT(RCC->PLLCFGR, RCC_PLLCFGR_PLLM) >> RCC_PLLCFGR_PLLM_Pos) + 1U) != PllSai2->PLLSAI2M)
 8002c46:	4b61      	ldr	r3, [pc, #388]	; (8002dcc <RCCEx_PLLSAI2_Config+0x1b8>)
 8002c48:	68db      	ldr	r3, [r3, #12]
 8002c4a:	091b      	lsrs	r3, r3, #4
 8002c4c:	f003 0307 	and.w	r3, r3, #7
 8002c50:	1c5a      	adds	r2, r3, #1
 8002c52:	687b      	ldr	r3, [r7, #4]
 8002c54:	685b      	ldr	r3, [r3, #4]
       ||
 8002c56:	429a      	cmp	r2, r3
 8002c58:	d047      	beq.n	8002cea <RCCEx_PLLSAI2_Config+0xd6>
#endif
      )
    {
      status = HAL_ERROR;
 8002c5a:	2301      	movs	r3, #1
 8002c5c:	73fb      	strb	r3, [r7, #15]
 8002c5e:	e044      	b.n	8002cea <RCCEx_PLLSAI2_Config+0xd6>
    }
  }
  else
  {
    /* Check PLLSAI2 clock source availability */
    switch(PllSai2->PLLSAI2Source)
 8002c60:	687b      	ldr	r3, [r7, #4]
 8002c62:	681b      	ldr	r3, [r3, #0]
 8002c64:	2b03      	cmp	r3, #3
 8002c66:	d018      	beq.n	8002c9a <RCCEx_PLLSAI2_Config+0x86>
 8002c68:	2b03      	cmp	r3, #3
 8002c6a:	d825      	bhi.n	8002cb8 <RCCEx_PLLSAI2_Config+0xa4>
 8002c6c:	2b01      	cmp	r3, #1
 8002c6e:	d002      	beq.n	8002c76 <RCCEx_PLLSAI2_Config+0x62>
 8002c70:	2b02      	cmp	r3, #2
 8002c72:	d009      	beq.n	8002c88 <RCCEx_PLLSAI2_Config+0x74>
 8002c74:	e020      	b.n	8002cb8 <RCCEx_PLLSAI2_Config+0xa4>
    {
    case RCC_PLLSOURCE_MSI:
      if(HAL_IS_BIT_CLR(RCC->CR, RCC_CR_MSIRDY))
 8002c76:	4b55      	ldr	r3, [pc, #340]	; (8002dcc <RCCEx_PLLSAI2_Config+0x1b8>)
 8002c78:	681b      	ldr	r3, [r3, #0]
 8002c7a:	f003 0302 	and.w	r3, r3, #2
 8002c7e:	2b00      	cmp	r3, #0
 8002c80:	d11d      	bne.n	8002cbe <RCCEx_PLLSAI2_Config+0xaa>
      {
        status = HAL_ERROR;
 8002c82:	2301      	movs	r3, #1
 8002c84:	73fb      	strb	r3, [r7, #15]
      }
      break;
 8002c86:	e01a      	b.n	8002cbe <RCCEx_PLLSAI2_Config+0xaa>
    case RCC_PLLSOURCE_HSI:
      if(HAL_IS_BIT_CLR(RCC->CR, RCC_CR_HSIRDY))
 8002c88:	4b50      	ldr	r3, [pc, #320]	; (8002dcc <RCCEx_PLLSAI2_Config+0x1b8>)
 8002c8a:	681b      	ldr	r3, [r3, #0]
 8002c8c:	f403 6380 	and.w	r3, r3, #1024	; 0x400
 8002c90:	2b00      	cmp	r3, #0
 8002c92:	d116      	bne.n	8002cc2 <RCCEx_PLLSAI2_Config+0xae>
      {
        status = HAL_ERROR;
 8002c94:	2301      	movs	r3, #1
 8002c96:	73fb      	strb	r3, [r7, #15]
      }
      break;
 8002c98:	e013      	b.n	8002cc2 <RCCEx_PLLSAI2_Config+0xae>
    case RCC_PLLSOURCE_HSE:
      if(HAL_IS_BIT_CLR(RCC->CR, RCC_CR_HSERDY))
 8002c9a:	4b4c      	ldr	r3, [pc, #304]	; (8002dcc <RCCEx_PLLSAI2_Config+0x1b8>)
 8002c9c:	681b      	ldr	r3, [r3, #0]
 8002c9e:	f403 3300 	and.w	r3, r3, #131072	; 0x20000
 8002ca2:	2b00      	cmp	r3, #0
 8002ca4:	d10f      	bne.n	8002cc6 <RCCEx_PLLSAI2_Config+0xb2>
      {
        if(HAL_IS_BIT_CLR(RCC->CR, RCC_CR_HSEBYP))
 8002ca6:	4b49      	ldr	r3, [pc, #292]	; (8002dcc <RCCEx_PLLSAI2_Config+0x1b8>)
 8002ca8:	681b      	ldr	r3, [r3, #0]
 8002caa:	f403 2380 	and.w	r3, r3, #262144	; 0x40000
 8002cae:	2b00      	cmp	r3, #0
 8002cb0:	d109      	bne.n	8002cc6 <RCCEx_PLLSAI2_Config+0xb2>
        {
          status = HAL_ERROR;
 8002cb2:	2301      	movs	r3, #1
 8002cb4:	73fb      	strb	r3, [r7, #15]
        }
      }
      break;
 8002cb6:	e006      	b.n	8002cc6 <RCCEx_PLLSAI2_Config+0xb2>
    default:
      status = HAL_ERROR;
 8002cb8:	2301      	movs	r3, #1
 8002cba:	73fb      	strb	r3, [r7, #15]
      break;
 8002cbc:	e004      	b.n	8002cc8 <RCCEx_PLLSAI2_Config+0xb4>
      break;
 8002cbe:	bf00      	nop
 8002cc0:	e002      	b.n	8002cc8 <RCCEx_PLLSAI2_Config+0xb4>
      break;
 8002cc2:	bf00      	nop
 8002cc4:	e000      	b.n	8002cc8 <RCCEx_PLLSAI2_Config+0xb4>
      break;
 8002cc6:	bf00      	nop
    }

    if(status == HAL_OK)
 8002cc8:	7bfb      	ldrb	r3, [r7, #15]
 8002cca:	2b00      	cmp	r3, #0
 8002ccc:	d10d      	bne.n	8002cea <RCCEx_PLLSAI2_Config+0xd6>
#if defined(RCC_PLLSAI2M_DIV_1_16_SUPPORT)
      /* Set PLLSAI2 clock source */
      MODIFY_REG(RCC->PLLCFGR, RCC_PLLCFGR_PLLSRC, PllSai2->PLLSAI2Source);
#else
      /* Set PLLSAI2 clock source and divider M */
      MODIFY_REG(RCC->PLLCFGR, RCC_PLLCFGR_PLLSRC | RCC_PLLCFGR_PLLM, PllSai2->PLLSAI2Source | (PllSai2->PLLSAI2M - 1U) << RCC_PLLCFGR_PLLM_Pos);
 8002cce:	4b3f      	ldr	r3, [pc, #252]	; (8002dcc <RCCEx_PLLSAI2_Config+0x1b8>)
 8002cd0:	68db      	ldr	r3, [r3, #12]
 8002cd2:	f023 0273 	bic.w	r2, r3, #115	; 0x73
 8002cd6:	687b      	ldr	r3, [r7, #4]
 8002cd8:	6819      	ldr	r1, [r3, #0]
 8002cda:	687b      	ldr	r3, [r7, #4]
 8002cdc:	685b      	ldr	r3, [r3, #4]
 8002cde:	3b01      	subs	r3, #1
 8002ce0:	011b      	lsls	r3, r3, #4
 8002ce2:	430b      	orrs	r3, r1
 8002ce4:	4939      	ldr	r1, [pc, #228]	; (8002dcc <RCCEx_PLLSAI2_Config+0x1b8>)
 8002ce6:	4313      	orrs	r3, r2
 8002ce8:	60cb      	str	r3, [r1, #12]
#endif
    }
  }

  if(status == HAL_OK)
 8002cea:	7bfb      	ldrb	r3, [r7, #15]
 8002cec:	2b00      	cmp	r3, #0
 8002cee:	d167      	bne.n	8002dc0 <RCCEx_PLLSAI2_Config+0x1ac>
  {
    /* Disable the PLLSAI2 */
    __HAL_RCC_PLLSAI2_DISABLE();
 8002cf0:	4b36      	ldr	r3, [pc, #216]	; (8002dcc <RCCEx_PLLSAI2_Config+0x1b8>)
 8002cf2:	681b      	ldr	r3, [r3, #0]
 8002cf4:	4a35      	ldr	r2, [pc, #212]	; (8002dcc <RCCEx_PLLSAI2_Config+0x1b8>)
 8002cf6:	f023 5380 	bic.w	r3, r3, #268435456	; 0x10000000
 8002cfa:	6013      	str	r3, [r2, #0]

    /* Get Start Tick*/
    tickstart = HAL_GetTick();
 8002cfc:	f7fd ff24 	bl	8000b48 <HAL_GetTick>
 8002d00:	60b8      	str	r0, [r7, #8]

    /* Wait till PLLSAI2 is ready to be updated */
    while(READ_BIT(RCC->CR, RCC_CR_PLLSAI2RDY) != 0U)
 8002d02:	e009      	b.n	8002d18 <RCCEx_PLLSAI2_Config+0x104>
    {
      if((HAL_GetTick() - tickstart) > PLLSAI2_TIMEOUT_VALUE)
 8002d04:	f7fd ff20 	bl	8000b48 <HAL_GetTick>
 8002d08:	4602      	mov	r2, r0
 8002d0a:	68bb      	ldr	r3, [r7, #8]
 8002d0c:	1ad3      	subs	r3, r2, r3
 8002d0e:	2b02      	cmp	r3, #2
 8002d10:	d902      	bls.n	8002d18 <RCCEx_PLLSAI2_Config+0x104>
      {
        status = HAL_TIMEOUT;
 8002d12:	2303      	movs	r3, #3
 8002d14:	73fb      	strb	r3, [r7, #15]
        break;
 8002d16:	e005      	b.n	8002d24 <RCCEx_PLLSAI2_Config+0x110>
    while(READ_BIT(RCC->CR, RCC_CR_PLLSAI2RDY) != 0U)
 8002d18:	4b2c      	ldr	r3, [pc, #176]	; (8002dcc <RCCEx_PLLSAI2_Config+0x1b8>)
 8002d1a:	681b      	ldr	r3, [r3, #0]
 8002d1c:	f003 5300 	and.w	r3, r3, #536870912	; 0x20000000
 8002d20:	2b00      	cmp	r3, #0
 8002d22:	d1ef      	bne.n	8002d04 <RCCEx_PLLSAI2_Config+0xf0>
      }
    }

    if(status == HAL_OK)
 8002d24:	7bfb      	ldrb	r3, [r7, #15]
 8002d26:	2b00      	cmp	r3, #0
 8002d28:	d14a      	bne.n	8002dc0 <RCCEx_PLLSAI2_Config+0x1ac>
    {
      if(Divider == DIVIDER_P_UPDATE)
 8002d2a:	683b      	ldr	r3, [r7, #0]
 8002d2c:	2b00      	cmp	r3, #0
 8002d2e:	d111      	bne.n	8002d54 <RCCEx_PLLSAI2_Config+0x140>
        MODIFY_REG(RCC->PLLSAI2CFGR,
                   RCC_PLLSAI2CFGR_PLLSAI2N | RCC_PLLSAI2CFGR_PLLSAI2PDIV,
                   (PllSai2->PLLSAI2N << RCC_PLLSAI2CFGR_PLLSAI2N_Pos) |
                   (PllSai2->PLLSAI2P << RCC_PLLSAI2CFGR_PLLSAI2PDIV_Pos));
#else
        MODIFY_REG(RCC->PLLSAI2CFGR,
 8002d30:	4b26      	ldr	r3, [pc, #152]	; (8002dcc <RCCEx_PLLSAI2_Config+0x1b8>)
 8002d32:	695b      	ldr	r3, [r3, #20]
 8002d34:	f423 331f 	bic.w	r3, r3, #162816	; 0x27c00
 8002d38:	f423 7340 	bic.w	r3, r3, #768	; 0x300
 8002d3c:	687a      	ldr	r2, [r7, #4]
 8002d3e:	6892      	ldr	r2, [r2, #8]
 8002d40:	0211      	lsls	r1, r2, #8
 8002d42:	687a      	ldr	r2, [r7, #4]
 8002d44:	68d2      	ldr	r2, [r2, #12]
 8002d46:	0912      	lsrs	r2, r2, #4
 8002d48:	0452      	lsls	r2, r2, #17
 8002d4a:	430a      	orrs	r2, r1
 8002d4c:	491f      	ldr	r1, [pc, #124]	; (8002dcc <RCCEx_PLLSAI2_Config+0x1b8>)
 8002d4e:	4313      	orrs	r3, r2
 8002d50:	614b      	str	r3, [r1, #20]
 8002d52:	e011      	b.n	8002d78 <RCCEx_PLLSAI2_Config+0x164>
                   (PllSai2->PLLSAI2N << RCC_PLLSAI2CFGR_PLLSAI2N_Pos) |
                   (((PllSai2->PLLSAI2R >> 1U) - 1U) << RCC_PLLSAI2CFGR_PLLSAI2R_Pos) |
                   ((PllSai2->PLLSAI2M - 1U) << RCC_PLLSAI2CFGR_PLLSAI2M_Pos));
#else
        /* Configure the PLLSAI2 Division factor R and Multiplication factor N*/
        MODIFY_REG(RCC->PLLSAI2CFGR,
 8002d54:	4b1d      	ldr	r3, [pc, #116]	; (8002dcc <RCCEx_PLLSAI2_Config+0x1b8>)
 8002d56:	695b      	ldr	r3, [r3, #20]
 8002d58:	f023 63c0 	bic.w	r3, r3, #100663296	; 0x6000000
 8002d5c:	f423 43fe 	bic.w	r3, r3, #32512	; 0x7f00
 8002d60:	687a      	ldr	r2, [r7, #4]
 8002d62:	6892      	ldr	r2, [r2, #8]
 8002d64:	0211      	lsls	r1, r2, #8
 8002d66:	687a      	ldr	r2, [r7, #4]
 8002d68:	6912      	ldr	r2, [r2, #16]
 8002d6a:	0852      	lsrs	r2, r2, #1
 8002d6c:	3a01      	subs	r2, #1
 8002d6e:	0652      	lsls	r2, r2, #25
 8002d70:	430a      	orrs	r2, r1
 8002d72:	4916      	ldr	r1, [pc, #88]	; (8002dcc <RCCEx_PLLSAI2_Config+0x1b8>)
 8002d74:	4313      	orrs	r3, r2
 8002d76:	614b      	str	r3, [r1, #20]
                   (((PllSai2->PLLSAI2R >> 1U) - 1U) << RCC_PLLSAI2CFGR_PLLSAI2R_Pos));
#endif /* RCC_PLLSAI2M_DIV_1_16_SUPPORT */
      }

      /* Enable the PLLSAI2 again by setting PLLSAI2ON to 1*/
      __HAL_RCC_PLLSAI2_ENABLE();
 8002d78:	4b14      	ldr	r3, [pc, #80]	; (8002dcc <RCCEx_PLLSAI2_Config+0x1b8>)
 8002d7a:	681b      	ldr	r3, [r3, #0]
 8002d7c:	4a13      	ldr	r2, [pc, #76]	; (8002dcc <RCCEx_PLLSAI2_Config+0x1b8>)
 8002d7e:	f043 5380 	orr.w	r3, r3, #268435456	; 0x10000000
 8002d82:	6013      	str	r3, [r2, #0]

      /* Get Start Tick*/
      tickstart = HAL_GetTick();
 8002d84:	f7fd fee0 	bl	8000b48 <HAL_GetTick>
 8002d88:	60b8      	str	r0, [r7, #8]

      /* Wait till PLLSAI2 is ready */
      while(READ_BIT(RCC->CR, RCC_CR_PLLSAI2RDY) == 0U)
 8002d8a:	e009      	b.n	8002da0 <RCCEx_PLLSAI2_Config+0x18c>
      {
        if((HAL_GetTick() - tickstart) > PLLSAI2_TIMEOUT_VALUE)
 8002d8c:	f7fd fedc 	bl	8000b48 <HAL_GetTick>
 8002d90:	4602      	mov	r2, r0
 8002d92:	68bb      	ldr	r3, [r7, #8]
 8002d94:	1ad3      	subs	r3, r2, r3
 8002d96:	2b02      	cmp	r3, #2
 8002d98:	d902      	bls.n	8002da0 <RCCEx_PLLSAI2_Config+0x18c>
        {
          status = HAL_TIMEOUT;
 8002d9a:	2303      	movs	r3, #3
 8002d9c:	73fb      	strb	r3, [r7, #15]
          break;
 8002d9e:	e005      	b.n	8002dac <RCCEx_PLLSAI2_Config+0x198>
      while(READ_BIT(RCC->CR, RCC_CR_PLLSAI2RDY) == 0U)
 8002da0:	4b0a      	ldr	r3, [pc, #40]	; (8002dcc <RCCEx_PLLSAI2_Config+0x1b8>)
 8002da2:	681b      	ldr	r3, [r3, #0]
 8002da4:	f003 5300 	and.w	r3, r3, #536870912	; 0x20000000
 8002da8:	2b00      	cmp	r3, #0
 8002daa:	d0ef      	beq.n	8002d8c <RCCEx_PLLSAI2_Config+0x178>
        }
      }

      if(status == HAL_OK)
 8002dac:	7bfb      	ldrb	r3, [r7, #15]
 8002dae:	2b00      	cmp	r3, #0
 8002db0:	d106      	bne.n	8002dc0 <RCCEx_PLLSAI2_Config+0x1ac>
      {
        /* Configure the PLLSAI2 Clock output(s) */
        __HAL_RCC_PLLSAI2CLKOUT_ENABLE(PllSai2->PLLSAI2ClockOut);
 8002db2:	4b06      	ldr	r3, [pc, #24]	; (8002dcc <RCCEx_PLLSAI2_Config+0x1b8>)
 8002db4:	695a      	ldr	r2, [r3, #20]
 8002db6:	687b      	ldr	r3, [r7, #4]
 8002db8:	695b      	ldr	r3, [r3, #20]
 8002dba:	4904      	ldr	r1, [pc, #16]	; (8002dcc <RCCEx_PLLSAI2_Config+0x1b8>)
 8002dbc:	4313      	orrs	r3, r2
 8002dbe:	614b      	str	r3, [r1, #20]
      }
    }
  }

  return status;
 8002dc0:	7bfb      	ldrb	r3, [r7, #15]
}
 8002dc2:	4618      	mov	r0, r3
 8002dc4:	3710      	adds	r7, #16
 8002dc6:	46bd      	mov	sp, r7
 8002dc8:	bd80      	pop	{r7, pc}
 8002dca:	bf00      	nop
 8002dcc:	40021000 	.word	0x40021000

08002dd0 <HAL_UART_Init>:
  *        parameters in the UART_InitTypeDef and initialize the associated handle.
  * @param huart UART handle.
  * @retval HAL status
  */
HAL_StatusTypeDef HAL_UART_Init(UART_HandleTypeDef *huart)
{
 8002dd0:	b580      	push	{r7, lr}
 8002dd2:	b082      	sub	sp, #8
 8002dd4:	af00      	add	r7, sp, #0
 8002dd6:	6078      	str	r0, [r7, #4]
  /* Check the UART handle allocation */
  if (huart == NULL)
 8002dd8:	687b      	ldr	r3, [r7, #4]
 8002dda:	2b00      	cmp	r3, #0
 8002ddc:	d101      	bne.n	8002de2 <HAL_UART_Init+0x12>
  {
    return HAL_ERROR;
 8002dde:	2301      	movs	r3, #1
 8002de0:	e040      	b.n	8002e64 <HAL_UART_Init+0x94>
  {
    /* Check the parameters */
    assert_param((IS_UART_INSTANCE(huart->Instance)) || (IS_LPUART_INSTANCE(huart->Instance)));
  }

  if (huart->gState == HAL_UART_STATE_RESET)
 8002de2:	687b      	ldr	r3, [r7, #4]
 8002de4:	6f9b      	ldr	r3, [r3, #120]	; 0x78
 8002de6:	2b00      	cmp	r3, #0
 8002de8:	d106      	bne.n	8002df8 <HAL_UART_Init+0x28>
  {
    /* Allocate lock resource and initialize it */
    huart->Lock = HAL_UNLOCKED;
 8002dea:	687b      	ldr	r3, [r7, #4]
 8002dec:	2200      	movs	r2, #0
 8002dee:	f883 2074 	strb.w	r2, [r3, #116]	; 0x74

    /* Init the low level hardware */
    huart->MspInitCallback(huart);
#else
    /* Init the low level hardware : GPIO, CLOCK */
    HAL_UART_MspInit(huart);
 8002df2:	6878      	ldr	r0, [r7, #4]
 8002df4:	f7fd fd44 	bl	8000880 <HAL_UART_MspInit>
#endif /* (USE_HAL_UART_REGISTER_CALLBACKS) */
  }

  huart->gState = HAL_UART_STATE_BUSY;
 8002df8:	687b      	ldr	r3, [r7, #4]
 8002dfa:	2224      	movs	r2, #36	; 0x24
 8002dfc:	679a      	str	r2, [r3, #120]	; 0x78

  __HAL_UART_DISABLE(huart);
 8002dfe:	687b      	ldr	r3, [r7, #4]
 8002e00:	681b      	ldr	r3, [r3, #0]
 8002e02:	681a      	ldr	r2, [r3, #0]
 8002e04:	687b      	ldr	r3, [r7, #4]
 8002e06:	681b      	ldr	r3, [r3, #0]
 8002e08:	f022 0201 	bic.w	r2, r2, #1
 8002e0c:	601a      	str	r2, [r3, #0]

  /* Set the UART Communication parameters */
  if (UART_SetConfig(huart) == HAL_ERROR)
 8002e0e:	6878      	ldr	r0, [r7, #4]
 8002e10:	f000 f82c 	bl	8002e6c <UART_SetConfig>
 8002e14:	4603      	mov	r3, r0
 8002e16:	2b01      	cmp	r3, #1
 8002e18:	d101      	bne.n	8002e1e <HAL_UART_Init+0x4e>
  {
    return HAL_ERROR;
 8002e1a:	2301      	movs	r3, #1
 8002e1c:	e022      	b.n	8002e64 <HAL_UART_Init+0x94>
  }

  if (huart->AdvancedInit.AdvFeatureInit != UART_ADVFEATURE_NO_INIT)
 8002e1e:	687b      	ldr	r3, [r7, #4]
 8002e20:	6a5b      	ldr	r3, [r3, #36]	; 0x24
 8002e22:	2b00      	cmp	r3, #0
 8002e24:	d002      	beq.n	8002e2c <HAL_UART_Init+0x5c>
  {
    UART_AdvFeatureConfig(huart);
 8002e26:	6878      	ldr	r0, [r7, #4]
 8002e28:	f000 faaa 	bl	8003380 <UART_AdvFeatureConfig>
  }

  /* In asynchronous mode, the following bits must be kept cleared:
  - LINEN and CLKEN bits in the USART_CR2 register,
  - SCEN, HDSEL and IREN  bits in the USART_CR3 register.*/
  CLEAR_BIT(huart->Instance->CR2, (USART_CR2_LINEN | USART_CR2_CLKEN));
 8002e2c:	687b      	ldr	r3, [r7, #4]
 8002e2e:	681b      	ldr	r3, [r3, #0]
 8002e30:	685a      	ldr	r2, [r3, #4]
 8002e32:	687b      	ldr	r3, [r7, #4]
 8002e34:	681b      	ldr	r3, [r3, #0]
 8002e36:	f422 4290 	bic.w	r2, r2, #18432	; 0x4800
 8002e3a:	605a      	str	r2, [r3, #4]
  CLEAR_BIT(huart->Instance->CR3, (USART_CR3_SCEN | USART_CR3_HDSEL | USART_CR3_IREN));
 8002e3c:	687b      	ldr	r3, [r7, #4]
 8002e3e:	681b      	ldr	r3, [r3, #0]
 8002e40:	689a      	ldr	r2, [r3, #8]
 8002e42:	687b      	ldr	r3, [r7, #4]
 8002e44:	681b      	ldr	r3, [r3, #0]
 8002e46:	f022 022a 	bic.w	r2, r2, #42	; 0x2a
 8002e4a:	609a      	str	r2, [r3, #8]

  __HAL_UART_ENABLE(huart);
 8002e4c:	687b      	ldr	r3, [r7, #4]
 8002e4e:	681b      	ldr	r3, [r3, #0]
 8002e50:	681a      	ldr	r2, [r3, #0]
 8002e52:	687b      	ldr	r3, [r7, #4]
 8002e54:	681b      	ldr	r3, [r3, #0]
 8002e56:	f042 0201 	orr.w	r2, r2, #1
 8002e5a:	601a      	str	r2, [r3, #0]

  /* TEACK and/or REACK to check before moving huart->gState and huart->RxState to Ready */
  return (UART_CheckIdleState(huart));
 8002e5c:	6878      	ldr	r0, [r7, #4]
 8002e5e:	f000 fb31 	bl	80034c4 <UART_CheckIdleState>
 8002e62:	4603      	mov	r3, r0
}
 8002e64:	4618      	mov	r0, r3
 8002e66:	3708      	adds	r7, #8
 8002e68:	46bd      	mov	sp, r7
 8002e6a:	bd80      	pop	{r7, pc}

08002e6c <UART_SetConfig>:
  * @brief Configure the UART peripheral.
  * @param huart UART handle.
  * @retval HAL status
  */
HAL_StatusTypeDef UART_SetConfig(UART_HandleTypeDef *huart)
{
 8002e6c:	b5b0      	push	{r4, r5, r7, lr}
 8002e6e:	b088      	sub	sp, #32
 8002e70:	af00      	add	r7, sp, #0
 8002e72:	6078      	str	r0, [r7, #4]
  uint32_t tmpreg;
  uint16_t brrtemp;
  UART_ClockSourceTypeDef clocksource;
  uint32_t usartdiv;
  HAL_StatusTypeDef ret               = HAL_OK;
 8002e74:	2300      	movs	r3, #0
 8002e76:	76bb      	strb	r3, [r7, #26]
  *  the UART Word Length, Parity, Mode and oversampling:
  *  set the M bits according to huart->Init.WordLength value
  *  set PCE and PS bits according to huart->Init.Parity value
  *  set TE and RE bits according to huart->Init.Mode value
  *  set OVER8 bit according to huart->Init.OverSampling value */
  tmpreg = (uint32_t)huart->Init.WordLength | huart->Init.Parity | huart->Init.Mode | huart->Init.OverSampling ;
 8002e78:	687b      	ldr	r3, [r7, #4]
 8002e7a:	689a      	ldr	r2, [r3, #8]
 8002e7c:	687b      	ldr	r3, [r7, #4]
 8002e7e:	691b      	ldr	r3, [r3, #16]
 8002e80:	431a      	orrs	r2, r3
 8002e82:	687b      	ldr	r3, [r7, #4]
 8002e84:	695b      	ldr	r3, [r3, #20]
 8002e86:	431a      	orrs	r2, r3
 8002e88:	687b      	ldr	r3, [r7, #4]
 8002e8a:	69db      	ldr	r3, [r3, #28]
 8002e8c:	4313      	orrs	r3, r2
 8002e8e:	61fb      	str	r3, [r7, #28]
  MODIFY_REG(huart->Instance->CR1, USART_CR1_FIELDS, tmpreg);
 8002e90:	687b      	ldr	r3, [r7, #4]
 8002e92:	681b      	ldr	r3, [r3, #0]
 8002e94:	681a      	ldr	r2, [r3, #0]
 8002e96:	4bad      	ldr	r3, [pc, #692]	; (800314c <UART_SetConfig+0x2e0>)
 8002e98:	4013      	ands	r3, r2
 8002e9a:	687a      	ldr	r2, [r7, #4]
 8002e9c:	6812      	ldr	r2, [r2, #0]
 8002e9e:	69f9      	ldr	r1, [r7, #28]
 8002ea0:	430b      	orrs	r3, r1
 8002ea2:	6013      	str	r3, [r2, #0]

  /*-------------------------- USART CR2 Configuration -----------------------*/
  /* Configure the UART Stop Bits: Set STOP[13:12] bits according
  * to huart->Init.StopBits value */
  MODIFY_REG(huart->Instance->CR2, USART_CR2_STOP, huart->Init.StopBits);
 8002ea4:	687b      	ldr	r3, [r7, #4]
 8002ea6:	681b      	ldr	r3, [r3, #0]
 8002ea8:	685b      	ldr	r3, [r3, #4]
 8002eaa:	f423 5140 	bic.w	r1, r3, #12288	; 0x3000
 8002eae:	687b      	ldr	r3, [r7, #4]
 8002eb0:	68da      	ldr	r2, [r3, #12]
 8002eb2:	687b      	ldr	r3, [r7, #4]
 8002eb4:	681b      	ldr	r3, [r3, #0]
 8002eb6:	430a      	orrs	r2, r1
 8002eb8:	605a      	str	r2, [r3, #4]
  /* Configure
  * - UART HardWare Flow Control: set CTSE and RTSE bits according
  *   to huart->Init.HwFlowCtl value
  * - one-bit sampling method versus three samples' majority rule according
  *   to huart->Init.OneBitSampling (not applicable to LPUART) */
  tmpreg = (uint32_t)huart->Init.HwFlowCtl;
 8002eba:	687b      	ldr	r3, [r7, #4]
 8002ebc:	699b      	ldr	r3, [r3, #24]
 8002ebe:	61fb      	str	r3, [r7, #28]

  if (!(UART_INSTANCE_LOWPOWER(huart)))
 8002ec0:	687b      	ldr	r3, [r7, #4]
 8002ec2:	681b      	ldr	r3, [r3, #0]
 8002ec4:	4aa2      	ldr	r2, [pc, #648]	; (8003150 <UART_SetConfig+0x2e4>)
 8002ec6:	4293      	cmp	r3, r2
 8002ec8:	d004      	beq.n	8002ed4 <UART_SetConfig+0x68>
  {
    tmpreg |= huart->Init.OneBitSampling;
 8002eca:	687b      	ldr	r3, [r7, #4]
 8002ecc:	6a1b      	ldr	r3, [r3, #32]
 8002ece:	69fa      	ldr	r2, [r7, #28]
 8002ed0:	4313      	orrs	r3, r2
 8002ed2:	61fb      	str	r3, [r7, #28]
  }
  MODIFY_REG(huart->Instance->CR3, USART_CR3_FIELDS, tmpreg);
 8002ed4:	687b      	ldr	r3, [r7, #4]
 8002ed6:	681b      	ldr	r3, [r3, #0]
 8002ed8:	689b      	ldr	r3, [r3, #8]
 8002eda:	f423 6130 	bic.w	r1, r3, #2816	; 0xb00
 8002ede:	687b      	ldr	r3, [r7, #4]
 8002ee0:	681b      	ldr	r3, [r3, #0]
 8002ee2:	69fa      	ldr	r2, [r7, #28]
 8002ee4:	430a      	orrs	r2, r1
 8002ee6:	609a      	str	r2, [r3, #8]
  * - UART Clock Prescaler : set PRESCALER according to huart->Init.ClockPrescaler value */
  MODIFY_REG(huart->Instance->PRESC, USART_PRESC_PRESCALER, huart->Init.ClockPrescaler);
#endif /* USART_PRESC_PRESCALER */

  /*-------------------------- USART BRR Configuration -----------------------*/
  UART_GETCLOCKSOURCE(huart, clocksource);
 8002ee8:	687b      	ldr	r3, [r7, #4]
 8002eea:	681b      	ldr	r3, [r3, #0]
 8002eec:	4a99      	ldr	r2, [pc, #612]	; (8003154 <UART_SetConfig+0x2e8>)
 8002eee:	4293      	cmp	r3, r2
 8002ef0:	d121      	bne.n	8002f36 <UART_SetConfig+0xca>
 8002ef2:	4b99      	ldr	r3, [pc, #612]	; (8003158 <UART_SetConfig+0x2ec>)
 8002ef4:	f8d3 3088 	ldr.w	r3, [r3, #136]	; 0x88
 8002ef8:	f003 0303 	and.w	r3, r3, #3
 8002efc:	2b03      	cmp	r3, #3
 8002efe:	d817      	bhi.n	8002f30 <UART_SetConfig+0xc4>
 8002f00:	a201      	add	r2, pc, #4	; (adr r2, 8002f08 <UART_SetConfig+0x9c>)
 8002f02:	f852 f023 	ldr.w	pc, [r2, r3, lsl #2]
 8002f06:	bf00      	nop
 8002f08:	08002f19 	.word	0x08002f19
 8002f0c:	08002f25 	.word	0x08002f25
 8002f10:	08002f1f 	.word	0x08002f1f
 8002f14:	08002f2b 	.word	0x08002f2b
 8002f18:	2301      	movs	r3, #1
 8002f1a:	76fb      	strb	r3, [r7, #27]
 8002f1c:	e0e7      	b.n	80030ee <UART_SetConfig+0x282>
 8002f1e:	2302      	movs	r3, #2
 8002f20:	76fb      	strb	r3, [r7, #27]
 8002f22:	e0e4      	b.n	80030ee <UART_SetConfig+0x282>
 8002f24:	2304      	movs	r3, #4
 8002f26:	76fb      	strb	r3, [r7, #27]
 8002f28:	e0e1      	b.n	80030ee <UART_SetConfig+0x282>
 8002f2a:	2308      	movs	r3, #8
 8002f2c:	76fb      	strb	r3, [r7, #27]
 8002f2e:	e0de      	b.n	80030ee <UART_SetConfig+0x282>
 8002f30:	2310      	movs	r3, #16
 8002f32:	76fb      	strb	r3, [r7, #27]
 8002f34:	e0db      	b.n	80030ee <UART_SetConfig+0x282>
 8002f36:	687b      	ldr	r3, [r7, #4]
 8002f38:	681b      	ldr	r3, [r3, #0]
 8002f3a:	4a88      	ldr	r2, [pc, #544]	; (800315c <UART_SetConfig+0x2f0>)
 8002f3c:	4293      	cmp	r3, r2
 8002f3e:	d132      	bne.n	8002fa6 <UART_SetConfig+0x13a>
 8002f40:	4b85      	ldr	r3, [pc, #532]	; (8003158 <UART_SetConfig+0x2ec>)
 8002f42:	f8d3 3088 	ldr.w	r3, [r3, #136]	; 0x88
 8002f46:	f003 030c 	and.w	r3, r3, #12
 8002f4a:	2b0c      	cmp	r3, #12
 8002f4c:	d828      	bhi.n	8002fa0 <UART_SetConfig+0x134>
 8002f4e:	a201      	add	r2, pc, #4	; (adr r2, 8002f54 <UART_SetConfig+0xe8>)
 8002f50:	f852 f023 	ldr.w	pc, [r2, r3, lsl #2]
 8002f54:	08002f89 	.word	0x08002f89
 8002f58:	08002fa1 	.word	0x08002fa1
 8002f5c:	08002fa1 	.word	0x08002fa1
 8002f60:	08002fa1 	.word	0x08002fa1
 8002f64:	08002f95 	.word	0x08002f95
 8002f68:	08002fa1 	.word	0x08002fa1
 8002f6c:	08002fa1 	.word	0x08002fa1
 8002f70:	08002fa1 	.word	0x08002fa1
 8002f74:	08002f8f 	.word	0x08002f8f
 8002f78:	08002fa1 	.word	0x08002fa1
 8002f7c:	08002fa1 	.word	0x08002fa1
 8002f80:	08002fa1 	.word	0x08002fa1
 8002f84:	08002f9b 	.word	0x08002f9b
 8002f88:	2300      	movs	r3, #0
 8002f8a:	76fb      	strb	r3, [r7, #27]
 8002f8c:	e0af      	b.n	80030ee <UART_SetConfig+0x282>
 8002f8e:	2302      	movs	r3, #2
 8002f90:	76fb      	strb	r3, [r7, #27]
 8002f92:	e0ac      	b.n	80030ee <UART_SetConfig+0x282>
 8002f94:	2304      	movs	r3, #4
 8002f96:	76fb      	strb	r3, [r7, #27]
 8002f98:	e0a9      	b.n	80030ee <UART_SetConfig+0x282>
 8002f9a:	2308      	movs	r3, #8
 8002f9c:	76fb      	strb	r3, [r7, #27]
 8002f9e:	e0a6      	b.n	80030ee <UART_SetConfig+0x282>
 8002fa0:	2310      	movs	r3, #16
 8002fa2:	76fb      	strb	r3, [r7, #27]
 8002fa4:	e0a3      	b.n	80030ee <UART_SetConfig+0x282>
 8002fa6:	687b      	ldr	r3, [r7, #4]
 8002fa8:	681b      	ldr	r3, [r3, #0]
 8002faa:	4a6d      	ldr	r2, [pc, #436]	; (8003160 <UART_SetConfig+0x2f4>)
 8002fac:	4293      	cmp	r3, r2
 8002fae:	d120      	bne.n	8002ff2 <UART_SetConfig+0x186>
 8002fb0:	4b69      	ldr	r3, [pc, #420]	; (8003158 <UART_SetConfig+0x2ec>)
 8002fb2:	f8d3 3088 	ldr.w	r3, [r3, #136]	; 0x88
 8002fb6:	f003 0330 	and.w	r3, r3, #48	; 0x30
 8002fba:	2b30      	cmp	r3, #48	; 0x30
 8002fbc:	d013      	beq.n	8002fe6 <UART_SetConfig+0x17a>
 8002fbe:	2b30      	cmp	r3, #48	; 0x30
 8002fc0:	d814      	bhi.n	8002fec <UART_SetConfig+0x180>
 8002fc2:	2b20      	cmp	r3, #32
 8002fc4:	d009      	beq.n	8002fda <UART_SetConfig+0x16e>
 8002fc6:	2b20      	cmp	r3, #32
 8002fc8:	d810      	bhi.n	8002fec <UART_SetConfig+0x180>
 8002fca:	2b00      	cmp	r3, #0
 8002fcc:	d002      	beq.n	8002fd4 <UART_SetConfig+0x168>
 8002fce:	2b10      	cmp	r3, #16
 8002fd0:	d006      	beq.n	8002fe0 <UART_SetConfig+0x174>
 8002fd2:	e00b      	b.n	8002fec <UART_SetConfig+0x180>
 8002fd4:	2300      	movs	r3, #0
 8002fd6:	76fb      	strb	r3, [r7, #27]
 8002fd8:	e089      	b.n	80030ee <UART_SetConfig+0x282>
 8002fda:	2302      	movs	r3, #2
 8002fdc:	76fb      	strb	r3, [r7, #27]
 8002fde:	e086      	b.n	80030ee <UART_SetConfig+0x282>
 8002fe0:	2304      	movs	r3, #4
 8002fe2:	76fb      	strb	r3, [r7, #27]
 8002fe4:	e083      	b.n	80030ee <UART_SetConfig+0x282>
 8002fe6:	2308      	movs	r3, #8
 8002fe8:	76fb      	strb	r3, [r7, #27]
 8002fea:	e080      	b.n	80030ee <UART_SetConfig+0x282>
 8002fec:	2310      	movs	r3, #16
 8002fee:	76fb      	strb	r3, [r7, #27]
 8002ff0:	e07d      	b.n	80030ee <UART_SetConfig+0x282>
 8002ff2:	687b      	ldr	r3, [r7, #4]
 8002ff4:	681b      	ldr	r3, [r3, #0]
 8002ff6:	4a5b      	ldr	r2, [pc, #364]	; (8003164 <UART_SetConfig+0x2f8>)
 8002ff8:	4293      	cmp	r3, r2
 8002ffa:	d120      	bne.n	800303e <UART_SetConfig+0x1d2>
 8002ffc:	4b56      	ldr	r3, [pc, #344]	; (8003158 <UART_SetConfig+0x2ec>)
 8002ffe:	f8d3 3088 	ldr.w	r3, [r3, #136]	; 0x88
 8003002:	f003 03c0 	and.w	r3, r3, #192	; 0xc0
 8003006:	2bc0      	cmp	r3, #192	; 0xc0
 8003008:	d013      	beq.n	8003032 <UART_SetConfig+0x1c6>
 800300a:	2bc0      	cmp	r3, #192	; 0xc0
 800300c:	d814      	bhi.n	8003038 <UART_SetConfig+0x1cc>
 800300e:	2b80      	cmp	r3, #128	; 0x80
 8003010:	d009      	beq.n	8003026 <UART_SetConfig+0x1ba>
 8003012:	2b80      	cmp	r3, #128	; 0x80
 8003014:	d810      	bhi.n	8003038 <UART_SetConfig+0x1cc>
 8003016:	2b00      	cmp	r3, #0
 8003018:	d002      	beq.n	8003020 <UART_SetConfig+0x1b4>
 800301a:	2b40      	cmp	r3, #64	; 0x40
 800301c:	d006      	beq.n	800302c <UART_SetConfig+0x1c0>
 800301e:	e00b      	b.n	8003038 <UART_SetConfig+0x1cc>
 8003020:	2300      	movs	r3, #0
 8003022:	76fb      	strb	r3, [r7, #27]
 8003024:	e063      	b.n	80030ee <UART_SetConfig+0x282>
 8003026:	2302      	movs	r3, #2
 8003028:	76fb      	strb	r3, [r7, #27]
 800302a:	e060      	b.n	80030ee <UART_SetConfig+0x282>
 800302c:	2304      	movs	r3, #4
 800302e:	76fb      	strb	r3, [r7, #27]
 8003030:	e05d      	b.n	80030ee <UART_SetConfig+0x282>
 8003032:	2308      	movs	r3, #8
 8003034:	76fb      	strb	r3, [r7, #27]
 8003036:	e05a      	b.n	80030ee <UART_SetConfig+0x282>
 8003038:	2310      	movs	r3, #16
 800303a:	76fb      	strb	r3, [r7, #27]
 800303c:	e057      	b.n	80030ee <UART_SetConfig+0x282>
 800303e:	687b      	ldr	r3, [r7, #4]
 8003040:	681b      	ldr	r3, [r3, #0]
 8003042:	4a49      	ldr	r2, [pc, #292]	; (8003168 <UART_SetConfig+0x2fc>)
 8003044:	4293      	cmp	r3, r2
 8003046:	d125      	bne.n	8003094 <UART_SetConfig+0x228>
 8003048:	4b43      	ldr	r3, [pc, #268]	; (8003158 <UART_SetConfig+0x2ec>)
 800304a:	f8d3 3088 	ldr.w	r3, [r3, #136]	; 0x88
 800304e:	f403 7340 	and.w	r3, r3, #768	; 0x300
 8003052:	f5b3 7f40 	cmp.w	r3, #768	; 0x300
 8003056:	d017      	beq.n	8003088 <UART_SetConfig+0x21c>
 8003058:	f5b3 7f40 	cmp.w	r3, #768	; 0x300
 800305c:	d817      	bhi.n	800308e <UART_SetConfig+0x222>
 800305e:	f5b3 7f00 	cmp.w	r3, #512	; 0x200
 8003062:	d00b      	beq.n	800307c <UART_SetConfig+0x210>
 8003064:	f5b3 7f00 	cmp.w	r3, #512	; 0x200
 8003068:	d811      	bhi.n	800308e <UART_SetConfig+0x222>
 800306a:	2b00      	cmp	r3, #0
 800306c:	d003      	beq.n	8003076 <UART_SetConfig+0x20a>
 800306e:	f5b3 7f80 	cmp.w	r3, #256	; 0x100
 8003072:	d006      	beq.n	8003082 <UART_SetConfig+0x216>
 8003074:	e00b      	b.n	800308e <UART_SetConfig+0x222>
 8003076:	2300      	movs	r3, #0
 8003078:	76fb      	strb	r3, [r7, #27]
 800307a:	e038      	b.n	80030ee <UART_SetConfig+0x282>
 800307c:	2302      	movs	r3, #2
 800307e:	76fb      	strb	r3, [r7, #27]
 8003080:	e035      	b.n	80030ee <UART_SetConfig+0x282>
 8003082:	2304      	movs	r3, #4
 8003084:	76fb      	strb	r3, [r7, #27]
 8003086:	e032      	b.n	80030ee <UART_SetConfig+0x282>
 8003088:	2308      	movs	r3, #8
 800308a:	76fb      	strb	r3, [r7, #27]
 800308c:	e02f      	b.n	80030ee <UART_SetConfig+0x282>
 800308e:	2310      	movs	r3, #16
 8003090:	76fb      	strb	r3, [r7, #27]
 8003092:	e02c      	b.n	80030ee <UART_SetConfig+0x282>
 8003094:	687b      	ldr	r3, [r7, #4]
 8003096:	681b      	ldr	r3, [r3, #0]
 8003098:	4a2d      	ldr	r2, [pc, #180]	; (8003150 <UART_SetConfig+0x2e4>)
 800309a:	4293      	cmp	r3, r2
 800309c:	d125      	bne.n	80030ea <UART_SetConfig+0x27e>
 800309e:	4b2e      	ldr	r3, [pc, #184]	; (8003158 <UART_SetConfig+0x2ec>)
 80030a0:	f8d3 3088 	ldr.w	r3, [r3, #136]	; 0x88
 80030a4:	f403 6340 	and.w	r3, r3, #3072	; 0xc00
 80030a8:	f5b3 6f40 	cmp.w	r3, #3072	; 0xc00
 80030ac:	d017      	beq.n	80030de <UART_SetConfig+0x272>
 80030ae:	f5b3 6f40 	cmp.w	r3, #3072	; 0xc00
 80030b2:	d817      	bhi.n	80030e4 <UART_SetConfig+0x278>
 80030b4:	f5b3 6f00 	cmp.w	r3, #2048	; 0x800
 80030b8:	d00b      	beq.n	80030d2 <UART_SetConfig+0x266>
 80030ba:	f5b3 6f00 	cmp.w	r3, #2048	; 0x800
 80030be:	d811      	bhi.n	80030e4 <UART_SetConfig+0x278>
 80030c0:	2b00      	cmp	r3, #0
 80030c2:	d003      	beq.n	80030cc <UART_SetConfig+0x260>
 80030c4:	f5b3 6f80 	cmp.w	r3, #1024	; 0x400
 80030c8:	d006      	beq.n	80030d8 <UART_SetConfig+0x26c>
 80030ca:	e00b      	b.n	80030e4 <UART_SetConfig+0x278>
 80030cc:	2300      	movs	r3, #0
 80030ce:	76fb      	strb	r3, [r7, #27]
 80030d0:	e00d      	b.n	80030ee <UART_SetConfig+0x282>
 80030d2:	2302      	movs	r3, #2
 80030d4:	76fb      	strb	r3, [r7, #27]
 80030d6:	e00a      	b.n	80030ee <UART_SetConfig+0x282>
 80030d8:	2304      	movs	r3, #4
 80030da:	76fb      	strb	r3, [r7, #27]
 80030dc:	e007      	b.n	80030ee <UART_SetConfig+0x282>
 80030de:	2308      	movs	r3, #8
 80030e0:	76fb      	strb	r3, [r7, #27]
 80030e2:	e004      	b.n	80030ee <UART_SetConfig+0x282>
 80030e4:	2310      	movs	r3, #16
 80030e6:	76fb      	strb	r3, [r7, #27]
 80030e8:	e001      	b.n	80030ee <UART_SetConfig+0x282>
 80030ea:	2310      	movs	r3, #16
 80030ec:	76fb      	strb	r3, [r7, #27]

  /* Check LPUART instance */
  if (UART_INSTANCE_LOWPOWER(huart))
 80030ee:	687b      	ldr	r3, [r7, #4]
 80030f0:	681b      	ldr	r3, [r3, #0]
 80030f2:	4a17      	ldr	r2, [pc, #92]	; (8003150 <UART_SetConfig+0x2e4>)
 80030f4:	4293      	cmp	r3, r2
 80030f6:	f040 8087 	bne.w	8003208 <UART_SetConfig+0x39c>
  {
    /* Retrieve frequency clock */
    switch (clocksource)
 80030fa:	7efb      	ldrb	r3, [r7, #27]
 80030fc:	2b08      	cmp	r3, #8
 80030fe:	d837      	bhi.n	8003170 <UART_SetConfig+0x304>
 8003100:	a201      	add	r2, pc, #4	; (adr r2, 8003108 <UART_SetConfig+0x29c>)
 8003102:	f852 f023 	ldr.w	pc, [r2, r3, lsl #2]
 8003106:	bf00      	nop
 8003108:	0800312d 	.word	0x0800312d
 800310c:	08003171 	.word	0x08003171
 8003110:	08003135 	.word	0x08003135
 8003114:	08003171 	.word	0x08003171
 8003118:	0800313b 	.word	0x0800313b
 800311c:	08003171 	.word	0x08003171
 8003120:	08003171 	.word	0x08003171
 8003124:	08003171 	.word	0x08003171
 8003128:	08003143 	.word	0x08003143
    {
      case UART_CLOCKSOURCE_PCLK1:
        pclk = HAL_RCC_GetPCLK1Freq();
 800312c:	f7ff f908 	bl	8002340 <HAL_RCC_GetPCLK1Freq>
 8003130:	6178      	str	r0, [r7, #20]
        break;
 8003132:	e022      	b.n	800317a <UART_SetConfig+0x30e>
      case UART_CLOCKSOURCE_HSI:
        pclk = (uint32_t) HSI_VALUE;
 8003134:	4b0d      	ldr	r3, [pc, #52]	; (800316c <UART_SetConfig+0x300>)
 8003136:	617b      	str	r3, [r7, #20]
        break;
 8003138:	e01f      	b.n	800317a <UART_SetConfig+0x30e>
      case UART_CLOCKSOURCE_SYSCLK:
        pclk = HAL_RCC_GetSysClockFreq();
 800313a:	f7ff f869 	bl	8002210 <HAL_RCC_GetSysClockFreq>
 800313e:	6178      	str	r0, [r7, #20]
        break;
 8003140:	e01b      	b.n	800317a <UART_SetConfig+0x30e>
      case UART_CLOCKSOURCE_LSE:
        pclk = (uint32_t) LSE_VALUE;
 8003142:	f44f 4300 	mov.w	r3, #32768	; 0x8000
 8003146:	617b      	str	r3, [r7, #20]
        break;
 8003148:	e017      	b.n	800317a <UART_SetConfig+0x30e>
 800314a:	bf00      	nop
 800314c:	efff69f3 	.word	0xefff69f3
 8003150:	40008000 	.word	0x40008000
 8003154:	40013800 	.word	0x40013800
 8003158:	40021000 	.word	0x40021000
 800315c:	40004400 	.word	0x40004400
 8003160:	40004800 	.word	0x40004800
 8003164:	40004c00 	.word	0x40004c00
 8003168:	40005000 	.word	0x40005000
 800316c:	00f42400 	.word	0x00f42400
      default:
        pclk = 0U;
 8003170:	2300      	movs	r3, #0
 8003172:	617b      	str	r3, [r7, #20]
        ret = HAL_ERROR;
 8003174:	2301      	movs	r3, #1
 8003176:	76bb      	strb	r3, [r7, #26]
        break;
 8003178:	bf00      	nop
    }

    /* If proper clock source reported */
    if (pclk != 0U)
 800317a:	697b      	ldr	r3, [r7, #20]
 800317c:	2b00      	cmp	r3, #0
 800317e:	f000 80f1 	beq.w	8003364 <UART_SetConfig+0x4f8>
      } /* if ( (lpuart_ker_ck_pres < (3 * huart->Init.BaudRate) ) ||
                (lpuart_ker_ck_pres > (4096 * huart->Init.BaudRate) )) */
#else
      /* No Prescaler applicable */
      /* Ensure that Frequency clock is in the range [3 * baudrate, 4096 * baudrate] */
      if ((pclk < (3U * huart->Init.BaudRate)) ||
 8003182:	687b      	ldr	r3, [r7, #4]
 8003184:	685a      	ldr	r2, [r3, #4]
 8003186:	4613      	mov	r3, r2
 8003188:	005b      	lsls	r3, r3, #1
 800318a:	4413      	add	r3, r2
 800318c:	697a      	ldr	r2, [r7, #20]
 800318e:	429a      	cmp	r2, r3
 8003190:	d305      	bcc.n	800319e <UART_SetConfig+0x332>
          (pclk > (4096U * huart->Init.BaudRate)))
 8003192:	687b      	ldr	r3, [r7, #4]
 8003194:	685b      	ldr	r3, [r3, #4]
 8003196:	031b      	lsls	r3, r3, #12
      if ((pclk < (3U * huart->Init.BaudRate)) ||
 8003198:	697a      	ldr	r2, [r7, #20]
 800319a:	429a      	cmp	r2, r3
 800319c:	d902      	bls.n	80031a4 <UART_SetConfig+0x338>
      {
        ret = HAL_ERROR;
 800319e:	2301      	movs	r3, #1
 80031a0:	76bb      	strb	r3, [r7, #26]
 80031a2:	e0df      	b.n	8003364 <UART_SetConfig+0x4f8>
      }
      else
      {
        usartdiv = (uint32_t)(UART_DIV_LPUART(pclk, huart->Init.BaudRate));
 80031a4:	697b      	ldr	r3, [r7, #20]
 80031a6:	4618      	mov	r0, r3
 80031a8:	f04f 0100 	mov.w	r1, #0
 80031ac:	f04f 0200 	mov.w	r2, #0
 80031b0:	f04f 0300 	mov.w	r3, #0
 80031b4:	020b      	lsls	r3, r1, #8
 80031b6:	ea43 6310 	orr.w	r3, r3, r0, lsr #24
 80031ba:	0202      	lsls	r2, r0, #8
 80031bc:	6879      	ldr	r1, [r7, #4]
 80031be:	6849      	ldr	r1, [r1, #4]
 80031c0:	0849      	lsrs	r1, r1, #1
 80031c2:	4608      	mov	r0, r1
 80031c4:	f04f 0100 	mov.w	r1, #0
 80031c8:	1814      	adds	r4, r2, r0
 80031ca:	eb43 0501 	adc.w	r5, r3, r1
 80031ce:	687b      	ldr	r3, [r7, #4]
 80031d0:	685b      	ldr	r3, [r3, #4]
 80031d2:	461a      	mov	r2, r3
 80031d4:	f04f 0300 	mov.w	r3, #0
 80031d8:	4620      	mov	r0, r4
 80031da:	4629      	mov	r1, r5
 80031dc:	f7fc fff4 	bl	80001c8 <__aeabi_uldivmod>
 80031e0:	4602      	mov	r2, r0
 80031e2:	460b      	mov	r3, r1
 80031e4:	4613      	mov	r3, r2
 80031e6:	613b      	str	r3, [r7, #16]
        if ((usartdiv >= LPUART_BRR_MIN) && (usartdiv <= LPUART_BRR_MAX))
 80031e8:	693b      	ldr	r3, [r7, #16]
 80031ea:	f5b3 7f40 	cmp.w	r3, #768	; 0x300
 80031ee:	d308      	bcc.n	8003202 <UART_SetConfig+0x396>
 80031f0:	693b      	ldr	r3, [r7, #16]
 80031f2:	f5b3 1f80 	cmp.w	r3, #1048576	; 0x100000
 80031f6:	d204      	bcs.n	8003202 <UART_SetConfig+0x396>
        {
          huart->Instance->BRR = usartdiv;
 80031f8:	687b      	ldr	r3, [r7, #4]
 80031fa:	681b      	ldr	r3, [r3, #0]
 80031fc:	693a      	ldr	r2, [r7, #16]
 80031fe:	60da      	str	r2, [r3, #12]
 8003200:	e0b0      	b.n	8003364 <UART_SetConfig+0x4f8>
        }
        else
        {
          ret = HAL_ERROR;
 8003202:	2301      	movs	r3, #1
 8003204:	76bb      	strb	r3, [r7, #26]
 8003206:	e0ad      	b.n	8003364 <UART_SetConfig+0x4f8>
      } /* if ( (pclk < (3 * huart->Init.BaudRate) ) || (pclk > (4096 * huart->Init.BaudRate) )) */
#endif /* USART_PRESC_PRESCALER */
    } /* if (pclk != 0) */
  }
  /* Check UART Over Sampling to set Baud Rate Register */
  else if (huart->Init.OverSampling == UART_OVERSAMPLING_8)
 8003208:	687b      	ldr	r3, [r7, #4]
 800320a:	69db      	ldr	r3, [r3, #28]
 800320c:	f5b3 4f00 	cmp.w	r3, #32768	; 0x8000
 8003210:	d15c      	bne.n	80032cc <UART_SetConfig+0x460>
  {
    switch (clocksource)
 8003212:	7efb      	ldrb	r3, [r7, #27]
 8003214:	2b08      	cmp	r3, #8
 8003216:	d828      	bhi.n	800326a <UART_SetConfig+0x3fe>
 8003218:	a201      	add	r2, pc, #4	; (adr r2, 8003220 <UART_SetConfig+0x3b4>)
 800321a:	f852 f023 	ldr.w	pc, [r2, r3, lsl #2]
 800321e:	bf00      	nop
 8003220:	08003245 	.word	0x08003245
 8003224:	0800324d 	.word	0x0800324d
 8003228:	08003255 	.word	0x08003255
 800322c:	0800326b 	.word	0x0800326b
 8003230:	0800325b 	.word	0x0800325b
 8003234:	0800326b 	.word	0x0800326b
 8003238:	0800326b 	.word	0x0800326b
 800323c:	0800326b 	.word	0x0800326b
 8003240:	08003263 	.word	0x08003263
    {
      case UART_CLOCKSOURCE_PCLK1:
        pclk = HAL_RCC_GetPCLK1Freq();
 8003244:	f7ff f87c 	bl	8002340 <HAL_RCC_GetPCLK1Freq>
 8003248:	6178      	str	r0, [r7, #20]
        break;
 800324a:	e013      	b.n	8003274 <UART_SetConfig+0x408>
      case UART_CLOCKSOURCE_PCLK2:
        pclk = HAL_RCC_GetPCLK2Freq();
 800324c:	f7ff f88e 	bl	800236c <HAL_RCC_GetPCLK2Freq>
 8003250:	6178      	str	r0, [r7, #20]
        break;
 8003252:	e00f      	b.n	8003274 <UART_SetConfig+0x408>
      case UART_CLOCKSOURCE_HSI:
        pclk = (uint32_t) HSI_VALUE;
 8003254:	4b49      	ldr	r3, [pc, #292]	; (800337c <UART_SetConfig+0x510>)
 8003256:	617b      	str	r3, [r7, #20]
        break;
 8003258:	e00c      	b.n	8003274 <UART_SetConfig+0x408>
      case UART_CLOCKSOURCE_SYSCLK:
        pclk = HAL_RCC_GetSysClockFreq();
 800325a:	f7fe ffd9 	bl	8002210 <HAL_RCC_GetSysClockFreq>
 800325e:	6178      	str	r0, [r7, #20]
        break;
 8003260:	e008      	b.n	8003274 <UART_SetConfig+0x408>
      case UART_CLOCKSOURCE_LSE:
        pclk = (uint32_t) LSE_VALUE;
 8003262:	f44f 4300 	mov.w	r3, #32768	; 0x8000
 8003266:	617b      	str	r3, [r7, #20]
        break;
 8003268:	e004      	b.n	8003274 <UART_SetConfig+0x408>
      default:
        pclk = 0U;
 800326a:	2300      	movs	r3, #0
 800326c:	617b      	str	r3, [r7, #20]
        ret = HAL_ERROR;
 800326e:	2301      	movs	r3, #1
 8003270:	76bb      	strb	r3, [r7, #26]
        break;
 8003272:	bf00      	nop
    }

    /* USARTDIV must be greater than or equal to 0d16 */
    if (pclk != 0U)
 8003274:	697b      	ldr	r3, [r7, #20]
 8003276:	2b00      	cmp	r3, #0
 8003278:	d074      	beq.n	8003364 <UART_SetConfig+0x4f8>
    {
#if defined(USART_PRESC_PRESCALER)
      usartdiv = (uint16_t)(UART_DIV_SAMPLING8(pclk, huart->Init.BaudRate, huart->Init.ClockPrescaler));
#else
      usartdiv = (uint16_t)(UART_DIV_SAMPLING8(pclk, huart->Init.BaudRate));
 800327a:	697b      	ldr	r3, [r7, #20]
 800327c:	005a      	lsls	r2, r3, #1
 800327e:	687b      	ldr	r3, [r7, #4]
 8003280:	685b      	ldr	r3, [r3, #4]
 8003282:	085b      	lsrs	r3, r3, #1
 8003284:	441a      	add	r2, r3
 8003286:	687b      	ldr	r3, [r7, #4]
 8003288:	685b      	ldr	r3, [r3, #4]
 800328a:	fbb2 f3f3 	udiv	r3, r2, r3
 800328e:	b29b      	uxth	r3, r3
 8003290:	613b      	str	r3, [r7, #16]
#endif /* USART_PRESC_PRESCALER */
      if ((usartdiv >= UART_BRR_MIN) && (usartdiv <= UART_BRR_MAX))
 8003292:	693b      	ldr	r3, [r7, #16]
 8003294:	2b0f      	cmp	r3, #15
 8003296:	d916      	bls.n	80032c6 <UART_SetConfig+0x45a>
 8003298:	693b      	ldr	r3, [r7, #16]
 800329a:	f5b3 3f80 	cmp.w	r3, #65536	; 0x10000
 800329e:	d212      	bcs.n	80032c6 <UART_SetConfig+0x45a>
      {
        brrtemp = (uint16_t)(usartdiv & 0xFFF0U);
 80032a0:	693b      	ldr	r3, [r7, #16]
 80032a2:	b29b      	uxth	r3, r3
 80032a4:	f023 030f 	bic.w	r3, r3, #15
 80032a8:	81fb      	strh	r3, [r7, #14]
        brrtemp |= (uint16_t)((usartdiv & (uint16_t)0x000FU) >> 1U);
 80032aa:	693b      	ldr	r3, [r7, #16]
 80032ac:	085b      	lsrs	r3, r3, #1
 80032ae:	b29b      	uxth	r3, r3
 80032b0:	f003 0307 	and.w	r3, r3, #7
 80032b4:	b29a      	uxth	r2, r3
 80032b6:	89fb      	ldrh	r3, [r7, #14]
 80032b8:	4313      	orrs	r3, r2
 80032ba:	81fb      	strh	r3, [r7, #14]
        huart->Instance->BRR = brrtemp;
 80032bc:	687b      	ldr	r3, [r7, #4]
 80032be:	681b      	ldr	r3, [r3, #0]
 80032c0:	89fa      	ldrh	r2, [r7, #14]
 80032c2:	60da      	str	r2, [r3, #12]
 80032c4:	e04e      	b.n	8003364 <UART_SetConfig+0x4f8>
      }
      else
      {
        ret = HAL_ERROR;
 80032c6:	2301      	movs	r3, #1
 80032c8:	76bb      	strb	r3, [r7, #26]
 80032ca:	e04b      	b.n	8003364 <UART_SetConfig+0x4f8>
      }
    }
  }
  else
  {
    switch (clocksource)
 80032cc:	7efb      	ldrb	r3, [r7, #27]
 80032ce:	2b08      	cmp	r3, #8
 80032d0:	d827      	bhi.n	8003322 <UART_SetConfig+0x4b6>
 80032d2:	a201      	add	r2, pc, #4	; (adr r2, 80032d8 <UART_SetConfig+0x46c>)
 80032d4:	f852 f023 	ldr.w	pc, [r2, r3, lsl #2]
 80032d8:	080032fd 	.word	0x080032fd
 80032dc:	08003305 	.word	0x08003305
 80032e0:	0800330d 	.word	0x0800330d
 80032e4:	08003323 	.word	0x08003323
 80032e8:	08003313 	.word	0x08003313
 80032ec:	08003323 	.word	0x08003323
 80032f0:	08003323 	.word	0x08003323
 80032f4:	08003323 	.word	0x08003323
 80032f8:	0800331b 	.word	0x0800331b
    {
      case UART_CLOCKSOURCE_PCLK1:
        pclk = HAL_RCC_GetPCLK1Freq();
 80032fc:	f7ff f820 	bl	8002340 <HAL_RCC_GetPCLK1Freq>
 8003300:	6178      	str	r0, [r7, #20]
        break;
 8003302:	e013      	b.n	800332c <UART_SetConfig+0x4c0>
      case UART_CLOCKSOURCE_PCLK2:
        pclk = HAL_RCC_GetPCLK2Freq();
 8003304:	f7ff f832 	bl	800236c <HAL_RCC_GetPCLK2Freq>
 8003308:	6178      	str	r0, [r7, #20]
        break;
 800330a:	e00f      	b.n	800332c <UART_SetConfig+0x4c0>
      case UART_CLOCKSOURCE_HSI:
        pclk = (uint32_t) HSI_VALUE;
 800330c:	4b1b      	ldr	r3, [pc, #108]	; (800337c <UART_SetConfig+0x510>)
 800330e:	617b      	str	r3, [r7, #20]
        break;
 8003310:	e00c      	b.n	800332c <UART_SetConfig+0x4c0>
      case UART_CLOCKSOURCE_SYSCLK:
        pclk = HAL_RCC_GetSysClockFreq();
 8003312:	f7fe ff7d 	bl	8002210 <HAL_RCC_GetSysClockFreq>
 8003316:	6178      	str	r0, [r7, #20]
        break;
 8003318:	e008      	b.n	800332c <UART_SetConfig+0x4c0>
      case UART_CLOCKSOURCE_LSE:
        pclk = (uint32_t) LSE_VALUE;
 800331a:	f44f 4300 	mov.w	r3, #32768	; 0x8000
 800331e:	617b      	str	r3, [r7, #20]
        break;
 8003320:	e004      	b.n	800332c <UART_SetConfig+0x4c0>
      default:
        pclk = 0U;
 8003322:	2300      	movs	r3, #0
 8003324:	617b      	str	r3, [r7, #20]
        ret = HAL_ERROR;
 8003326:	2301      	movs	r3, #1
 8003328:	76bb      	strb	r3, [r7, #26]
        break;
 800332a:	bf00      	nop
    }

    if (pclk != 0U)
 800332c:	697b      	ldr	r3, [r7, #20]
 800332e:	2b00      	cmp	r3, #0
 8003330:	d018      	beq.n	8003364 <UART_SetConfig+0x4f8>
    {
      /* USARTDIV must be greater than or equal to 0d16 */
#if defined(USART_PRESC_PRESCALER)
      usartdiv = (uint16_t)(UART_DIV_SAMPLING16(pclk, huart->Init.BaudRate, huart->Init.ClockPrescaler));
#else
      usartdiv = (uint16_t)(UART_DIV_SAMPLING16(pclk, huart->Init.BaudRate));
 8003332:	687b      	ldr	r3, [r7, #4]
 8003334:	685b      	ldr	r3, [r3, #4]
 8003336:	085a      	lsrs	r2, r3, #1
 8003338:	697b      	ldr	r3, [r7, #20]
 800333a:	441a      	add	r2, r3
 800333c:	687b      	ldr	r3, [r7, #4]
 800333e:	685b      	ldr	r3, [r3, #4]
 8003340:	fbb2 f3f3 	udiv	r3, r2, r3
 8003344:	b29b      	uxth	r3, r3
 8003346:	613b      	str	r3, [r7, #16]
#endif /* USART_PRESC_PRESCALER */
      if ((usartdiv >= UART_BRR_MIN) && (usartdiv <= UART_BRR_MAX))
 8003348:	693b      	ldr	r3, [r7, #16]
 800334a:	2b0f      	cmp	r3, #15
 800334c:	d908      	bls.n	8003360 <UART_SetConfig+0x4f4>
 800334e:	693b      	ldr	r3, [r7, #16]
 8003350:	f5b3 3f80 	cmp.w	r3, #65536	; 0x10000
 8003354:	d204      	bcs.n	8003360 <UART_SetConfig+0x4f4>
      {
        huart->Instance->BRR = usartdiv;
 8003356:	687b      	ldr	r3, [r7, #4]
 8003358:	681b      	ldr	r3, [r3, #0]
 800335a:	693a      	ldr	r2, [r7, #16]
 800335c:	60da      	str	r2, [r3, #12]
 800335e:	e001      	b.n	8003364 <UART_SetConfig+0x4f8>
      }
      else
      {
        ret = HAL_ERROR;
 8003360:	2301      	movs	r3, #1
 8003362:	76bb      	strb	r3, [r7, #26]
  huart->NbTxDataToProcess = 1;
  huart->NbRxDataToProcess = 1;
#endif /* USART_CR1_FIFOEN */

  /* Clear ISR function pointers */
  huart->RxISR = NULL;
 8003364:	687b      	ldr	r3, [r7, #4]
 8003366:	2200      	movs	r2, #0
 8003368:	665a      	str	r2, [r3, #100]	; 0x64
  huart->TxISR = NULL;
 800336a:	687b      	ldr	r3, [r7, #4]
 800336c:	2200      	movs	r2, #0
 800336e:	669a      	str	r2, [r3, #104]	; 0x68

  return ret;
 8003370:	7ebb      	ldrb	r3, [r7, #26]
}
 8003372:	4618      	mov	r0, r3
 8003374:	3720      	adds	r7, #32
 8003376:	46bd      	mov	sp, r7
 8003378:	bdb0      	pop	{r4, r5, r7, pc}
 800337a:	bf00      	nop
 800337c:	00f42400 	.word	0x00f42400

08003380 <UART_AdvFeatureConfig>:
  * @brief Configure the UART peripheral advanced features.
  * @param huart UART handle.
  * @retval None
  */
void UART_AdvFeatureConfig(UART_HandleTypeDef *huart)
{
 8003380:	b480      	push	{r7}
 8003382:	b083      	sub	sp, #12
 8003384:	af00      	add	r7, sp, #0
 8003386:	6078      	str	r0, [r7, #4]
  /* Check whether the set of advanced features to configure is properly set */
  assert_param(IS_UART_ADVFEATURE_INIT(huart->AdvancedInit.AdvFeatureInit));

  /* if required, configure TX pin active level inversion */
  if (HAL_IS_BIT_SET(huart->AdvancedInit.AdvFeatureInit, UART_ADVFEATURE_TXINVERT_INIT))
 8003388:	687b      	ldr	r3, [r7, #4]
 800338a:	6a5b      	ldr	r3, [r3, #36]	; 0x24
 800338c:	f003 0301 	and.w	r3, r3, #1
 8003390:	2b00      	cmp	r3, #0
 8003392:	d00a      	beq.n	80033aa <UART_AdvFeatureConfig+0x2a>
  {
    assert_param(IS_UART_ADVFEATURE_TXINV(huart->AdvancedInit.TxPinLevelInvert));
    MODIFY_REG(huart->Instance->CR2, USART_CR2_TXINV, huart->AdvancedInit.TxPinLevelInvert);
 8003394:	687b      	ldr	r3, [r7, #4]
 8003396:	681b      	ldr	r3, [r3, #0]
 8003398:	685b      	ldr	r3, [r3, #4]
 800339a:	f423 3100 	bic.w	r1, r3, #131072	; 0x20000
 800339e:	687b      	ldr	r3, [r7, #4]
 80033a0:	6a9a      	ldr	r2, [r3, #40]	; 0x28
 80033a2:	687b      	ldr	r3, [r7, #4]
 80033a4:	681b      	ldr	r3, [r3, #0]
 80033a6:	430a      	orrs	r2, r1
 80033a8:	605a      	str	r2, [r3, #4]
  }

  /* if required, configure RX pin active level inversion */
  if (HAL_IS_BIT_SET(huart->AdvancedInit.AdvFeatureInit, UART_ADVFEATURE_RXINVERT_INIT))
 80033aa:	687b      	ldr	r3, [r7, #4]
 80033ac:	6a5b      	ldr	r3, [r3, #36]	; 0x24
 80033ae:	f003 0302 	and.w	r3, r3, #2
 80033b2:	2b00      	cmp	r3, #0
 80033b4:	d00a      	beq.n	80033cc <UART_AdvFeatureConfig+0x4c>
  {
    assert_param(IS_UART_ADVFEATURE_RXINV(huart->AdvancedInit.RxPinLevelInvert));
    MODIFY_REG(huart->Instance->CR2, USART_CR2_RXINV, huart->AdvancedInit.RxPinLevelInvert);
 80033b6:	687b      	ldr	r3, [r7, #4]
 80033b8:	681b      	ldr	r3, [r3, #0]
 80033ba:	685b      	ldr	r3, [r3, #4]
 80033bc:	f423 3180 	bic.w	r1, r3, #65536	; 0x10000
 80033c0:	687b      	ldr	r3, [r7, #4]
 80033c2:	6ada      	ldr	r2, [r3, #44]	; 0x2c
 80033c4:	687b      	ldr	r3, [r7, #4]
 80033c6:	681b      	ldr	r3, [r3, #0]
 80033c8:	430a      	orrs	r2, r1
 80033ca:	605a      	str	r2, [r3, #4]
  }

  /* if required, configure data inversion */
  if (HAL_IS_BIT_SET(huart->AdvancedInit.AdvFeatureInit, UART_ADVFEATURE_DATAINVERT_INIT))
 80033cc:	687b      	ldr	r3, [r7, #4]
 80033ce:	6a5b      	ldr	r3, [r3, #36]	; 0x24
 80033d0:	f003 0304 	and.w	r3, r3, #4
 80033d4:	2b00      	cmp	r3, #0
 80033d6:	d00a      	beq.n	80033ee <UART_AdvFeatureConfig+0x6e>
  {
    assert_param(IS_UART_ADVFEATURE_DATAINV(huart->AdvancedInit.DataInvert));
    MODIFY_REG(huart->Instance->CR2, USART_CR2_DATAINV, huart->AdvancedInit.DataInvert);
 80033d8:	687b      	ldr	r3, [r7, #4]
 80033da:	681b      	ldr	r3, [r3, #0]
 80033dc:	685b      	ldr	r3, [r3, #4]
 80033de:	f423 2180 	bic.w	r1, r3, #262144	; 0x40000
 80033e2:	687b      	ldr	r3, [r7, #4]
 80033e4:	6b1a      	ldr	r2, [r3, #48]	; 0x30
 80033e6:	687b      	ldr	r3, [r7, #4]
 80033e8:	681b      	ldr	r3, [r3, #0]
 80033ea:	430a      	orrs	r2, r1
 80033ec:	605a      	str	r2, [r3, #4]
  }

  /* if required, configure RX/TX pins swap */
  if (HAL_IS_BIT_SET(huart->AdvancedInit.AdvFeatureInit, UART_ADVFEATURE_SWAP_INIT))
 80033ee:	687b      	ldr	r3, [r7, #4]
 80033f0:	6a5b      	ldr	r3, [r3, #36]	; 0x24
 80033f2:	f003 0308 	and.w	r3, r3, #8
 80033f6:	2b00      	cmp	r3, #0
 80033f8:	d00a      	beq.n	8003410 <UART_AdvFeatureConfig+0x90>
  {
    assert_param(IS_UART_ADVFEATURE_SWAP(huart->AdvancedInit.Swap));
    MODIFY_REG(huart->Instance->CR2, USART_CR2_SWAP, huart->AdvancedInit.Swap);
 80033fa:	687b      	ldr	r3, [r7, #4]
 80033fc:	681b      	ldr	r3, [r3, #0]
 80033fe:	685b      	ldr	r3, [r3, #4]
 8003400:	f423 4100 	bic.w	r1, r3, #32768	; 0x8000
 8003404:	687b      	ldr	r3, [r7, #4]
 8003406:	6b5a      	ldr	r2, [r3, #52]	; 0x34
 8003408:	687b      	ldr	r3, [r7, #4]
 800340a:	681b      	ldr	r3, [r3, #0]
 800340c:	430a      	orrs	r2, r1
 800340e:	605a      	str	r2, [r3, #4]
  }

  /* if required, configure RX overrun detection disabling */
  if (HAL_IS_BIT_SET(huart->AdvancedInit.AdvFeatureInit, UART_ADVFEATURE_RXOVERRUNDISABLE_INIT))
 8003410:	687b      	ldr	r3, [r7, #4]
 8003412:	6a5b      	ldr	r3, [r3, #36]	; 0x24
 8003414:	f003 0310 	and.w	r3, r3, #16
 8003418:	2b00      	cmp	r3, #0
 800341a:	d00a      	beq.n	8003432 <UART_AdvFeatureConfig+0xb2>
  {
    assert_param(IS_UART_OVERRUN(huart->AdvancedInit.OverrunDisable));
    MODIFY_REG(huart->Instance->CR3, USART_CR3_OVRDIS, huart->AdvancedInit.OverrunDisable);
 800341c:	687b      	ldr	r3, [r7, #4]
 800341e:	681b      	ldr	r3, [r3, #0]
 8003420:	689b      	ldr	r3, [r3, #8]
 8003422:	f423 5180 	bic.w	r1, r3, #4096	; 0x1000
 8003426:	687b      	ldr	r3, [r7, #4]
 8003428:	6b9a      	ldr	r2, [r3, #56]	; 0x38
 800342a:	687b      	ldr	r3, [r7, #4]
 800342c:	681b      	ldr	r3, [r3, #0]
 800342e:	430a      	orrs	r2, r1
 8003430:	609a      	str	r2, [r3, #8]
  }

  /* if required, configure DMA disabling on reception error */
  if (HAL_IS_BIT_SET(huart->AdvancedInit.AdvFeatureInit, UART_ADVFEATURE_DMADISABLEONERROR_INIT))
 8003432:	687b      	ldr	r3, [r7, #4]
 8003434:	6a5b      	ldr	r3, [r3, #36]	; 0x24
 8003436:	f003 0320 	and.w	r3, r3, #32
 800343a:	2b00      	cmp	r3, #0
 800343c:	d00a      	beq.n	8003454 <UART_AdvFeatureConfig+0xd4>
  {
    assert_param(IS_UART_ADVFEATURE_DMAONRXERROR(huart->AdvancedInit.DMADisableonRxError));
    MODIFY_REG(huart->Instance->CR3, USART_CR3_DDRE, huart->AdvancedInit.DMADisableonRxError);
 800343e:	687b      	ldr	r3, [r7, #4]
 8003440:	681b      	ldr	r3, [r3, #0]
 8003442:	689b      	ldr	r3, [r3, #8]
 8003444:	f423 5100 	bic.w	r1, r3, #8192	; 0x2000
 8003448:	687b      	ldr	r3, [r7, #4]
 800344a:	6bda      	ldr	r2, [r3, #60]	; 0x3c
 800344c:	687b      	ldr	r3, [r7, #4]
 800344e:	681b      	ldr	r3, [r3, #0]
 8003450:	430a      	orrs	r2, r1
 8003452:	609a      	str	r2, [r3, #8]
  }

  /* if required, configure auto Baud rate detection scheme */
  if (HAL_IS_BIT_SET(huart->AdvancedInit.AdvFeatureInit, UART_ADVFEATURE_AUTOBAUDRATE_INIT))
 8003454:	687b      	ldr	r3, [r7, #4]
 8003456:	6a5b      	ldr	r3, [r3, #36]	; 0x24
 8003458:	f003 0340 	and.w	r3, r3, #64	; 0x40
 800345c:	2b00      	cmp	r3, #0
 800345e:	d01a      	beq.n	8003496 <UART_AdvFeatureConfig+0x116>
  {
    assert_param(IS_USART_AUTOBAUDRATE_DETECTION_INSTANCE(huart->Instance));
    assert_param(IS_UART_ADVFEATURE_AUTOBAUDRATE(huart->AdvancedInit.AutoBaudRateEnable));
    MODIFY_REG(huart->Instance->CR2, USART_CR2_ABREN, huart->AdvancedInit.AutoBaudRateEnable);
 8003460:	687b      	ldr	r3, [r7, #4]
 8003462:	681b      	ldr	r3, [r3, #0]
 8003464:	685b      	ldr	r3, [r3, #4]
 8003466:	f423 1180 	bic.w	r1, r3, #1048576	; 0x100000
 800346a:	687b      	ldr	r3, [r7, #4]
 800346c:	6c1a      	ldr	r2, [r3, #64]	; 0x40
 800346e:	687b      	ldr	r3, [r7, #4]
 8003470:	681b      	ldr	r3, [r3, #0]
 8003472:	430a      	orrs	r2, r1
 8003474:	605a      	str	r2, [r3, #4]
    /* set auto Baudrate detection parameters if detection is enabled */
    if (huart->AdvancedInit.AutoBaudRateEnable == UART_ADVFEATURE_AUTOBAUDRATE_ENABLE)
 8003476:	687b      	ldr	r3, [r7, #4]
 8003478:	6c1b      	ldr	r3, [r3, #64]	; 0x40
 800347a:	f5b3 1f80 	cmp.w	r3, #1048576	; 0x100000
 800347e:	d10a      	bne.n	8003496 <UART_AdvFeatureConfig+0x116>
    {
      assert_param(IS_UART_ADVFEATURE_AUTOBAUDRATEMODE(huart->AdvancedInit.AutoBaudRateMode));
      MODIFY_REG(huart->Instance->CR2, USART_CR2_ABRMODE, huart->AdvancedInit.AutoBaudRateMode);
 8003480:	687b      	ldr	r3, [r7, #4]
 8003482:	681b      	ldr	r3, [r3, #0]
 8003484:	685b      	ldr	r3, [r3, #4]
 8003486:	f423 01c0 	bic.w	r1, r3, #6291456	; 0x600000
 800348a:	687b      	ldr	r3, [r7, #4]
 800348c:	6c5a      	ldr	r2, [r3, #68]	; 0x44
 800348e:	687b      	ldr	r3, [r7, #4]
 8003490:	681b      	ldr	r3, [r3, #0]
 8003492:	430a      	orrs	r2, r1
 8003494:	605a      	str	r2, [r3, #4]
    }
  }

  /* if required, configure MSB first on communication line */
  if (HAL_IS_BIT_SET(huart->AdvancedInit.AdvFeatureInit, UART_ADVFEATURE_MSBFIRST_INIT))
 8003496:	687b      	ldr	r3, [r7, #4]
 8003498:	6a5b      	ldr	r3, [r3, #36]	; 0x24
 800349a:	f003 0380 	and.w	r3, r3, #128	; 0x80
 800349e:	2b00      	cmp	r3, #0
 80034a0:	d00a      	beq.n	80034b8 <UART_AdvFeatureConfig+0x138>
  {
    assert_param(IS_UART_ADVFEATURE_MSBFIRST(huart->AdvancedInit.MSBFirst));
    MODIFY_REG(huart->Instance->CR2, USART_CR2_MSBFIRST, huart->AdvancedInit.MSBFirst);
 80034a2:	687b      	ldr	r3, [r7, #4]
 80034a4:	681b      	ldr	r3, [r3, #0]
 80034a6:	685b      	ldr	r3, [r3, #4]
 80034a8:	f423 2100 	bic.w	r1, r3, #524288	; 0x80000
 80034ac:	687b      	ldr	r3, [r7, #4]
 80034ae:	6c9a      	ldr	r2, [r3, #72]	; 0x48
 80034b0:	687b      	ldr	r3, [r7, #4]
 80034b2:	681b      	ldr	r3, [r3, #0]
 80034b4:	430a      	orrs	r2, r1
 80034b6:	605a      	str	r2, [r3, #4]
  }
}
 80034b8:	bf00      	nop
 80034ba:	370c      	adds	r7, #12
 80034bc:	46bd      	mov	sp, r7
 80034be:	f85d 7b04 	ldr.w	r7, [sp], #4
 80034c2:	4770      	bx	lr

080034c4 <UART_CheckIdleState>:
  * @brief Check the UART Idle State.
  * @param huart UART handle.
  * @retval HAL status
  */
HAL_StatusTypeDef UART_CheckIdleState(UART_HandleTypeDef *huart)
{
 80034c4:	b580      	push	{r7, lr}
 80034c6:	b086      	sub	sp, #24
 80034c8:	af02      	add	r7, sp, #8
 80034ca:	6078      	str	r0, [r7, #4]
  uint32_t tickstart;

  /* Initialize the UART ErrorCode */
  huart->ErrorCode = HAL_UART_ERROR_NONE;
 80034cc:	687b      	ldr	r3, [r7, #4]
 80034ce:	2200      	movs	r2, #0
 80034d0:	f8c3 2080 	str.w	r2, [r3, #128]	; 0x80

  /* Init tickstart for timeout management */
  tickstart = HAL_GetTick();
 80034d4:	f7fd fb38 	bl	8000b48 <HAL_GetTick>
 80034d8:	60f8      	str	r0, [r7, #12]

  /* Check if the Transmitter is enabled */
  if ((huart->Instance->CR1 & USART_CR1_TE) == USART_CR1_TE)
 80034da:	687b      	ldr	r3, [r7, #4]
 80034dc:	681b      	ldr	r3, [r3, #0]
 80034de:	681b      	ldr	r3, [r3, #0]
 80034e0:	f003 0308 	and.w	r3, r3, #8
 80034e4:	2b08      	cmp	r3, #8
 80034e6:	d10e      	bne.n	8003506 <UART_CheckIdleState+0x42>
  {
    /* Wait until TEACK flag is set */
    if (UART_WaitOnFlagUntilTimeout(huart, USART_ISR_TEACK, RESET, tickstart, HAL_UART_TIMEOUT_VALUE) != HAL_OK)
 80034e8:	f06f 437e 	mvn.w	r3, #4261412864	; 0xfe000000
 80034ec:	9300      	str	r3, [sp, #0]
 80034ee:	68fb      	ldr	r3, [r7, #12]
 80034f0:	2200      	movs	r2, #0
 80034f2:	f44f 1100 	mov.w	r1, #2097152	; 0x200000
 80034f6:	6878      	ldr	r0, [r7, #4]
 80034f8:	f000 f82d 	bl	8003556 <UART_WaitOnFlagUntilTimeout>
 80034fc:	4603      	mov	r3, r0
 80034fe:	2b00      	cmp	r3, #0
 8003500:	d001      	beq.n	8003506 <UART_CheckIdleState+0x42>
    {
      /* Timeout occurred */
      return HAL_TIMEOUT;
 8003502:	2303      	movs	r3, #3
 8003504:	e023      	b.n	800354e <UART_CheckIdleState+0x8a>
    }
  }

  /* Check if the Receiver is enabled */
  if ((huart->Instance->CR1 & USART_CR1_RE) == USART_CR1_RE)
 8003506:	687b      	ldr	r3, [r7, #4]
 8003508:	681b      	ldr	r3, [r3, #0]
 800350a:	681b      	ldr	r3, [r3, #0]
 800350c:	f003 0304 	and.w	r3, r3, #4
 8003510:	2b04      	cmp	r3, #4
 8003512:	d10e      	bne.n	8003532 <UART_CheckIdleState+0x6e>
  {
    /* Wait until REACK flag is set */
    if (UART_WaitOnFlagUntilTimeout(huart, USART_ISR_REACK, RESET, tickstart, HAL_UART_TIMEOUT_VALUE) != HAL_OK)
 8003514:	f06f 437e 	mvn.w	r3, #4261412864	; 0xfe000000
 8003518:	9300      	str	r3, [sp, #0]
 800351a:	68fb      	ldr	r3, [r7, #12]
 800351c:	2200      	movs	r2, #0
 800351e:	f44f 0180 	mov.w	r1, #4194304	; 0x400000
 8003522:	6878      	ldr	r0, [r7, #4]
 8003524:	f000 f817 	bl	8003556 <UART_WaitOnFlagUntilTimeout>
 8003528:	4603      	mov	r3, r0
 800352a:	2b00      	cmp	r3, #0
 800352c:	d001      	beq.n	8003532 <UART_CheckIdleState+0x6e>
    {
      /* Timeout occurred */
      return HAL_TIMEOUT;
 800352e:	2303      	movs	r3, #3
 8003530:	e00d      	b.n	800354e <UART_CheckIdleState+0x8a>
    }
  }

  /* Initialize the UART State */
  huart->gState = HAL_UART_STATE_READY;
 8003532:	687b      	ldr	r3, [r7, #4]
 8003534:	2220      	movs	r2, #32
 8003536:	679a      	str	r2, [r3, #120]	; 0x78
  huart->RxState = HAL_UART_STATE_READY;
 8003538:	687b      	ldr	r3, [r7, #4]
 800353a:	2220      	movs	r2, #32
 800353c:	67da      	str	r2, [r3, #124]	; 0x7c
  huart->ReceptionType = HAL_UART_RECEPTION_STANDARD;
 800353e:	687b      	ldr	r3, [r7, #4]
 8003540:	2200      	movs	r2, #0
 8003542:	661a      	str	r2, [r3, #96]	; 0x60

  __HAL_UNLOCK(huart);
 8003544:	687b      	ldr	r3, [r7, #4]
 8003546:	2200      	movs	r2, #0
 8003548:	f883 2074 	strb.w	r2, [r3, #116]	; 0x74

  return HAL_OK;
 800354c:	2300      	movs	r3, #0
}
 800354e:	4618      	mov	r0, r3
 8003550:	3710      	adds	r7, #16
 8003552:	46bd      	mov	sp, r7
 8003554:	bd80      	pop	{r7, pc}

08003556 <UART_WaitOnFlagUntilTimeout>:
  * @param Timeout   Timeout duration
  * @retval HAL status
  */
HAL_StatusTypeDef UART_WaitOnFlagUntilTimeout(UART_HandleTypeDef *huart, uint32_t Flag, FlagStatus Status,
                                              uint32_t Tickstart, uint32_t Timeout)
{
 8003556:	b580      	push	{r7, lr}
 8003558:	b084      	sub	sp, #16
 800355a:	af00      	add	r7, sp, #0
 800355c:	60f8      	str	r0, [r7, #12]
 800355e:	60b9      	str	r1, [r7, #8]
 8003560:	603b      	str	r3, [r7, #0]
 8003562:	4613      	mov	r3, r2
 8003564:	71fb      	strb	r3, [r7, #7]
  /* Wait until flag is set */
  while ((__HAL_UART_GET_FLAG(huart, Flag) ? SET : RESET) == Status)
 8003566:	e05e      	b.n	8003626 <UART_WaitOnFlagUntilTimeout+0xd0>
  {
    /* Check for the Timeout */
    if (Timeout != HAL_MAX_DELAY)
 8003568:	69bb      	ldr	r3, [r7, #24]
 800356a:	f1b3 3fff 	cmp.w	r3, #4294967295
 800356e:	d05a      	beq.n	8003626 <UART_WaitOnFlagUntilTimeout+0xd0>
    {
      if (((HAL_GetTick() - Tickstart) > Timeout) || (Timeout == 0U))
 8003570:	f7fd faea 	bl	8000b48 <HAL_GetTick>
 8003574:	4602      	mov	r2, r0
 8003576:	683b      	ldr	r3, [r7, #0]
 8003578:	1ad3      	subs	r3, r2, r3
 800357a:	69ba      	ldr	r2, [r7, #24]
 800357c:	429a      	cmp	r2, r3
 800357e:	d302      	bcc.n	8003586 <UART_WaitOnFlagUntilTimeout+0x30>
 8003580:	69bb      	ldr	r3, [r7, #24]
 8003582:	2b00      	cmp	r3, #0
 8003584:	d11b      	bne.n	80035be <UART_WaitOnFlagUntilTimeout+0x68>
        /* Disable TXE, RXNE, PE and ERR (Frame error, noise error, overrun error)
           interrupts for the interrupt process */
#if defined(USART_CR1_FIFOEN)
        CLEAR_BIT(huart->Instance->CR1, (USART_CR1_RXNEIE_RXFNEIE | USART_CR1_PEIE | USART_CR1_TXEIE_TXFNFIE));
#else
        CLEAR_BIT(huart->Instance->CR1, (USART_CR1_RXNEIE | USART_CR1_PEIE | USART_CR1_TXEIE));
 8003586:	68fb      	ldr	r3, [r7, #12]
 8003588:	681b      	ldr	r3, [r3, #0]
 800358a:	681a      	ldr	r2, [r3, #0]
 800358c:	68fb      	ldr	r3, [r7, #12]
 800358e:	681b      	ldr	r3, [r3, #0]
 8003590:	f422 72d0 	bic.w	r2, r2, #416	; 0x1a0
 8003594:	601a      	str	r2, [r3, #0]
#endif /* USART_CR1_FIFOEN */
        CLEAR_BIT(huart->Instance->CR3, USART_CR3_EIE);
 8003596:	68fb      	ldr	r3, [r7, #12]
 8003598:	681b      	ldr	r3, [r3, #0]
 800359a:	689a      	ldr	r2, [r3, #8]
 800359c:	68fb      	ldr	r3, [r7, #12]
 800359e:	681b      	ldr	r3, [r3, #0]
 80035a0:	f022 0201 	bic.w	r2, r2, #1
 80035a4:	609a      	str	r2, [r3, #8]

        huart->gState = HAL_UART_STATE_READY;
 80035a6:	68fb      	ldr	r3, [r7, #12]
 80035a8:	2220      	movs	r2, #32
 80035aa:	679a      	str	r2, [r3, #120]	; 0x78
        huart->RxState = HAL_UART_STATE_READY;
 80035ac:	68fb      	ldr	r3, [r7, #12]
 80035ae:	2220      	movs	r2, #32
 80035b0:	67da      	str	r2, [r3, #124]	; 0x7c

        __HAL_UNLOCK(huart);
 80035b2:	68fb      	ldr	r3, [r7, #12]
 80035b4:	2200      	movs	r2, #0
 80035b6:	f883 2074 	strb.w	r2, [r3, #116]	; 0x74

        return HAL_TIMEOUT;
 80035ba:	2303      	movs	r3, #3
 80035bc:	e043      	b.n	8003646 <UART_WaitOnFlagUntilTimeout+0xf0>
      }

      if (READ_BIT(huart->Instance->CR1, USART_CR1_RE) != 0U)
 80035be:	68fb      	ldr	r3, [r7, #12]
 80035c0:	681b      	ldr	r3, [r3, #0]
 80035c2:	681b      	ldr	r3, [r3, #0]
 80035c4:	f003 0304 	and.w	r3, r3, #4
 80035c8:	2b00      	cmp	r3, #0
 80035ca:	d02c      	beq.n	8003626 <UART_WaitOnFlagUntilTimeout+0xd0>
      {
        if (__HAL_UART_GET_FLAG(huart, UART_FLAG_RTOF) == SET)
 80035cc:	68fb      	ldr	r3, [r7, #12]
 80035ce:	681b      	ldr	r3, [r3, #0]
 80035d0:	69db      	ldr	r3, [r3, #28]
 80035d2:	f403 6300 	and.w	r3, r3, #2048	; 0x800
 80035d6:	f5b3 6f00 	cmp.w	r3, #2048	; 0x800
 80035da:	d124      	bne.n	8003626 <UART_WaitOnFlagUntilTimeout+0xd0>
        {
          /* Clear Receiver Timeout flag*/
          __HAL_UART_CLEAR_FLAG(huart, UART_CLEAR_RTOF);
 80035dc:	68fb      	ldr	r3, [r7, #12]
 80035de:	681b      	ldr	r3, [r3, #0]
 80035e0:	f44f 6200 	mov.w	r2, #2048	; 0x800
 80035e4:	621a      	str	r2, [r3, #32]
          /* Disable TXE, RXNE, PE and ERR (Frame error, noise error, overrun error)
             interrupts for the interrupt process */
#if defined(USART_CR1_FIFOEN)
          CLEAR_BIT(huart->Instance->CR1, (USART_CR1_RXNEIE_RXFNEIE | USART_CR1_PEIE | USART_CR1_TXEIE_TXFNFIE));
#else
          CLEAR_BIT(huart->Instance->CR1, (USART_CR1_RXNEIE | USART_CR1_PEIE | USART_CR1_TXEIE));
 80035e6:	68fb      	ldr	r3, [r7, #12]
 80035e8:	681b      	ldr	r3, [r3, #0]
 80035ea:	681a      	ldr	r2, [r3, #0]
 80035ec:	68fb      	ldr	r3, [r7, #12]
 80035ee:	681b      	ldr	r3, [r3, #0]
 80035f0:	f422 72d0 	bic.w	r2, r2, #416	; 0x1a0
 80035f4:	601a      	str	r2, [r3, #0]
#endif
          CLEAR_BIT(huart->Instance->CR3, USART_CR3_EIE);
 80035f6:	68fb      	ldr	r3, [r7, #12]
 80035f8:	681b      	ldr	r3, [r3, #0]
 80035fa:	689a      	ldr	r2, [r3, #8]
 80035fc:	68fb      	ldr	r3, [r7, #12]
 80035fe:	681b      	ldr	r3, [r3, #0]
 8003600:	f022 0201 	bic.w	r2, r2, #1
 8003604:	609a      	str	r2, [r3, #8]

          huart->gState = HAL_UART_STATE_READY;
 8003606:	68fb      	ldr	r3, [r7, #12]
 8003608:	2220      	movs	r2, #32
 800360a:	679a      	str	r2, [r3, #120]	; 0x78
          huart->RxState = HAL_UART_STATE_READY;
 800360c:	68fb      	ldr	r3, [r7, #12]
 800360e:	2220      	movs	r2, #32
 8003610:	67da      	str	r2, [r3, #124]	; 0x7c
          huart->ErrorCode = HAL_UART_ERROR_RTO;
 8003612:	68fb      	ldr	r3, [r7, #12]
 8003614:	2220      	movs	r2, #32
 8003616:	f8c3 2080 	str.w	r2, [r3, #128]	; 0x80

          /* Process Unlocked */
          __HAL_UNLOCK(huart);
 800361a:	68fb      	ldr	r3, [r7, #12]
 800361c:	2200      	movs	r2, #0
 800361e:	f883 2074 	strb.w	r2, [r3, #116]	; 0x74

          return HAL_TIMEOUT;
 8003622:	2303      	movs	r3, #3
 8003624:	e00f      	b.n	8003646 <UART_WaitOnFlagUntilTimeout+0xf0>
  while ((__HAL_UART_GET_FLAG(huart, Flag) ? SET : RESET) == Status)
 8003626:	68fb      	ldr	r3, [r7, #12]
 8003628:	681b      	ldr	r3, [r3, #0]
 800362a:	69da      	ldr	r2, [r3, #28]
 800362c:	68bb      	ldr	r3, [r7, #8]
 800362e:	4013      	ands	r3, r2
 8003630:	68ba      	ldr	r2, [r7, #8]
 8003632:	429a      	cmp	r2, r3
 8003634:	bf0c      	ite	eq
 8003636:	2301      	moveq	r3, #1
 8003638:	2300      	movne	r3, #0
 800363a:	b2db      	uxtb	r3, r3
 800363c:	461a      	mov	r2, r3
 800363e:	79fb      	ldrb	r3, [r7, #7]
 8003640:	429a      	cmp	r2, r3
 8003642:	d091      	beq.n	8003568 <UART_WaitOnFlagUntilTimeout+0x12>
        }
      }
    }
  }
  return HAL_OK;
 8003644:	2300      	movs	r3, #0
}
 8003646:	4618      	mov	r0, r3
 8003648:	3710      	adds	r7, #16
 800364a:	46bd      	mov	sp, r7
 800364c:	bd80      	pop	{r7, pc}
	...

08003650 <__libc_init_array>:
 8003650:	b570      	push	{r4, r5, r6, lr}
 8003652:	4d0d      	ldr	r5, [pc, #52]	; (8003688 <__libc_init_array+0x38>)
 8003654:	4c0d      	ldr	r4, [pc, #52]	; (800368c <__libc_init_array+0x3c>)
 8003656:	1b64      	subs	r4, r4, r5
 8003658:	10a4      	asrs	r4, r4, #2
 800365a:	2600      	movs	r6, #0
 800365c:	42a6      	cmp	r6, r4
 800365e:	d109      	bne.n	8003674 <__libc_init_array+0x24>
 8003660:	4d0b      	ldr	r5, [pc, #44]	; (8003690 <__libc_init_array+0x40>)
 8003662:	4c0c      	ldr	r4, [pc, #48]	; (8003694 <__libc_init_array+0x44>)
 8003664:	f000 f820 	bl	80036a8 <_init>
 8003668:	1b64      	subs	r4, r4, r5
 800366a:	10a4      	asrs	r4, r4, #2
 800366c:	2600      	movs	r6, #0
 800366e:	42a6      	cmp	r6, r4
 8003670:	d105      	bne.n	800367e <__libc_init_array+0x2e>
 8003672:	bd70      	pop	{r4, r5, r6, pc}
 8003674:	f855 3b04 	ldr.w	r3, [r5], #4
 8003678:	4798      	blx	r3
 800367a:	3601      	adds	r6, #1
 800367c:	e7ee      	b.n	800365c <__libc_init_array+0xc>
 800367e:	f855 3b04 	ldr.w	r3, [r5], #4
 8003682:	4798      	blx	r3
 8003684:	3601      	adds	r6, #1
 8003686:	e7f2      	b.n	800366e <__libc_init_array+0x1e>
 8003688:	08003710 	.word	0x08003710
 800368c:	08003710 	.word	0x08003710
 8003690:	08003710 	.word	0x08003710
 8003694:	08003714 	.word	0x08003714

08003698 <memset>:
 8003698:	4402      	add	r2, r0
 800369a:	4603      	mov	r3, r0
 800369c:	4293      	cmp	r3, r2
 800369e:	d100      	bne.n	80036a2 <memset+0xa>
 80036a0:	4770      	bx	lr
 80036a2:	f803 1b01 	strb.w	r1, [r3], #1
 80036a6:	e7f9      	b.n	800369c <memset+0x4>

080036a8 <_init>:
 80036a8:	b5f8      	push	{r3, r4, r5, r6, r7, lr}
 80036aa:	bf00      	nop
 80036ac:	bcf8      	pop	{r3, r4, r5, r6, r7}
 80036ae:	bc08      	pop	{r3}
 80036b0:	469e      	mov	lr, r3
 80036b2:	4770      	bx	lr

080036b4 <_fini>:
 80036b4:	b5f8      	push	{r3, r4, r5, r6, r7, lr}
 80036b6:	bf00      	nop
 80036b8:	bcf8      	pop	{r3, r4, r5, r6, r7}
 80036ba:	bc08      	pop	{r3}
 80036bc:	469e      	mov	lr, r3
 80036be:	4770      	bx	lr
