
SecondProgram.elf:     file format elf32-littlearm

Sections:
Idx Name          Size      VMA       LMA       File off  Algn
  0 .isr_vector   00000188  08000000  08000000  00010000  2**0
                  CONTENTS, ALLOC, LOAD, READONLY, DATA
  1 .text         000029f8  08000188  08000188  00010188  2**2
                  CONTENTS, ALLOC, LOAD, READONLY, CODE
  2 .rodata       00000058  08002b80  08002b80  00012b80  2**2
                  CONTENTS, ALLOC, LOAD, READONLY, DATA
  3 .ARM.extab    00000000  08002bd8  08002bd8  00020010  2**0
                  CONTENTS
  4 .ARM          00000008  08002bd8  08002bd8  00012bd8  2**2
                  CONTENTS, ALLOC, LOAD, READONLY, DATA
  5 .preinit_array 00000000  08002be0  08002be0  00020010  2**0
                  CONTENTS, ALLOC, LOAD, DATA
  6 .init_array   00000004  08002be0  08002be0  00012be0  2**2
                  CONTENTS, ALLOC, LOAD, DATA
  7 .fini_array   00000004  08002be4  08002be4  00012be4  2**2
                  CONTENTS, ALLOC, LOAD, DATA
  8 .data         00000010  20000000  08002be8  00020000  2**2
                  CONTENTS, ALLOC, LOAD, DATA
  9 .bss          0000019c  20000010  08002bf8  00020010  2**2
                  ALLOC
 10 ._user_heap_stack 00000604  200001ac  08002bf8  000201ac  2**0
                  ALLOC
 11 .ARM.attributes 00000030  00000000  00000000  00020010  2**0
                  CONTENTS, READONLY
 12 .comment      00000053  00000000  00000000  00020040  2**0
                  CONTENTS, READONLY
 13 .debug_frame  000000ac  00000000  00000000  00020094  2**2
                  CONTENTS, READONLY, DEBUGGING, OCTETS

Disassembly of section .text:

08000188 <__do_global_dtors_aux>:
 8000188:	b510      	push	{r4, lr}
 800018a:	4c05      	ldr	r4, [pc, #20]	; (80001a0 <__do_global_dtors_aux+0x18>)
 800018c:	7823      	ldrb	r3, [r4, #0]
 800018e:	b933      	cbnz	r3, 800019e <__do_global_dtors_aux+0x16>
 8000190:	4b04      	ldr	r3, [pc, #16]	; (80001a4 <__do_global_dtors_aux+0x1c>)
 8000192:	b113      	cbz	r3, 800019a <__do_global_dtors_aux+0x12>
 8000194:	4804      	ldr	r0, [pc, #16]	; (80001a8 <__do_global_dtors_aux+0x20>)
 8000196:	f3af 8000 	nop.w
 800019a:	2301      	movs	r3, #1
 800019c:	7023      	strb	r3, [r4, #0]
 800019e:	bd10      	pop	{r4, pc}
 80001a0:	20000010 	.word	0x20000010
 80001a4:	00000000 	.word	0x00000000
 80001a8:	08002b68 	.word	0x08002b68

080001ac <frame_dummy>:
 80001ac:	b508      	push	{r3, lr}
 80001ae:	4b03      	ldr	r3, [pc, #12]	; (80001bc <frame_dummy+0x10>)
 80001b0:	b11b      	cbz	r3, 80001ba <frame_dummy+0xe>
 80001b2:	4903      	ldr	r1, [pc, #12]	; (80001c0 <frame_dummy+0x14>)
 80001b4:	4803      	ldr	r0, [pc, #12]	; (80001c4 <frame_dummy+0x18>)
 80001b6:	f3af 8000 	nop.w
 80001ba:	bd08      	pop	{r3, pc}
 80001bc:	00000000 	.word	0x00000000
 80001c0:	20000014 	.word	0x20000014
 80001c4:	08002b68 	.word	0x08002b68

080001c8 <__aeabi_uldivmod>:
 80001c8:	b953      	cbnz	r3, 80001e0 <__aeabi_uldivmod+0x18>
 80001ca:	b94a      	cbnz	r2, 80001e0 <__aeabi_uldivmod+0x18>
 80001cc:	2900      	cmp	r1, #0
 80001ce:	bf08      	it	eq
 80001d0:	2800      	cmpeq	r0, #0
 80001d2:	bf1c      	itt	ne
 80001d4:	f04f 31ff 	movne.w	r1, #4294967295
 80001d8:	f04f 30ff 	movne.w	r0, #4294967295
 80001dc:	f000 b96e 	b.w	80004bc <__aeabi_idiv0>
 80001e0:	f1ad 0c08 	sub.w	ip, sp, #8
 80001e4:	e96d ce04 	strd	ip, lr, [sp, #-16]!
 80001e8:	f000 f806 	bl	80001f8 <__udivmoddi4>
 80001ec:	f8dd e004 	ldr.w	lr, [sp, #4]
 80001f0:	e9dd 2302 	ldrd	r2, r3, [sp, #8]
 80001f4:	b004      	add	sp, #16
 80001f6:	4770      	bx	lr

080001f8 <__udivmoddi4>:
 80001f8:	e92d 47f0 	stmdb	sp!, {r4, r5, r6, r7, r8, r9, sl, lr}
 80001fc:	9d08      	ldr	r5, [sp, #32]
 80001fe:	4604      	mov	r4, r0
 8000200:	468c      	mov	ip, r1
 8000202:	2b00      	cmp	r3, #0
 8000204:	f040 8083 	bne.w	800030e <__udivmoddi4+0x116>
 8000208:	428a      	cmp	r2, r1
 800020a:	4617      	mov	r7, r2
 800020c:	d947      	bls.n	800029e <__udivmoddi4+0xa6>
 800020e:	fab2 f282 	clz	r2, r2
 8000212:	b142      	cbz	r2, 8000226 <__udivmoddi4+0x2e>
 8000214:	f1c2 0020 	rsb	r0, r2, #32
 8000218:	fa24 f000 	lsr.w	r0, r4, r0
 800021c:	4091      	lsls	r1, r2
 800021e:	4097      	lsls	r7, r2
 8000220:	ea40 0c01 	orr.w	ip, r0, r1
 8000224:	4094      	lsls	r4, r2
 8000226:	ea4f 4817 	mov.w	r8, r7, lsr #16
 800022a:	0c23      	lsrs	r3, r4, #16
 800022c:	fbbc f6f8 	udiv	r6, ip, r8
 8000230:	fa1f fe87 	uxth.w	lr, r7
 8000234:	fb08 c116 	mls	r1, r8, r6, ip
 8000238:	ea43 4301 	orr.w	r3, r3, r1, lsl #16
 800023c:	fb06 f10e 	mul.w	r1, r6, lr
 8000240:	4299      	cmp	r1, r3
 8000242:	d909      	bls.n	8000258 <__udivmoddi4+0x60>
 8000244:	18fb      	adds	r3, r7, r3
 8000246:	f106 30ff 	add.w	r0, r6, #4294967295
 800024a:	f080 8119 	bcs.w	8000480 <__udivmoddi4+0x288>
 800024e:	4299      	cmp	r1, r3
 8000250:	f240 8116 	bls.w	8000480 <__udivmoddi4+0x288>
 8000254:	3e02      	subs	r6, #2
 8000256:	443b      	add	r3, r7
 8000258:	1a5b      	subs	r3, r3, r1
 800025a:	b2a4      	uxth	r4, r4
 800025c:	fbb3 f0f8 	udiv	r0, r3, r8
 8000260:	fb08 3310 	mls	r3, r8, r0, r3
 8000264:	ea44 4403 	orr.w	r4, r4, r3, lsl #16
 8000268:	fb00 fe0e 	mul.w	lr, r0, lr
 800026c:	45a6      	cmp	lr, r4
 800026e:	d909      	bls.n	8000284 <__udivmoddi4+0x8c>
 8000270:	193c      	adds	r4, r7, r4
 8000272:	f100 33ff 	add.w	r3, r0, #4294967295
 8000276:	f080 8105 	bcs.w	8000484 <__udivmoddi4+0x28c>
 800027a:	45a6      	cmp	lr, r4
 800027c:	f240 8102 	bls.w	8000484 <__udivmoddi4+0x28c>
 8000280:	3802      	subs	r0, #2
 8000282:	443c      	add	r4, r7
 8000284:	ea40 4006 	orr.w	r0, r0, r6, lsl #16
 8000288:	eba4 040e 	sub.w	r4, r4, lr
 800028c:	2600      	movs	r6, #0
 800028e:	b11d      	cbz	r5, 8000298 <__udivmoddi4+0xa0>
 8000290:	40d4      	lsrs	r4, r2
 8000292:	2300      	movs	r3, #0
 8000294:	e9c5 4300 	strd	r4, r3, [r5]
 8000298:	4631      	mov	r1, r6
 800029a:	e8bd 87f0 	ldmia.w	sp!, {r4, r5, r6, r7, r8, r9, sl, pc}
 800029e:	b902      	cbnz	r2, 80002a2 <__udivmoddi4+0xaa>
 80002a0:	deff      	udf	#255	; 0xff
 80002a2:	fab2 f282 	clz	r2, r2
 80002a6:	2a00      	cmp	r2, #0
 80002a8:	d150      	bne.n	800034c <__udivmoddi4+0x154>
 80002aa:	1bcb      	subs	r3, r1, r7
 80002ac:	ea4f 4e17 	mov.w	lr, r7, lsr #16
 80002b0:	fa1f f887 	uxth.w	r8, r7
 80002b4:	2601      	movs	r6, #1
 80002b6:	fbb3 fcfe 	udiv	ip, r3, lr
 80002ba:	0c21      	lsrs	r1, r4, #16
 80002bc:	fb0e 331c 	mls	r3, lr, ip, r3
 80002c0:	ea41 4103 	orr.w	r1, r1, r3, lsl #16
 80002c4:	fb08 f30c 	mul.w	r3, r8, ip
 80002c8:	428b      	cmp	r3, r1
 80002ca:	d907      	bls.n	80002dc <__udivmoddi4+0xe4>
 80002cc:	1879      	adds	r1, r7, r1
 80002ce:	f10c 30ff 	add.w	r0, ip, #4294967295
 80002d2:	d202      	bcs.n	80002da <__udivmoddi4+0xe2>
 80002d4:	428b      	cmp	r3, r1
 80002d6:	f200 80e9 	bhi.w	80004ac <__udivmoddi4+0x2b4>
 80002da:	4684      	mov	ip, r0
 80002dc:	1ac9      	subs	r1, r1, r3
 80002de:	b2a3      	uxth	r3, r4
 80002e0:	fbb1 f0fe 	udiv	r0, r1, lr
 80002e4:	fb0e 1110 	mls	r1, lr, r0, r1
 80002e8:	ea43 4401 	orr.w	r4, r3, r1, lsl #16
 80002ec:	fb08 f800 	mul.w	r8, r8, r0
 80002f0:	45a0      	cmp	r8, r4
 80002f2:	d907      	bls.n	8000304 <__udivmoddi4+0x10c>
 80002f4:	193c      	adds	r4, r7, r4
 80002f6:	f100 33ff 	add.w	r3, r0, #4294967295
 80002fa:	d202      	bcs.n	8000302 <__udivmoddi4+0x10a>
 80002fc:	45a0      	cmp	r8, r4
 80002fe:	f200 80d9 	bhi.w	80004b4 <__udivmoddi4+0x2bc>
 8000302:	4618      	mov	r0, r3
 8000304:	eba4 0408 	sub.w	r4, r4, r8
 8000308:	ea40 400c 	orr.w	r0, r0, ip, lsl #16
 800030c:	e7bf      	b.n	800028e <__udivmoddi4+0x96>
 800030e:	428b      	cmp	r3, r1
 8000310:	d909      	bls.n	8000326 <__udivmoddi4+0x12e>
 8000312:	2d00      	cmp	r5, #0
 8000314:	f000 80b1 	beq.w	800047a <__udivmoddi4+0x282>
 8000318:	2600      	movs	r6, #0
 800031a:	e9c5 0100 	strd	r0, r1, [r5]
 800031e:	4630      	mov	r0, r6
 8000320:	4631      	mov	r1, r6
 8000322:	e8bd 87f0 	ldmia.w	sp!, {r4, r5, r6, r7, r8, r9, sl, pc}
 8000326:	fab3 f683 	clz	r6, r3
 800032a:	2e00      	cmp	r6, #0
 800032c:	d14a      	bne.n	80003c4 <__udivmoddi4+0x1cc>
 800032e:	428b      	cmp	r3, r1
 8000330:	d302      	bcc.n	8000338 <__udivmoddi4+0x140>
 8000332:	4282      	cmp	r2, r0
 8000334:	f200 80b8 	bhi.w	80004a8 <__udivmoddi4+0x2b0>
 8000338:	1a84      	subs	r4, r0, r2
 800033a:	eb61 0103 	sbc.w	r1, r1, r3
 800033e:	2001      	movs	r0, #1
 8000340:	468c      	mov	ip, r1
 8000342:	2d00      	cmp	r5, #0
 8000344:	d0a8      	beq.n	8000298 <__udivmoddi4+0xa0>
 8000346:	e9c5 4c00 	strd	r4, ip, [r5]
 800034a:	e7a5      	b.n	8000298 <__udivmoddi4+0xa0>
 800034c:	f1c2 0320 	rsb	r3, r2, #32
 8000350:	fa20 f603 	lsr.w	r6, r0, r3
 8000354:	4097      	lsls	r7, r2
 8000356:	fa01 f002 	lsl.w	r0, r1, r2
 800035a:	ea4f 4e17 	mov.w	lr, r7, lsr #16
 800035e:	40d9      	lsrs	r1, r3
 8000360:	4330      	orrs	r0, r6
 8000362:	0c03      	lsrs	r3, r0, #16
 8000364:	fbb1 f6fe 	udiv	r6, r1, lr
 8000368:	fa1f f887 	uxth.w	r8, r7
 800036c:	fb0e 1116 	mls	r1, lr, r6, r1
 8000370:	ea43 4301 	orr.w	r3, r3, r1, lsl #16
 8000374:	fb06 f108 	mul.w	r1, r6, r8
 8000378:	4299      	cmp	r1, r3
 800037a:	fa04 f402 	lsl.w	r4, r4, r2
 800037e:	d909      	bls.n	8000394 <__udivmoddi4+0x19c>
 8000380:	18fb      	adds	r3, r7, r3
 8000382:	f106 3cff 	add.w	ip, r6, #4294967295
 8000386:	f080 808d 	bcs.w	80004a4 <__udivmoddi4+0x2ac>
 800038a:	4299      	cmp	r1, r3
 800038c:	f240 808a 	bls.w	80004a4 <__udivmoddi4+0x2ac>
 8000390:	3e02      	subs	r6, #2
 8000392:	443b      	add	r3, r7
 8000394:	1a5b      	subs	r3, r3, r1
 8000396:	b281      	uxth	r1, r0
 8000398:	fbb3 f0fe 	udiv	r0, r3, lr
 800039c:	fb0e 3310 	mls	r3, lr, r0, r3
 80003a0:	ea41 4103 	orr.w	r1, r1, r3, lsl #16
 80003a4:	fb00 f308 	mul.w	r3, r0, r8
 80003a8:	428b      	cmp	r3, r1
 80003aa:	d907      	bls.n	80003bc <__udivmoddi4+0x1c4>
 80003ac:	1879      	adds	r1, r7, r1
 80003ae:	f100 3cff 	add.w	ip, r0, #4294967295
 80003b2:	d273      	bcs.n	800049c <__udivmoddi4+0x2a4>
 80003b4:	428b      	cmp	r3, r1
 80003b6:	d971      	bls.n	800049c <__udivmoddi4+0x2a4>
 80003b8:	3802      	subs	r0, #2
 80003ba:	4439      	add	r1, r7
 80003bc:	1acb      	subs	r3, r1, r3
 80003be:	ea40 4606 	orr.w	r6, r0, r6, lsl #16
 80003c2:	e778      	b.n	80002b6 <__udivmoddi4+0xbe>
 80003c4:	f1c6 0c20 	rsb	ip, r6, #32
 80003c8:	fa03 f406 	lsl.w	r4, r3, r6
 80003cc:	fa22 f30c 	lsr.w	r3, r2, ip
 80003d0:	431c      	orrs	r4, r3
 80003d2:	fa20 f70c 	lsr.w	r7, r0, ip
 80003d6:	fa01 f306 	lsl.w	r3, r1, r6
 80003da:	ea4f 4e14 	mov.w	lr, r4, lsr #16
 80003de:	fa21 f10c 	lsr.w	r1, r1, ip
 80003e2:	431f      	orrs	r7, r3
 80003e4:	0c3b      	lsrs	r3, r7, #16
 80003e6:	fbb1 f9fe 	udiv	r9, r1, lr
 80003ea:	fa1f f884 	uxth.w	r8, r4
 80003ee:	fb0e 1119 	mls	r1, lr, r9, r1
 80003f2:	ea43 4101 	orr.w	r1, r3, r1, lsl #16
 80003f6:	fb09 fa08 	mul.w	sl, r9, r8
 80003fa:	458a      	cmp	sl, r1
 80003fc:	fa02 f206 	lsl.w	r2, r2, r6
 8000400:	fa00 f306 	lsl.w	r3, r0, r6
 8000404:	d908      	bls.n	8000418 <__udivmoddi4+0x220>
 8000406:	1861      	adds	r1, r4, r1
 8000408:	f109 30ff 	add.w	r0, r9, #4294967295
 800040c:	d248      	bcs.n	80004a0 <__udivmoddi4+0x2a8>
 800040e:	458a      	cmp	sl, r1
 8000410:	d946      	bls.n	80004a0 <__udivmoddi4+0x2a8>
 8000412:	f1a9 0902 	sub.w	r9, r9, #2
 8000416:	4421      	add	r1, r4
 8000418:	eba1 010a 	sub.w	r1, r1, sl
 800041c:	b2bf      	uxth	r7, r7
 800041e:	fbb1 f0fe 	udiv	r0, r1, lr
 8000422:	fb0e 1110 	mls	r1, lr, r0, r1
 8000426:	ea47 4701 	orr.w	r7, r7, r1, lsl #16
 800042a:	fb00 f808 	mul.w	r8, r0, r8
 800042e:	45b8      	cmp	r8, r7
 8000430:	d907      	bls.n	8000442 <__udivmoddi4+0x24a>
 8000432:	19e7      	adds	r7, r4, r7
 8000434:	f100 31ff 	add.w	r1, r0, #4294967295
 8000438:	d22e      	bcs.n	8000498 <__udivmoddi4+0x2a0>
 800043a:	45b8      	cmp	r8, r7
 800043c:	d92c      	bls.n	8000498 <__udivmoddi4+0x2a0>
 800043e:	3802      	subs	r0, #2
 8000440:	4427      	add	r7, r4
 8000442:	ea40 4009 	orr.w	r0, r0, r9, lsl #16
 8000446:	eba7 0708 	sub.w	r7, r7, r8
 800044a:	fba0 8902 	umull	r8, r9, r0, r2
 800044e:	454f      	cmp	r7, r9
 8000450:	46c6      	mov	lr, r8
 8000452:	4649      	mov	r1, r9
 8000454:	d31a      	bcc.n	800048c <__udivmoddi4+0x294>
 8000456:	d017      	beq.n	8000488 <__udivmoddi4+0x290>
 8000458:	b15d      	cbz	r5, 8000472 <__udivmoddi4+0x27a>
 800045a:	ebb3 020e 	subs.w	r2, r3, lr
 800045e:	eb67 0701 	sbc.w	r7, r7, r1
 8000462:	fa07 fc0c 	lsl.w	ip, r7, ip
 8000466:	40f2      	lsrs	r2, r6
 8000468:	ea4c 0202 	orr.w	r2, ip, r2
 800046c:	40f7      	lsrs	r7, r6
 800046e:	e9c5 2700 	strd	r2, r7, [r5]
 8000472:	2600      	movs	r6, #0
 8000474:	4631      	mov	r1, r6
 8000476:	e8bd 87f0 	ldmia.w	sp!, {r4, r5, r6, r7, r8, r9, sl, pc}
 800047a:	462e      	mov	r6, r5
 800047c:	4628      	mov	r0, r5
 800047e:	e70b      	b.n	8000298 <__udivmoddi4+0xa0>
 8000480:	4606      	mov	r6, r0
 8000482:	e6e9      	b.n	8000258 <__udivmoddi4+0x60>
 8000484:	4618      	mov	r0, r3
 8000486:	e6fd      	b.n	8000284 <__udivmoddi4+0x8c>
 8000488:	4543      	cmp	r3, r8
 800048a:	d2e5      	bcs.n	8000458 <__udivmoddi4+0x260>
 800048c:	ebb8 0e02 	subs.w	lr, r8, r2
 8000490:	eb69 0104 	sbc.w	r1, r9, r4
 8000494:	3801      	subs	r0, #1
 8000496:	e7df      	b.n	8000458 <__udivmoddi4+0x260>
 8000498:	4608      	mov	r0, r1
 800049a:	e7d2      	b.n	8000442 <__udivmoddi4+0x24a>
 800049c:	4660      	mov	r0, ip
 800049e:	e78d      	b.n	80003bc <__udivmoddi4+0x1c4>
 80004a0:	4681      	mov	r9, r0
 80004a2:	e7b9      	b.n	8000418 <__udivmoddi4+0x220>
 80004a4:	4666      	mov	r6, ip
 80004a6:	e775      	b.n	8000394 <__udivmoddi4+0x19c>
 80004a8:	4630      	mov	r0, r6
 80004aa:	e74a      	b.n	8000342 <__udivmoddi4+0x14a>
 80004ac:	f1ac 0c02 	sub.w	ip, ip, #2
 80004b0:	4439      	add	r1, r7
 80004b2:	e713      	b.n	80002dc <__udivmoddi4+0xe4>
 80004b4:	3802      	subs	r0, #2
 80004b6:	443c      	add	r4, r7
 80004b8:	e724      	b.n	8000304 <__udivmoddi4+0x10c>
 80004ba:	bf00      	nop

080004bc <__aeabi_idiv0>:
 80004bc:	4770      	bx	lr
 80004be:	bf00      	nop

080004c0 <delay_us>:
 80004c0:	4b05      	ldr	r3, [pc, #20]	; (80004d8 <delay_us+0x18>)
 80004c2:	681b      	ldr	r3, [r3, #0]
 80004c4:	2200      	movs	r2, #0
 80004c6:	625a      	str	r2, [r3, #36]	; 0x24
 80004c8:	681a      	ldr	r2, [r3, #0]
 80004ca:	f042 0201 	orr.w	r2, r2, #1
 80004ce:	601a      	str	r2, [r3, #0]
 80004d0:	6a5a      	ldr	r2, [r3, #36]	; 0x24
 80004d2:	4282      	cmp	r2, r0
 80004d4:	d3fc      	bcc.n	80004d0 <delay_us+0x10>
 80004d6:	4770      	bx	lr
 80004d8:	2000002c 	.word	0x2000002c

080004dc <sendZero>:
 80004dc:	b508      	push	{r3, lr}
 80004de:	2201      	movs	r2, #1
 80004e0:	f44f 6180 	mov.w	r1, #1024	; 0x400
 80004e4:	f04f 4090 	mov.w	r0, #1207959552	; 0x48000000
 80004e8:	f001 f852 	bl	8001590 <HAL_GPIO_WritePin>
 80004ec:	4b08      	ldr	r3, [pc, #32]	; (8000510 <sendZero+0x34>)
 80004ee:	8818      	ldrh	r0, [r3, #0]
 80004f0:	f7ff ffe6 	bl	80004c0 <delay_us>
 80004f4:	f04f 4090 	mov.w	r0, #1207959552	; 0x48000000
 80004f8:	2200      	movs	r2, #0
 80004fa:	f44f 6180 	mov.w	r1, #1024	; 0x400
 80004fe:	f001 f847 	bl	8001590 <HAL_GPIO_WritePin>
 8000502:	4b04      	ldr	r3, [pc, #16]	; (8000514 <sendZero+0x38>)
 8000504:	8818      	ldrh	r0, [r3, #0]
 8000506:	e8bd 4008 	ldmia.w	sp!, {r3, lr}
 800050a:	f7ff bfd9 	b.w	80004c0 <delay_us>
 800050e:	bf00      	nop
 8000510:	20000002 	.word	0x20000002
 8000514:	20000000 	.word	0x20000000

08000518 <sendOne>:
 8000518:	b508      	push	{r3, lr}
 800051a:	2200      	movs	r2, #0
 800051c:	f44f 6180 	mov.w	r1, #1024	; 0x400
 8000520:	f04f 4090 	mov.w	r0, #1207959552	; 0x48000000
 8000524:	f001 f834 	bl	8001590 <HAL_GPIO_WritePin>
 8000528:	4b08      	ldr	r3, [pc, #32]	; (800054c <sendOne+0x34>)
 800052a:	8818      	ldrh	r0, [r3, #0]
 800052c:	f7ff ffc8 	bl	80004c0 <delay_us>
 8000530:	f04f 4090 	mov.w	r0, #1207959552	; 0x48000000
 8000534:	2201      	movs	r2, #1
 8000536:	f44f 6180 	mov.w	r1, #1024	; 0x400
 800053a:	f001 f829 	bl	8001590 <HAL_GPIO_WritePin>
 800053e:	4b04      	ldr	r3, [pc, #16]	; (8000550 <sendOne+0x38>)
 8000540:	8818      	ldrh	r0, [r3, #0]
 8000542:	e8bd 4008 	ldmia.w	sp!, {r3, lr}
 8000546:	f7ff bfbb 	b.w	80004c0 <delay_us>
 800054a:	bf00      	nop
 800054c:	20000002 	.word	0x20000002
 8000550:	20000000 	.word	0x20000000

08000554 <sendBit>:
 8000554:	b108      	cbz	r0, 800055a <sendBit+0x6>
 8000556:	f7ff bfdf 	b.w	8000518 <sendOne>
 800055a:	f7ff bfbf 	b.w	80004dc <sendZero>

0800055e <sendByte>:
 800055e:	b538      	push	{r3, r4, r5, lr}
 8000560:	4605      	mov	r5, r0
 8000562:	2407      	movs	r4, #7
 8000564:	fa45 f004 	asr.w	r0, r5, r4
 8000568:	f000 0001 	and.w	r0, r0, #1
 800056c:	f7ff fff2 	bl	8000554 <sendBit>
 8000570:	3c01      	subs	r4, #1
 8000572:	d2f7      	bcs.n	8000564 <sendByte+0x6>
 8000574:	bd38      	pop	{r3, r4, r5, pc}

08000576 <transmit>:
 8000576:	b513      	push	{r0, r1, r4, lr}
 8000578:	460c      	mov	r4, r1
 800057a:	9001      	str	r0, [sp, #4]
 800057c:	f7ff ffcc 	bl	8000518 <sendOne>
 8000580:	9801      	ldr	r0, [sp, #4]
 8000582:	f7ff ffec 	bl	800055e <sendByte>
 8000586:	4620      	mov	r0, r4
 8000588:	f7ff ffe9 	bl	800055e <sendByte>
 800058c:	2201      	movs	r2, #1
 800058e:	f44f 6180 	mov.w	r1, #1024	; 0x400
 8000592:	f04f 4090 	mov.w	r0, #1207959552	; 0x48000000
 8000596:	b002      	add	sp, #8
 8000598:	e8bd 4010 	ldmia.w	sp!, {r4, lr}
 800059c:	f000 bff8 	b.w	8001590 <HAL_GPIO_WritePin>

080005a0 <SystemClock_Config>:
 80005a0:	b500      	push	{lr}
 80005a2:	b097      	sub	sp, #92	; 0x5c
 80005a4:	2244      	movs	r2, #68	; 0x44
 80005a6:	2100      	movs	r1, #0
 80005a8:	a805      	add	r0, sp, #20
 80005aa:	f002 fad5 	bl	8002b58 <memset>
 80005ae:	2214      	movs	r2, #20
 80005b0:	2100      	movs	r1, #0
 80005b2:	4668      	mov	r0, sp
 80005b4:	f002 fad0 	bl	8002b58 <memset>
 80005b8:	f44f 7000 	mov.w	r0, #512	; 0x200
 80005bc:	f000 fff6 	bl	80015ac <HAL_PWREx_ControlVoltageScaling>
 80005c0:	b108      	cbz	r0, 80005c6 <SystemClock_Config+0x26>
 80005c2:	b672      	cpsid	i
 80005c4:	e7fe      	b.n	80005c4 <SystemClock_Config+0x24>
 80005c6:	2210      	movs	r2, #16
 80005c8:	f44f 7180 	mov.w	r1, #256	; 0x100
 80005cc:	2001      	movs	r0, #1
 80005ce:	e9cd 1208 	strd	r1, r2, [sp, #32]
 80005d2:	220a      	movs	r2, #10
 80005d4:	2302      	movs	r3, #2
 80005d6:	e9cd 0211 	strd	r0, r2, [sp, #68]	; 0x44
 80005da:	2207      	movs	r2, #7
 80005dc:	a805      	add	r0, sp, #20
 80005de:	e9cd 330f 	strd	r3, r3, [sp, #60]	; 0x3c
 80005e2:	e9cd 2313 	strd	r2, r3, [sp, #76]	; 0x4c
 80005e6:	9305      	str	r3, [sp, #20]
 80005e8:	9315      	str	r3, [sp, #84]	; 0x54
 80005ea:	f001 f8a5 	bl	8001738 <HAL_RCC_OscConfig>
 80005ee:	b108      	cbz	r0, 80005f4 <SystemClock_Config+0x54>
 80005f0:	b672      	cpsid	i
 80005f2:	e7fe      	b.n	80005f2 <SystemClock_Config+0x52>
 80005f4:	e9cd 0002 	strd	r0, r0, [sp, #8]
 80005f8:	220f      	movs	r2, #15
 80005fa:	2303      	movs	r3, #3
 80005fc:	9004      	str	r0, [sp, #16]
 80005fe:	2104      	movs	r1, #4
 8000600:	4668      	mov	r0, sp
 8000602:	e9cd 2300 	strd	r2, r3, [sp]
 8000606:	f001 fb1d 	bl	8001c44 <HAL_RCC_ClockConfig>
 800060a:	b108      	cbz	r0, 8000610 <SystemClock_Config+0x70>
 800060c:	b672      	cpsid	i
 800060e:	e7fe      	b.n	800060e <SystemClock_Config+0x6e>
 8000610:	b017      	add	sp, #92	; 0x5c
 8000612:	f85d fb04 	ldr.w	pc, [sp], #4
	...

08000618 <main>:
 8000618:	b5f0      	push	{r4, r5, r6, r7, lr}
 800061a:	4d80      	ldr	r5, [pc, #512]	; (800081c <main+0x204>)
 800061c:	4f80      	ldr	r7, [pc, #512]	; (8000820 <main+0x208>)
 800061e:	b08f      	sub	sp, #60	; 0x3c
 8000620:	f000 fa6e 	bl	8000b00 <HAL_Init>
 8000624:	f7ff ffbc 	bl	80005a0 <SystemClock_Config>
 8000628:	2214      	movs	r2, #20
 800062a:	2100      	movs	r1, #0
 800062c:	a808      	add	r0, sp, #32
 800062e:	f002 fa93 	bl	8002b58 <memset>
 8000632:	6ceb      	ldr	r3, [r5, #76]	; 0x4c
 8000634:	f043 0304 	orr.w	r3, r3, #4
 8000638:	64eb      	str	r3, [r5, #76]	; 0x4c
 800063a:	6ceb      	ldr	r3, [r5, #76]	; 0x4c
 800063c:	f003 0304 	and.w	r3, r3, #4
 8000640:	9301      	str	r3, [sp, #4]
 8000642:	9b01      	ldr	r3, [sp, #4]
 8000644:	6ceb      	ldr	r3, [r5, #76]	; 0x4c
 8000646:	f043 0380 	orr.w	r3, r3, #128	; 0x80
 800064a:	64eb      	str	r3, [r5, #76]	; 0x4c
 800064c:	6ceb      	ldr	r3, [r5, #76]	; 0x4c
 800064e:	f003 0380 	and.w	r3, r3, #128	; 0x80
 8000652:	9302      	str	r3, [sp, #8]
 8000654:	9b02      	ldr	r3, [sp, #8]
 8000656:	6ceb      	ldr	r3, [r5, #76]	; 0x4c
 8000658:	f043 0301 	orr.w	r3, r3, #1
 800065c:	64eb      	str	r3, [r5, #76]	; 0x4c
 800065e:	6ceb      	ldr	r3, [r5, #76]	; 0x4c
 8000660:	f003 0301 	and.w	r3, r3, #1
 8000664:	9303      	str	r3, [sp, #12]
 8000666:	9b03      	ldr	r3, [sp, #12]
 8000668:	6ceb      	ldr	r3, [r5, #76]	; 0x4c
 800066a:	f043 0302 	orr.w	r3, r3, #2
 800066e:	64eb      	str	r3, [r5, #76]	; 0x4c
 8000670:	6ceb      	ldr	r3, [r5, #76]	; 0x4c
 8000672:	f003 0302 	and.w	r3, r3, #2
 8000676:	2200      	movs	r2, #0
 8000678:	9304      	str	r3, [sp, #16]
 800067a:	f44f 6184 	mov.w	r1, #1056	; 0x420
 800067e:	f04f 4090 	mov.w	r0, #1207959552	; 0x48000000
 8000682:	9b04      	ldr	r3, [sp, #16]
 8000684:	f000 ff84 	bl	8001590 <HAL_GPIO_WritePin>
 8000688:	4b66      	ldr	r3, [pc, #408]	; (8000824 <main+0x20c>)
 800068a:	f44f 5000 	mov.w	r0, #8192	; 0x2000
 800068e:	2400      	movs	r4, #0
 8000690:	e9cd 0308 	strd	r0, r3, [sp, #32]
 8000694:	a908      	add	r1, sp, #32
 8000696:	4864      	ldr	r0, [pc, #400]	; (8000828 <main+0x210>)
 8000698:	940a      	str	r4, [sp, #40]	; 0x28
 800069a:	2601      	movs	r6, #1
 800069c:	f000 fe9a 	bl	80013d4 <HAL_GPIO_Init>
 80006a0:	f44f 6384 	mov.w	r3, #1056	; 0x420
 80006a4:	a908      	add	r1, sp, #32
 80006a6:	f04f 4090 	mov.w	r0, #1207959552	; 0x48000000
 80006aa:	e9cd 3608 	strd	r3, r6, [sp, #32]
 80006ae:	e9cd 440a 	strd	r4, r4, [sp, #40]	; 0x28
 80006b2:	f000 fe8f 	bl	80013d4 <HAL_GPIO_Init>
 80006b6:	485d      	ldr	r0, [pc, #372]	; (800082c <main+0x214>)
 80006b8:	f44f 33e1 	mov.w	r3, #115200	; 0x1c200
 80006bc:	e9c0 7300 	strd	r7, r3, [r0]
 80006c0:	230c      	movs	r3, #12
 80006c2:	e9c0 4402 	strd	r4, r4, [r0, #8]
 80006c6:	e9c0 3405 	strd	r3, r4, [r0, #20]
 80006ca:	e9c0 4407 	strd	r4, r4, [r0, #28]
 80006ce:	6104      	str	r4, [r0, #16]
 80006d0:	6244      	str	r4, [r0, #36]	; 0x24
 80006d2:	f002 f9ee 	bl	8002ab2 <HAL_UART_Init>
 80006d6:	4604      	mov	r4, r0
 80006d8:	b108      	cbz	r0, 80006de <main+0xc6>
 80006da:	b672      	cpsid	i
 80006dc:	e7fe      	b.n	80006dc <main+0xc4>
 80006de:	6cab      	ldr	r3, [r5, #72]	; 0x48
 80006e0:	f043 0301 	orr.w	r3, r3, #1
 80006e4:	64ab      	str	r3, [r5, #72]	; 0x48
 80006e6:	6cab      	ldr	r3, [r5, #72]	; 0x48
 80006e8:	4d51      	ldr	r5, [pc, #324]	; (8000830 <main+0x218>)
 80006ea:	f003 0301 	and.w	r3, r3, #1
 80006ee:	4602      	mov	r2, r0
 80006f0:	4601      	mov	r1, r0
 80006f2:	9300      	str	r3, [sp, #0]
 80006f4:	200b      	movs	r0, #11
 80006f6:	9b00      	ldr	r3, [sp, #0]
 80006f8:	f000 fd62 	bl	80011c0 <HAL_NVIC_SetPriority>
 80006fc:	200b      	movs	r0, #11
 80006fe:	f000 fd91 	bl	8001224 <HAL_NVIC_EnableIRQ>
 8000702:	2218      	movs	r2, #24
 8000704:	4621      	mov	r1, r4
 8000706:	a808      	add	r0, sp, #32
 8000708:	e9cd 4405 	strd	r4, r4, [sp, #20]
 800070c:	9407      	str	r4, [sp, #28]
 800070e:	f002 fa23 	bl	8002b58 <memset>
 8000712:	4b48      	ldr	r3, [pc, #288]	; (8000834 <main+0x21c>)
 8000714:	832c      	strh	r4, [r5, #24]
 8000716:	2704      	movs	r7, #4
 8000718:	4628      	mov	r0, r5
 800071a:	e9c5 3400 	strd	r3, r4, [r5]
 800071e:	e9c5 4402 	strd	r4, r4, [r5, #8]
 8000722:	e9c5 440a 	strd	r4, r4, [r5, #40]	; 0x28
 8000726:	612c      	str	r4, [r5, #16]
 8000728:	616f      	str	r7, [r5, #20]
 800072a:	61ee      	str	r6, [r5, #28]
 800072c:	f885 4020 	strb.w	r4, [r5, #32]
 8000730:	f885 6030 	strb.w	r6, [r5, #48]	; 0x30
 8000734:	636c      	str	r4, [r5, #52]	; 0x34
 8000736:	f885 4038 	strb.w	r4, [r5, #56]	; 0x38
 800073a:	f000 fa33 	bl	8000ba4 <HAL_ADC_Init>
 800073e:	b108      	cbz	r0, 8000744 <main+0x12c>
 8000740:	b672      	cpsid	i
 8000742:	e7fe      	b.n	8000742 <main+0x12a>
 8000744:	9005      	str	r0, [sp, #20]
 8000746:	a905      	add	r1, sp, #20
 8000748:	4628      	mov	r0, r5
 800074a:	f000 fcbb 	bl	80010c4 <HAL_ADCEx_MultiModeConfigChannel>
 800074e:	b108      	cbz	r0, 8000754 <main+0x13c>
 8000750:	b672      	cpsid	i
 8000752:	e7fe      	b.n	8000752 <main+0x13a>
 8000754:	4938      	ldr	r1, [pc, #224]	; (8000838 <main+0x220>)
 8000756:	900a      	str	r0, [sp, #40]	; 0x28
 8000758:	2306      	movs	r3, #6
 800075a:	e9cd 1308 	strd	r1, r3, [sp, #32]
 800075e:	900d      	str	r0, [sp, #52]	; 0x34
 8000760:	237f      	movs	r3, #127	; 0x7f
 8000762:	a908      	add	r1, sp, #32
 8000764:	4628      	mov	r0, r5
 8000766:	e9cd 370b 	strd	r3, r7, [sp, #44]	; 0x2c
 800076a:	f000 faf7 	bl	8000d5c <HAL_ADC_ConfigChannel>
 800076e:	4604      	mov	r4, r0
 8000770:	b108      	cbz	r0, 8000776 <main+0x15e>
 8000772:	b672      	cpsid	i
 8000774:	e7fe      	b.n	8000774 <main+0x15c>
 8000776:	2210      	movs	r2, #16
 8000778:	4601      	mov	r1, r0
 800077a:	a808      	add	r0, sp, #32
 800077c:	f002 f9ec 	bl	8002b58 <memset>
 8000780:	4d2e      	ldr	r5, [pc, #184]	; (800083c <main+0x224>)
 8000782:	4a2f      	ldr	r2, [pc, #188]	; (8000840 <main+0x228>)
 8000784:	9407      	str	r4, [sp, #28]
 8000786:	234f      	movs	r3, #79	; 0x4f
 8000788:	e9c5 2300 	strd	r2, r3, [r5]
 800078c:	4628      	mov	r0, r5
 800078e:	f64f 73ff 	movw	r3, #65535	; 0xffff
 8000792:	e9cd 4405 	strd	r4, r4, [sp, #20]
 8000796:	e9c5 3403 	strd	r3, r4, [r5, #12]
 800079a:	60ac      	str	r4, [r5, #8]
 800079c:	61ac      	str	r4, [r5, #24]
 800079e:	f001 fe63 	bl	8002468 <HAL_TIM_Base_Init>
 80007a2:	b108      	cbz	r0, 80007a8 <main+0x190>
 80007a4:	b672      	cpsid	i
 80007a6:	e7fe      	b.n	80007a6 <main+0x18e>
 80007a8:	f44f 5380 	mov.w	r3, #4096	; 0x1000
 80007ac:	a908      	add	r1, sp, #32
 80007ae:	4628      	mov	r0, r5
 80007b0:	9308      	str	r3, [sp, #32]
 80007b2:	f001 fe93 	bl	80024dc <HAL_TIM_ConfigClockSource>
 80007b6:	b108      	cbz	r0, 80007bc <main+0x1a4>
 80007b8:	b672      	cpsid	i
 80007ba:	e7fe      	b.n	80007ba <main+0x1a2>
 80007bc:	9005      	str	r0, [sp, #20]
 80007be:	9007      	str	r0, [sp, #28]
 80007c0:	a905      	add	r1, sp, #20
 80007c2:	4628      	mov	r0, r5
 80007c4:	f001 ff1e 	bl	8002604 <HAL_TIMEx_MasterConfigSynchronization>
 80007c8:	b108      	cbz	r0, 80007ce <main+0x1b6>
 80007ca:	b672      	cpsid	i
 80007cc:	e7fe      	b.n	80007cc <main+0x1b4>
 80007ce:	2201      	movs	r2, #1
 80007d0:	f44f 6180 	mov.w	r1, #1024	; 0x400
 80007d4:	f04f 4090 	mov.w	r0, #1207959552	; 0x48000000
 80007d8:	f000 feda 	bl	8001590 <HAL_GPIO_WritePin>
 80007dc:	2100      	movs	r1, #0
 80007de:	20ff      	movs	r0, #255	; 0xff
 80007e0:	f7ff fec9 	bl	8000576 <transmit>
 80007e4:	f44f 60fa 	mov.w	r0, #2000	; 0x7d0
 80007e8:	f000 f9b2 	bl	8000b50 <HAL_Delay>
 80007ec:	2108      	movs	r1, #8
 80007ee:	20ff      	movs	r0, #255	; 0xff
 80007f0:	f7ff fec1 	bl	8000576 <transmit>
 80007f4:	f44f 60fa 	mov.w	r0, #2000	; 0x7d0
 80007f8:	f000 f9aa 	bl	8000b50 <HAL_Delay>
 80007fc:	24fb      	movs	r4, #251	; 0xfb
 80007fe:	2102      	movs	r1, #2
 8000800:	20ff      	movs	r0, #255	; 0xff
 8000802:	f7ff feb8 	bl	8000576 <transmit>
 8000806:	2064      	movs	r0, #100	; 0x64
 8000808:	f000 f9a2 	bl	8000b50 <HAL_Delay>
 800080c:	3c01      	subs	r4, #1
 800080e:	d1f6      	bne.n	80007fe <main+0x1e6>
 8000810:	f44f 60fa 	mov.w	r0, #2000	; 0x7d0
 8000814:	f000 f99c 	bl	8000b50 <HAL_Delay>
 8000818:	e7d9      	b.n	80007ce <main+0x1b6>
 800081a:	bf00      	nop
 800081c:	40021000 	.word	0x40021000
 8000820:	40004400 	.word	0x40004400
 8000824:	10210000 	.word	0x10210000
 8000828:	48000800 	.word	0x48000800
 800082c:	20000124 	.word	0x20000124
 8000830:	20000078 	.word	0x20000078
 8000834:	50040000 	.word	0x50040000
 8000838:	14f00020 	.word	0x14f00020
 800083c:	2000002c 	.word	0x2000002c
 8000840:	40000800 	.word	0x40000800

08000844 <Error_Handler>:
 8000844:	b672      	cpsid	i
 8000846:	e7fe      	b.n	8000846 <Error_Handler+0x2>

08000848 <HAL_MspInit>:
 8000848:	4b0a      	ldr	r3, [pc, #40]	; (8000874 <HAL_MspInit+0x2c>)
 800084a:	6e1a      	ldr	r2, [r3, #96]	; 0x60
 800084c:	f042 0201 	orr.w	r2, r2, #1
 8000850:	661a      	str	r2, [r3, #96]	; 0x60
 8000852:	6e1a      	ldr	r2, [r3, #96]	; 0x60
 8000854:	b082      	sub	sp, #8
 8000856:	f002 0201 	and.w	r2, r2, #1
 800085a:	9200      	str	r2, [sp, #0]
 800085c:	9a00      	ldr	r2, [sp, #0]
 800085e:	6d9a      	ldr	r2, [r3, #88]	; 0x58
 8000860:	f042 5280 	orr.w	r2, r2, #268435456	; 0x10000000
 8000864:	659a      	str	r2, [r3, #88]	; 0x58
 8000866:	6d9b      	ldr	r3, [r3, #88]	; 0x58
 8000868:	f003 5380 	and.w	r3, r3, #268435456	; 0x10000000
 800086c:	9301      	str	r3, [sp, #4]
 800086e:	9b01      	ldr	r3, [sp, #4]
 8000870:	b002      	add	sp, #8
 8000872:	4770      	bx	lr
 8000874:	40021000 	.word	0x40021000

08000878 <HAL_ADC_MspInit>:
 8000878:	b570      	push	{r4, r5, r6, lr}
 800087a:	b0aa      	sub	sp, #168	; 0xa8
 800087c:	4606      	mov	r6, r0
 800087e:	2214      	movs	r2, #20
 8000880:	2100      	movs	r1, #0
 8000882:	a803      	add	r0, sp, #12
 8000884:	f002 f968 	bl	8002b58 <memset>
 8000888:	2288      	movs	r2, #136	; 0x88
 800088a:	2100      	movs	r1, #0
 800088c:	a808      	add	r0, sp, #32
 800088e:	f002 f963 	bl	8002b58 <memset>
 8000892:	6832      	ldr	r2, [r6, #0]
 8000894:	4b29      	ldr	r3, [pc, #164]	; (800093c <HAL_ADC_MspInit+0xc4>)
 8000896:	429a      	cmp	r2, r3
 8000898:	d14e      	bne.n	8000938 <HAL_ADC_MspInit+0xc0>
 800089a:	f44f 4380 	mov.w	r3, #16384	; 0x4000
 800089e:	9308      	str	r3, [sp, #32]
 80008a0:	f04f 5380 	mov.w	r3, #268435456	; 0x10000000
 80008a4:	2201      	movs	r2, #1
 80008a6:	9326      	str	r3, [sp, #152]	; 0x98
 80008a8:	2302      	movs	r3, #2
 80008aa:	e9cd 3209 	strd	r3, r2, [sp, #36]	; 0x24
 80008ae:	e9cd 330d 	strd	r3, r3, [sp, #52]	; 0x34
 80008b2:	2508      	movs	r5, #8
 80008b4:	2207      	movs	r2, #7
 80008b6:	f04f 7380 	mov.w	r3, #16777216	; 0x1000000
 80008ba:	a808      	add	r0, sp, #32
 80008bc:	e9cd 520b 	strd	r5, r2, [sp, #44]	; 0x2c
 80008c0:	930f      	str	r3, [sp, #60]	; 0x3c
 80008c2:	f001 fb81 	bl	8001fc8 <HAL_RCCEx_PeriphCLKConfig>
 80008c6:	b108      	cbz	r0, 80008cc <HAL_ADC_MspInit+0x54>
 80008c8:	f7ff ffbc 	bl	8000844 <Error_Handler>
 80008cc:	4b1c      	ldr	r3, [pc, #112]	; (8000940 <HAL_ADC_MspInit+0xc8>)
 80008ce:	4c1d      	ldr	r4, [pc, #116]	; (8000944 <HAL_ADC_MspInit+0xcc>)
 80008d0:	6cda      	ldr	r2, [r3, #76]	; 0x4c
 80008d2:	f442 5200 	orr.w	r2, r2, #8192	; 0x2000
 80008d6:	64da      	str	r2, [r3, #76]	; 0x4c
 80008d8:	6cda      	ldr	r2, [r3, #76]	; 0x4c
 80008da:	f402 5200 	and.w	r2, r2, #8192	; 0x2000
 80008de:	9201      	str	r2, [sp, #4]
 80008e0:	9a01      	ldr	r2, [sp, #4]
 80008e2:	6cda      	ldr	r2, [r3, #76]	; 0x4c
 80008e4:	f042 0201 	orr.w	r2, r2, #1
 80008e8:	64da      	str	r2, [r3, #76]	; 0x4c
 80008ea:	6cdb      	ldr	r3, [r3, #76]	; 0x4c
 80008ec:	f003 0301 	and.w	r3, r3, #1
 80008f0:	9302      	str	r3, [sp, #8]
 80008f2:	2500      	movs	r5, #0
 80008f4:	9b02      	ldr	r3, [sp, #8]
 80008f6:	9505      	str	r5, [sp, #20]
 80008f8:	230b      	movs	r3, #11
 80008fa:	2201      	movs	r2, #1
 80008fc:	a903      	add	r1, sp, #12
 80008fe:	f04f 4090 	mov.w	r0, #1207959552	; 0x48000000
 8000902:	e9cd 2303 	strd	r2, r3, [sp, #12]
 8000906:	f000 fd65 	bl	80013d4 <HAL_GPIO_Init>
 800090a:	4b0f      	ldr	r3, [pc, #60]	; (8000948 <HAL_ADC_MspInit+0xd0>)
 800090c:	6225      	str	r5, [r4, #32]
 800090e:	e9c4 3500 	strd	r3, r5, [r4]
 8000912:	2180      	movs	r1, #128	; 0x80
 8000914:	f44f 7380 	mov.w	r3, #256	; 0x100
 8000918:	e9c4 1304 	strd	r1, r3, [r4, #16]
 800091c:	4620      	mov	r0, r4
 800091e:	f44f 6380 	mov.w	r3, #1024	; 0x400
 8000922:	e9c4 5502 	strd	r5, r5, [r4, #8]
 8000926:	e9c4 3506 	strd	r3, r5, [r4, #24]
 800092a:	f000 fc9f 	bl	800126c <HAL_DMA_Init>
 800092e:	b108      	cbz	r0, 8000934 <HAL_ADC_MspInit+0xbc>
 8000930:	f7ff ff88 	bl	8000844 <Error_Handler>
 8000934:	64f4      	str	r4, [r6, #76]	; 0x4c
 8000936:	62a6      	str	r6, [r4, #40]	; 0x28
 8000938:	b02a      	add	sp, #168	; 0xa8
 800093a:	bd70      	pop	{r4, r5, r6, pc}
 800093c:	50040000 	.word	0x50040000
 8000940:	40021000 	.word	0x40021000
 8000944:	200000dc 	.word	0x200000dc
 8000948:	40020008 	.word	0x40020008

0800094c <HAL_TIM_Base_MspInit>:
 800094c:	6802      	ldr	r2, [r0, #0]
 800094e:	4b08      	ldr	r3, [pc, #32]	; (8000970 <HAL_TIM_Base_MspInit+0x24>)
 8000950:	429a      	cmp	r2, r3
 8000952:	b082      	sub	sp, #8
 8000954:	d10a      	bne.n	800096c <HAL_TIM_Base_MspInit+0x20>
 8000956:	f503 3302 	add.w	r3, r3, #133120	; 0x20800
 800095a:	6d9a      	ldr	r2, [r3, #88]	; 0x58
 800095c:	f042 0204 	orr.w	r2, r2, #4
 8000960:	659a      	str	r2, [r3, #88]	; 0x58
 8000962:	6d9b      	ldr	r3, [r3, #88]	; 0x58
 8000964:	f003 0304 	and.w	r3, r3, #4
 8000968:	9301      	str	r3, [sp, #4]
 800096a:	9b01      	ldr	r3, [sp, #4]
 800096c:	b002      	add	sp, #8
 800096e:	4770      	bx	lr
 8000970:	40000800 	.word	0x40000800

08000974 <HAL_UART_MspInit>:
 8000974:	b510      	push	{r4, lr}
 8000976:	b0aa      	sub	sp, #168	; 0xa8
 8000978:	4604      	mov	r4, r0
 800097a:	2214      	movs	r2, #20
 800097c:	2100      	movs	r1, #0
 800097e:	a803      	add	r0, sp, #12
 8000980:	f002 f8ea 	bl	8002b58 <memset>
 8000984:	2288      	movs	r2, #136	; 0x88
 8000986:	2100      	movs	r1, #0
 8000988:	a808      	add	r0, sp, #32
 800098a:	f002 f8e5 	bl	8002b58 <memset>
 800098e:	6822      	ldr	r2, [r4, #0]
 8000990:	4b18      	ldr	r3, [pc, #96]	; (80009f4 <HAL_UART_MspInit+0x80>)
 8000992:	429a      	cmp	r2, r3
 8000994:	d12b      	bne.n	80009ee <HAL_UART_MspInit+0x7a>
 8000996:	2302      	movs	r3, #2
 8000998:	9308      	str	r3, [sp, #32]
 800099a:	a808      	add	r0, sp, #32
 800099c:	2300      	movs	r3, #0
 800099e:	9317      	str	r3, [sp, #92]	; 0x5c
 80009a0:	f001 fb12 	bl	8001fc8 <HAL_RCCEx_PeriphCLKConfig>
 80009a4:	b108      	cbz	r0, 80009aa <HAL_UART_MspInit+0x36>
 80009a6:	f7ff ff4d 	bl	8000844 <Error_Handler>
 80009aa:	4b13      	ldr	r3, [pc, #76]	; (80009f8 <HAL_UART_MspInit+0x84>)
 80009ac:	6d9a      	ldr	r2, [r3, #88]	; 0x58
 80009ae:	f442 3200 	orr.w	r2, r2, #131072	; 0x20000
 80009b2:	659a      	str	r2, [r3, #88]	; 0x58
 80009b4:	6d9a      	ldr	r2, [r3, #88]	; 0x58
 80009b6:	f402 3200 	and.w	r2, r2, #131072	; 0x20000
 80009ba:	9201      	str	r2, [sp, #4]
 80009bc:	9a01      	ldr	r2, [sp, #4]
 80009be:	6cda      	ldr	r2, [r3, #76]	; 0x4c
 80009c0:	f042 0201 	orr.w	r2, r2, #1
 80009c4:	64da      	str	r2, [r3, #76]	; 0x4c
 80009c6:	6cdb      	ldr	r3, [r3, #76]	; 0x4c
 80009c8:	f003 0301 	and.w	r3, r3, #1
 80009cc:	9302      	str	r3, [sp, #8]
 80009ce:	9b02      	ldr	r3, [sp, #8]
 80009d0:	220c      	movs	r2, #12
 80009d2:	2302      	movs	r3, #2
 80009d4:	2100      	movs	r1, #0
 80009d6:	e9cd 2303 	strd	r2, r3, [sp, #12]
 80009da:	2303      	movs	r3, #3
 80009dc:	e9cd 1305 	strd	r1, r3, [sp, #20]
 80009e0:	f04f 4090 	mov.w	r0, #1207959552	; 0x48000000
 80009e4:	2307      	movs	r3, #7
 80009e6:	a903      	add	r1, sp, #12
 80009e8:	9307      	str	r3, [sp, #28]
 80009ea:	f000 fcf3 	bl	80013d4 <HAL_GPIO_Init>
 80009ee:	b02a      	add	sp, #168	; 0xa8
 80009f0:	bd10      	pop	{r4, pc}
 80009f2:	bf00      	nop
 80009f4:	40004400 	.word	0x40004400
 80009f8:	40021000 	.word	0x40021000

080009fc <NMI_Handler>:
 80009fc:	e7fe      	b.n	80009fc <NMI_Handler>

080009fe <HardFault_Handler>:
 80009fe:	e7fe      	b.n	80009fe <HardFault_Handler>

08000a00 <MemManage_Handler>:
 8000a00:	e7fe      	b.n	8000a00 <MemManage_Handler>

08000a02 <BusFault_Handler>:
 8000a02:	e7fe      	b.n	8000a02 <BusFault_Handler>

08000a04 <UsageFault_Handler>:
 8000a04:	e7fe      	b.n	8000a04 <UsageFault_Handler>

08000a06 <SVC_Handler>:
 8000a06:	4770      	bx	lr

08000a08 <DebugMon_Handler>:
 8000a08:	4770      	bx	lr

08000a0a <PendSV_Handler>:
 8000a0a:	4770      	bx	lr

08000a0c <SysTick_Handler>:
 8000a0c:	f000 b88e 	b.w	8000b2c <HAL_IncTick>

08000a10 <DMA1_Channel1_IRQHandler>:
 8000a10:	4801      	ldr	r0, [pc, #4]	; (8000a18 <DMA1_Channel1_IRQHandler+0x8>)
 8000a12:	f000 bc95 	b.w	8001340 <HAL_DMA_IRQHandler>
 8000a16:	bf00      	nop
 8000a18:	200000dc 	.word	0x200000dc

08000a1c <SystemInit>:
 8000a1c:	4a0e      	ldr	r2, [pc, #56]	; (8000a58 <SystemInit+0x3c>)
 8000a1e:	f8d2 3088 	ldr.w	r3, [r2, #136]	; 0x88
 8000a22:	f443 0370 	orr.w	r3, r3, #15728640	; 0xf00000
 8000a26:	f8c2 3088 	str.w	r3, [r2, #136]	; 0x88
 8000a2a:	4b0c      	ldr	r3, [pc, #48]	; (8000a5c <SystemInit+0x40>)
 8000a2c:	681a      	ldr	r2, [r3, #0]
 8000a2e:	2100      	movs	r1, #0
 8000a30:	f042 0201 	orr.w	r2, r2, #1
 8000a34:	601a      	str	r2, [r3, #0]
 8000a36:	6099      	str	r1, [r3, #8]
 8000a38:	681a      	ldr	r2, [r3, #0]
 8000a3a:	f022 52a8 	bic.w	r2, r2, #352321536	; 0x15000000
 8000a3e:	f422 2210 	bic.w	r2, r2, #589824	; 0x90000
 8000a42:	601a      	str	r2, [r3, #0]
 8000a44:	f44f 5280 	mov.w	r2, #4096	; 0x1000
 8000a48:	60da      	str	r2, [r3, #12]
 8000a4a:	681a      	ldr	r2, [r3, #0]
 8000a4c:	f422 2280 	bic.w	r2, r2, #262144	; 0x40000
 8000a50:	601a      	str	r2, [r3, #0]
 8000a52:	6199      	str	r1, [r3, #24]
 8000a54:	4770      	bx	lr
 8000a56:	bf00      	nop
 8000a58:	e000ed00 	.word	0xe000ed00
 8000a5c:	40021000 	.word	0x40021000

08000a60 <Reset_Handler>:
 8000a60:	f8df d034 	ldr.w	sp, [pc, #52]	; 8000a98 <LoopForever+0x2>
 8000a64:	f7ff ffda 	bl	8000a1c <SystemInit>
 8000a68:	2100      	movs	r1, #0
 8000a6a:	e003      	b.n	8000a74 <LoopCopyDataInit>

08000a6c <CopyDataInit>:
 8000a6c:	4b0b      	ldr	r3, [pc, #44]	; (8000a9c <LoopForever+0x6>)
 8000a6e:	585b      	ldr	r3, [r3, r1]
 8000a70:	5043      	str	r3, [r0, r1]
 8000a72:	3104      	adds	r1, #4

08000a74 <LoopCopyDataInit>:
 8000a74:	480a      	ldr	r0, [pc, #40]	; (8000aa0 <LoopForever+0xa>)
 8000a76:	4b0b      	ldr	r3, [pc, #44]	; (8000aa4 <LoopForever+0xe>)
 8000a78:	1842      	adds	r2, r0, r1
 8000a7a:	429a      	cmp	r2, r3
 8000a7c:	d3f6      	bcc.n	8000a6c <CopyDataInit>
 8000a7e:	4a0a      	ldr	r2, [pc, #40]	; (8000aa8 <LoopForever+0x12>)
 8000a80:	e002      	b.n	8000a88 <LoopFillZerobss>

08000a82 <FillZerobss>:
 8000a82:	2300      	movs	r3, #0
 8000a84:	f842 3b04 	str.w	r3, [r2], #4

08000a88 <LoopFillZerobss>:
 8000a88:	4b08      	ldr	r3, [pc, #32]	; (8000aac <LoopForever+0x16>)
 8000a8a:	429a      	cmp	r2, r3
 8000a8c:	d3f9      	bcc.n	8000a82 <FillZerobss>
 8000a8e:	f002 f83f 	bl	8002b10 <__libc_init_array>
 8000a92:	f7ff fdc1 	bl	8000618 <main>

08000a96 <LoopForever>:
 8000a96:	e7fe      	b.n	8000a96 <LoopForever>
 8000a98:	20018000 	.word	0x20018000
 8000a9c:	08002be8 	.word	0x08002be8
 8000aa0:	20000000 	.word	0x20000000
 8000aa4:	20000010 	.word	0x20000010
 8000aa8:	20000010 	.word	0x20000010
 8000aac:	200001ac 	.word	0x200001ac

08000ab0 <ADC1_2_IRQHandler>:
 8000ab0:	e7fe      	b.n	8000ab0 <ADC1_2_IRQHandler>
	...

08000ab4 <HAL_InitTick>:
 8000ab4:	b538      	push	{r3, r4, r5, lr}
 8000ab6:	4b0f      	ldr	r3, [pc, #60]	; (8000af4 <HAL_InitTick+0x40>)
 8000ab8:	4605      	mov	r5, r0
 8000aba:	7818      	ldrb	r0, [r3, #0]
 8000abc:	b908      	cbnz	r0, 8000ac2 <HAL_InitTick+0xe>
 8000abe:	2001      	movs	r0, #1
 8000ac0:	bd38      	pop	{r3, r4, r5, pc}
 8000ac2:	4a0d      	ldr	r2, [pc, #52]	; (8000af8 <HAL_InitTick+0x44>)
 8000ac4:	f44f 737a 	mov.w	r3, #1000	; 0x3e8
 8000ac8:	fbb3 f3f0 	udiv	r3, r3, r0
 8000acc:	6810      	ldr	r0, [r2, #0]
 8000ace:	fbb0 f0f3 	udiv	r0, r0, r3
 8000ad2:	f000 fbb5 	bl	8001240 <HAL_SYSTICK_Config>
 8000ad6:	4604      	mov	r4, r0
 8000ad8:	2800      	cmp	r0, #0
 8000ada:	d1f0      	bne.n	8000abe <HAL_InitTick+0xa>
 8000adc:	2d0f      	cmp	r5, #15
 8000ade:	d8ee      	bhi.n	8000abe <HAL_InitTick+0xa>
 8000ae0:	4602      	mov	r2, r0
 8000ae2:	4629      	mov	r1, r5
 8000ae4:	f04f 30ff 	mov.w	r0, #4294967295
 8000ae8:	f000 fb6a 	bl	80011c0 <HAL_NVIC_SetPriority>
 8000aec:	4b03      	ldr	r3, [pc, #12]	; (8000afc <HAL_InitTick+0x48>)
 8000aee:	4620      	mov	r0, r4
 8000af0:	601d      	str	r5, [r3, #0]
 8000af2:	e7e5      	b.n	8000ac0 <HAL_InitTick+0xc>
 8000af4:	20000008 	.word	0x20000008
 8000af8:	20000004 	.word	0x20000004
 8000afc:	2000000c 	.word	0x2000000c

08000b00 <HAL_Init>:
 8000b00:	4a09      	ldr	r2, [pc, #36]	; (8000b28 <HAL_Init+0x28>)
 8000b02:	6813      	ldr	r3, [r2, #0]
 8000b04:	f443 7380 	orr.w	r3, r3, #256	; 0x100
 8000b08:	b510      	push	{r4, lr}
 8000b0a:	2003      	movs	r0, #3
 8000b0c:	6013      	str	r3, [r2, #0]
 8000b0e:	f000 fb45 	bl	800119c <HAL_NVIC_SetPriorityGrouping>
 8000b12:	2000      	movs	r0, #0
 8000b14:	f7ff ffce 	bl	8000ab4 <HAL_InitTick>
 8000b18:	4604      	mov	r4, r0
 8000b1a:	b918      	cbnz	r0, 8000b24 <HAL_Init+0x24>
 8000b1c:	f7ff fe94 	bl	8000848 <HAL_MspInit>
 8000b20:	4620      	mov	r0, r4
 8000b22:	bd10      	pop	{r4, pc}
 8000b24:	2401      	movs	r4, #1
 8000b26:	e7fb      	b.n	8000b20 <HAL_Init+0x20>
 8000b28:	40022000 	.word	0x40022000

08000b2c <HAL_IncTick>:
 8000b2c:	4a03      	ldr	r2, [pc, #12]	; (8000b3c <HAL_IncTick+0x10>)
 8000b2e:	4b04      	ldr	r3, [pc, #16]	; (8000b40 <HAL_IncTick+0x14>)
 8000b30:	6811      	ldr	r1, [r2, #0]
 8000b32:	781b      	ldrb	r3, [r3, #0]
 8000b34:	440b      	add	r3, r1
 8000b36:	6013      	str	r3, [r2, #0]
 8000b38:	4770      	bx	lr
 8000b3a:	bf00      	nop
 8000b3c:	200001a8 	.word	0x200001a8
 8000b40:	20000008 	.word	0x20000008

08000b44 <HAL_GetTick>:
 8000b44:	4b01      	ldr	r3, [pc, #4]	; (8000b4c <HAL_GetTick+0x8>)
 8000b46:	6818      	ldr	r0, [r3, #0]
 8000b48:	4770      	bx	lr
 8000b4a:	bf00      	nop
 8000b4c:	200001a8 	.word	0x200001a8

08000b50 <HAL_Delay>:
 8000b50:	b538      	push	{r3, r4, r5, lr}
 8000b52:	4604      	mov	r4, r0
 8000b54:	f7ff fff6 	bl	8000b44 <HAL_GetTick>
 8000b58:	1c63      	adds	r3, r4, #1
 8000b5a:	bf1c      	itt	ne
 8000b5c:	4b05      	ldrne	r3, [pc, #20]	; (8000b74 <HAL_Delay+0x24>)
 8000b5e:	781b      	ldrbne	r3, [r3, #0]
 8000b60:	4605      	mov	r5, r0
 8000b62:	bf18      	it	ne
 8000b64:	18e4      	addne	r4, r4, r3
 8000b66:	f7ff ffed 	bl	8000b44 <HAL_GetTick>
 8000b6a:	1b43      	subs	r3, r0, r5
 8000b6c:	42a3      	cmp	r3, r4
 8000b6e:	d3fa      	bcc.n	8000b66 <HAL_Delay+0x16>
 8000b70:	bd38      	pop	{r3, r4, r5, pc}
 8000b72:	bf00      	nop
 8000b74:	20000008 	.word	0x20000008

08000b78 <LL_ADC_SetChannelSamplingTime>:
 8000b78:	b530      	push	{r4, r5, lr}
 8000b7a:	0dcc      	lsrs	r4, r1, #23
 8000b7c:	f004 0404 	and.w	r4, r4, #4
 8000b80:	3014      	adds	r0, #20
 8000b82:	f3c1 5104 	ubfx	r1, r1, #20, #5
 8000b86:	5823      	ldr	r3, [r4, r0]
 8000b88:	2507      	movs	r5, #7
 8000b8a:	408d      	lsls	r5, r1
 8000b8c:	ea23 0305 	bic.w	r3, r3, r5
 8000b90:	fa02 f101 	lsl.w	r1, r2, r1
 8000b94:	430b      	orrs	r3, r1
 8000b96:	5023      	str	r3, [r4, r0]
 8000b98:	bd30      	pop	{r4, r5, pc}

08000b9a <LL_ADC_REG_IsConversionOngoing>:
 8000b9a:	6880      	ldr	r0, [r0, #8]
 8000b9c:	f3c0 0080 	ubfx	r0, r0, #2, #1
 8000ba0:	4770      	bx	lr
	...

08000ba4 <HAL_ADC_Init>:
 8000ba4:	b537      	push	{r0, r1, r2, r4, r5, lr}
 8000ba6:	2300      	movs	r3, #0
 8000ba8:	9301      	str	r3, [sp, #4]
 8000baa:	4604      	mov	r4, r0
 8000bac:	2800      	cmp	r0, #0
 8000bae:	f000 80c6 	beq.w	8000d3e <HAL_ADC_Init+0x19a>
 8000bb2:	6d45      	ldr	r5, [r0, #84]	; 0x54
 8000bb4:	b925      	cbnz	r5, 8000bc0 <HAL_ADC_Init+0x1c>
 8000bb6:	f7ff fe5f 	bl	8000878 <HAL_ADC_MspInit>
 8000bba:	65a5      	str	r5, [r4, #88]	; 0x58
 8000bbc:	f884 5050 	strb.w	r5, [r4, #80]	; 0x50
 8000bc0:	6820      	ldr	r0, [r4, #0]
 8000bc2:	6883      	ldr	r3, [r0, #8]
 8000bc4:	009b      	lsls	r3, r3, #2
 8000bc6:	bf41      	itttt	mi
 8000bc8:	6883      	ldrmi	r3, [r0, #8]
 8000bca:	f023 4320 	bicmi.w	r3, r3, #2684354560	; 0xa0000000
 8000bce:	f023 033f 	bicmi.w	r3, r3, #63	; 0x3f
 8000bd2:	6083      	strmi	r3, [r0, #8]
 8000bd4:	6883      	ldr	r3, [r0, #8]
 8000bd6:	00dd      	lsls	r5, r3, #3
 8000bd8:	f140 8091 	bpl.w	8000cfe <HAL_ADC_Init+0x15a>
 8000bdc:	6883      	ldr	r3, [r0, #8]
 8000bde:	00d9      	lsls	r1, r3, #3
 8000be0:	f100 80a4 	bmi.w	8000d2c <HAL_ADC_Init+0x188>
 8000be4:	6d63      	ldr	r3, [r4, #84]	; 0x54
 8000be6:	f043 0310 	orr.w	r3, r3, #16
 8000bea:	6563      	str	r3, [r4, #84]	; 0x54
 8000bec:	6da3      	ldr	r3, [r4, #88]	; 0x58
 8000bee:	f043 0301 	orr.w	r3, r3, #1
 8000bf2:	65a3      	str	r3, [r4, #88]	; 0x58
 8000bf4:	2101      	movs	r1, #1
 8000bf6:	f7ff ffd0 	bl	8000b9a <LL_ADC_REG_IsConversionOngoing>
 8000bfa:	6d63      	ldr	r3, [r4, #84]	; 0x54
 8000bfc:	f003 0310 	and.w	r3, r3, #16
 8000c00:	4303      	orrs	r3, r0
 8000c02:	6d63      	ldr	r3, [r4, #84]	; 0x54
 8000c04:	f040 8098 	bne.w	8000d38 <HAL_ADC_Init+0x194>
 8000c08:	f423 7381 	bic.w	r3, r3, #258	; 0x102
 8000c0c:	f043 0302 	orr.w	r3, r3, #2
 8000c10:	6820      	ldr	r0, [r4, #0]
 8000c12:	6563      	str	r3, [r4, #84]	; 0x54
 8000c14:	6883      	ldr	r3, [r0, #8]
 8000c16:	07da      	lsls	r2, r3, #31
 8000c18:	d411      	bmi.n	8000c3e <HAL_ADC_Init+0x9a>
 8000c1a:	4b4a      	ldr	r3, [pc, #296]	; (8000d44 <HAL_ADC_Init+0x1a0>)
 8000c1c:	4a4a      	ldr	r2, [pc, #296]	; (8000d48 <HAL_ADC_Init+0x1a4>)
 8000c1e:	689d      	ldr	r5, [r3, #8]
 8000c20:	f503 7380 	add.w	r3, r3, #256	; 0x100
 8000c24:	689b      	ldr	r3, [r3, #8]
 8000c26:	6892      	ldr	r2, [r2, #8]
 8000c28:	432b      	orrs	r3, r5
 8000c2a:	4313      	orrs	r3, r2
 8000c2c:	07db      	lsls	r3, r3, #31
 8000c2e:	d406      	bmi.n	8000c3e <HAL_ADC_Init+0x9a>
 8000c30:	4a46      	ldr	r2, [pc, #280]	; (8000d4c <HAL_ADC_Init+0x1a8>)
 8000c32:	6865      	ldr	r5, [r4, #4]
 8000c34:	6893      	ldr	r3, [r2, #8]
 8000c36:	f423 137c 	bic.w	r3, r3, #4128768	; 0x3f0000
 8000c3a:	432b      	orrs	r3, r5
 8000c3c:	6093      	str	r3, [r2, #8]
 8000c3e:	68e5      	ldr	r5, [r4, #12]
 8000c40:	6b63      	ldr	r3, [r4, #52]	; 0x34
 8000c42:	f894 2020 	ldrb.w	r2, [r4, #32]
 8000c46:	432b      	orrs	r3, r5
 8000c48:	68a5      	ldr	r5, [r4, #8]
 8000c4a:	432b      	orrs	r3, r5
 8000c4c:	7e65      	ldrb	r5, [r4, #25]
 8000c4e:	2a01      	cmp	r2, #1
 8000c50:	ea43 3345 	orr.w	r3, r3, r5, lsl #13
 8000c54:	ea43 4302 	orr.w	r3, r3, r2, lsl #16
 8000c58:	bf02      	ittt	eq
 8000c5a:	6a62      	ldreq	r2, [r4, #36]	; 0x24
 8000c5c:	f102 32ff 	addeq.w	r2, r2, #4294967295
 8000c60:	ea43 4342 	orreq.w	r3, r3, r2, lsl #17
 8000c64:	6aa2      	ldr	r2, [r4, #40]	; 0x28
 8000c66:	b122      	cbz	r2, 8000c72 <HAL_ADC_Init+0xce>
 8000c68:	6ae5      	ldr	r5, [r4, #44]	; 0x2c
 8000c6a:	f402 7270 	and.w	r2, r2, #960	; 0x3c0
 8000c6e:	432a      	orrs	r2, r5
 8000c70:	4313      	orrs	r3, r2
 8000c72:	68c5      	ldr	r5, [r0, #12]
 8000c74:	4a36      	ldr	r2, [pc, #216]	; (8000d50 <HAL_ADC_Init+0x1ac>)
 8000c76:	402a      	ands	r2, r5
 8000c78:	4313      	orrs	r3, r2
 8000c7a:	60c3      	str	r3, [r0, #12]
 8000c7c:	f7ff ff8d 	bl	8000b9a <LL_ADC_REG_IsConversionOngoing>
 8000c80:	6823      	ldr	r3, [r4, #0]
 8000c82:	689a      	ldr	r2, [r3, #8]
 8000c84:	f002 0208 	and.w	r2, r2, #8
 8000c88:	4302      	orrs	r2, r0
 8000c8a:	d120      	bne.n	8000cce <HAL_ADC_Init+0x12a>
 8000c8c:	68d8      	ldr	r0, [r3, #12]
 8000c8e:	f894 2030 	ldrb.w	r2, [r4, #48]	; 0x30
 8000c92:	7e25      	ldrb	r5, [r4, #24]
 8000c94:	0052      	lsls	r2, r2, #1
 8000c96:	f420 4080 	bic.w	r0, r0, #16384	; 0x4000
 8000c9a:	ea42 3285 	orr.w	r2, r2, r5, lsl #14
 8000c9e:	f020 0002 	bic.w	r0, r0, #2
 8000ca2:	4302      	orrs	r2, r0
 8000ca4:	60da      	str	r2, [r3, #12]
 8000ca6:	f894 2038 	ldrb.w	r2, [r4, #56]	; 0x38
 8000caa:	2a01      	cmp	r2, #1
 8000cac:	d140      	bne.n	8000d30 <HAL_ADC_Init+0x18c>
 8000cae:	e9d4 250f 	ldrd	r2, r5, [r4, #60]	; 0x3c
 8000cb2:	6918      	ldr	r0, [r3, #16]
 8000cb4:	f420 60ff 	bic.w	r0, r0, #2040	; 0x7f8
 8000cb8:	f020 0004 	bic.w	r0, r0, #4
 8000cbc:	432a      	orrs	r2, r5
 8000cbe:	4302      	orrs	r2, r0
 8000cc0:	6c60      	ldr	r0, [r4, #68]	; 0x44
 8000cc2:	4302      	orrs	r2, r0
 8000cc4:	6ca0      	ldr	r0, [r4, #72]	; 0x48
 8000cc6:	4302      	orrs	r2, r0
 8000cc8:	f042 0201 	orr.w	r2, r2, #1
 8000ccc:	611a      	str	r2, [r3, #16]
 8000cce:	6922      	ldr	r2, [r4, #16]
 8000cd0:	2a01      	cmp	r2, #1
 8000cd2:	bf05      	ittet	eq
 8000cd4:	6b18      	ldreq	r0, [r3, #48]	; 0x30
 8000cd6:	69e2      	ldreq	r2, [r4, #28]
 8000cd8:	6b1a      	ldrne	r2, [r3, #48]	; 0x30
 8000cda:	f102 32ff 	addeq.w	r2, r2, #4294967295
 8000cde:	bf06      	itte	eq
 8000ce0:	f020 000f 	biceq.w	r0, r0, #15
 8000ce4:	4302      	orreq	r2, r0
 8000ce6:	f022 020f 	bicne.w	r2, r2, #15
 8000cea:	631a      	str	r2, [r3, #48]	; 0x30
 8000cec:	6d63      	ldr	r3, [r4, #84]	; 0x54
 8000cee:	f023 0303 	bic.w	r3, r3, #3
 8000cf2:	f043 0301 	orr.w	r3, r3, #1
 8000cf6:	6563      	str	r3, [r4, #84]	; 0x54
 8000cf8:	4608      	mov	r0, r1
 8000cfa:	b003      	add	sp, #12
 8000cfc:	bd30      	pop	{r4, r5, pc}
 8000cfe:	6883      	ldr	r3, [r0, #8]
 8000d00:	4a14      	ldr	r2, [pc, #80]	; (8000d54 <HAL_ADC_Init+0x1b0>)
 8000d02:	f023 4310 	bic.w	r3, r3, #2415919104	; 0x90000000
 8000d06:	f023 033f 	bic.w	r3, r3, #63	; 0x3f
 8000d0a:	f043 5380 	orr.w	r3, r3, #268435456	; 0x10000000
 8000d0e:	6083      	str	r3, [r0, #8]
 8000d10:	4b11      	ldr	r3, [pc, #68]	; (8000d58 <HAL_ADC_Init+0x1b4>)
 8000d12:	681b      	ldr	r3, [r3, #0]
 8000d14:	fbb3 f3f2 	udiv	r3, r3, r2
 8000d18:	3301      	adds	r3, #1
 8000d1a:	005b      	lsls	r3, r3, #1
 8000d1c:	9301      	str	r3, [sp, #4]
 8000d1e:	9b01      	ldr	r3, [sp, #4]
 8000d20:	2b00      	cmp	r3, #0
 8000d22:	f43f af5b 	beq.w	8000bdc <HAL_ADC_Init+0x38>
 8000d26:	9b01      	ldr	r3, [sp, #4]
 8000d28:	3b01      	subs	r3, #1
 8000d2a:	e7f7      	b.n	8000d1c <HAL_ADC_Init+0x178>
 8000d2c:	2100      	movs	r1, #0
 8000d2e:	e762      	b.n	8000bf6 <HAL_ADC_Init+0x52>
 8000d30:	691a      	ldr	r2, [r3, #16]
 8000d32:	f022 0201 	bic.w	r2, r2, #1
 8000d36:	e7c9      	b.n	8000ccc <HAL_ADC_Init+0x128>
 8000d38:	f043 0310 	orr.w	r3, r3, #16
 8000d3c:	6563      	str	r3, [r4, #84]	; 0x54
 8000d3e:	2101      	movs	r1, #1
 8000d40:	e7da      	b.n	8000cf8 <HAL_ADC_Init+0x154>
 8000d42:	bf00      	nop
 8000d44:	50040000 	.word	0x50040000
 8000d48:	50040200 	.word	0x50040200
 8000d4c:	50040300 	.word	0x50040300
 8000d50:	fff0c007 	.word	0xfff0c007
 8000d54:	00030d40 	.word	0x00030d40
 8000d58:	20000004 	.word	0x20000004

08000d5c <HAL_ADC_ConfigChannel>:
 8000d5c:	b5f7      	push	{r0, r1, r2, r4, r5, r6, r7, lr}
 8000d5e:	2300      	movs	r3, #0
 8000d60:	9301      	str	r3, [sp, #4]
 8000d62:	f890 3050 	ldrb.w	r3, [r0, #80]	; 0x50
 8000d66:	2b01      	cmp	r3, #1
 8000d68:	4605      	mov	r5, r0
 8000d6a:	460c      	mov	r4, r1
 8000d6c:	f000 818d 	beq.w	800108a <HAL_ADC_ConfigChannel+0x32e>
 8000d70:	2301      	movs	r3, #1
 8000d72:	f880 3050 	strb.w	r3, [r0, #80]	; 0x50
 8000d76:	6800      	ldr	r0, [r0, #0]
 8000d78:	f7ff ff0f 	bl	8000b9a <LL_ADC_REG_IsConversionOngoing>
 8000d7c:	2800      	cmp	r0, #0
 8000d7e:	f040 817e 	bne.w	800107e <HAL_ADC_ConfigChannel+0x322>
 8000d82:	684b      	ldr	r3, [r1, #4]
 8000d84:	2b05      	cmp	r3, #5
 8000d86:	d809      	bhi.n	8000d9c <HAL_ADC_ConfigChannel+0x40>
 8000d88:	3b02      	subs	r3, #2
 8000d8a:	2b03      	cmp	r3, #3
 8000d8c:	f200 8083 	bhi.w	8000e96 <HAL_ADC_ConfigChannel+0x13a>
 8000d90:	e8df f003 	tbb	[pc, r3]
 8000d94:	7e7c7a02 	.word	0x7e7c7a02
 8000d98:	230c      	movs	r3, #12
 8000d9a:	6063      	str	r3, [r4, #4]
 8000d9c:	6862      	ldr	r2, [r4, #4]
 8000d9e:	6828      	ldr	r0, [r5, #0]
 8000da0:	6823      	ldr	r3, [r4, #0]
 8000da2:	0991      	lsrs	r1, r2, #6
 8000da4:	f001 010c 	and.w	r1, r1, #12
 8000da8:	f100 0730 	add.w	r7, r0, #48	; 0x30
 8000dac:	f002 021f 	and.w	r2, r2, #31
 8000db0:	59ce      	ldr	r6, [r1, r7]
 8000db2:	f04f 0c1f 	mov.w	ip, #31
 8000db6:	f3c3 6384 	ubfx	r3, r3, #26, #5
 8000dba:	4093      	lsls	r3, r2
 8000dbc:	fa0c f202 	lsl.w	r2, ip, r2
 8000dc0:	ea26 0202 	bic.w	r2, r6, r2
 8000dc4:	4313      	orrs	r3, r2
 8000dc6:	51cb      	str	r3, [r1, r7]
 8000dc8:	f7ff fee7 	bl	8000b9a <LL_ADC_REG_IsConversionOngoing>
 8000dcc:	682e      	ldr	r6, [r5, #0]
 8000dce:	68b3      	ldr	r3, [r6, #8]
 8000dd0:	f003 0308 	and.w	r3, r3, #8
 8000dd4:	4303      	orrs	r3, r0
 8000dd6:	d11d      	bne.n	8000e14 <HAL_ADC_ConfigChannel+0xb8>
 8000dd8:	4630      	mov	r0, r6
 8000dda:	68a2      	ldr	r2, [r4, #8]
 8000ddc:	6821      	ldr	r1, [r4, #0]
 8000dde:	f7ff fecb 	bl	8000b78 <LL_ADC_SetChannelSamplingTime>
 8000de2:	6926      	ldr	r6, [r4, #16]
 8000de4:	6829      	ldr	r1, [r5, #0]
 8000de6:	6823      	ldr	r3, [r4, #0]
 8000de8:	68c8      	ldr	r0, [r1, #12]
 8000dea:	2e04      	cmp	r6, #4
 8000dec:	f101 0260 	add.w	r2, r1, #96	; 0x60
 8000df0:	d053      	beq.n	8000e9a <HAL_ADC_ConfigChannel+0x13e>
 8000df2:	f3c0 01c1 	ubfx	r1, r0, #3, #2
 8000df6:	0048      	lsls	r0, r1, #1
 8000df8:	6961      	ldr	r1, [r4, #20]
 8000dfa:	f852 7026 	ldr.w	r7, [r2, r6, lsl #2]
 8000dfe:	4081      	lsls	r1, r0
 8000e00:	48a3      	ldr	r0, [pc, #652]	; (8001090 <HAL_ADC_ConfigChannel+0x334>)
 8000e02:	f003 43f8 	and.w	r3, r3, #2080374784	; 0x7c000000
 8000e06:	4038      	ands	r0, r7
 8000e08:	4303      	orrs	r3, r0
 8000e0a:	4319      	orrs	r1, r3
 8000e0c:	f041 4100 	orr.w	r1, r1, #2147483648	; 0x80000000
 8000e10:	f842 1026 	str.w	r1, [r2, r6, lsl #2]
 8000e14:	6828      	ldr	r0, [r5, #0]
 8000e16:	6883      	ldr	r3, [r0, #8]
 8000e18:	07d9      	lsls	r1, r3, #31
 8000e1a:	f100 80bb 	bmi.w	8000f94 <HAL_ADC_ConfigChannel+0x238>
 8000e1e:	68e6      	ldr	r6, [r4, #12]
 8000e20:	6823      	ldr	r3, [r4, #0]
 8000e22:	4a9c      	ldr	r2, [pc, #624]	; (8001094 <HAL_ADC_ConfigChannel+0x338>)
 8000e24:	f8d0 10b0 	ldr.w	r1, [r0, #176]	; 0xb0
 8000e28:	f006 0c18 	and.w	ip, r6, #24
 8000e2c:	f3c3 0712 	ubfx	r7, r3, #0, #19
 8000e30:	fa22 f20c 	lsr.w	r2, r2, ip
 8000e34:	401a      	ands	r2, r3
 8000e36:	ea21 0107 	bic.w	r1, r1, r7
 8000e3a:	430a      	orrs	r2, r1
 8000e3c:	f8c0 20b0 	str.w	r2, [r0, #176]	; 0xb0
 8000e40:	4a95      	ldr	r2, [pc, #596]	; (8001098 <HAL_ADC_ConfigChannel+0x33c>)
 8000e42:	4296      	cmp	r6, r2
 8000e44:	f040 80a6 	bne.w	8000f94 <HAL_ADC_ConfigChannel+0x238>
 8000e48:	2f00      	cmp	r7, #0
 8000e4a:	d17b      	bne.n	8000f44 <HAL_ADC_ConfigChannel+0x1e8>
 8000e4c:	0e99      	lsrs	r1, r3, #26
 8000e4e:	3101      	adds	r1, #1
 8000e50:	f001 061f 	and.w	r6, r1, #31
 8000e54:	0689      	lsls	r1, r1, #26
 8000e56:	f001 42f8 	and.w	r2, r1, #2080374784	; 0x7c000000
 8000e5a:	2e09      	cmp	r6, #9
 8000e5c:	f04f 0101 	mov.w	r1, #1
 8000e60:	fa01 f106 	lsl.w	r1, r1, r6
 8000e64:	f240 8089 	bls.w	8000f7a <HAL_ADC_ConfigChannel+0x21e>
 8000e68:	4311      	orrs	r1, r2
 8000e6a:	2f00      	cmp	r7, #0
 8000e6c:	f040 80b3 	bne.w	8000fd6 <HAL_ADC_ConfigChannel+0x27a>
 8000e70:	0e9a      	lsrs	r2, r3, #26
 8000e72:	3201      	adds	r2, #1
 8000e74:	f002 021f 	and.w	r2, r2, #31
 8000e78:	eb02 0342 	add.w	r3, r2, r2, lsl #1
 8000e7c:	3b1e      	subs	r3, #30
 8000e7e:	051b      	lsls	r3, r3, #20
 8000e80:	f043 7300 	orr.w	r3, r3, #33554432	; 0x2000000
 8000e84:	4319      	orrs	r1, r3
 8000e86:	e082      	b.n	8000f8e <HAL_ADC_ConfigChannel+0x232>
 8000e88:	2312      	movs	r3, #18
 8000e8a:	e786      	b.n	8000d9a <HAL_ADC_ConfigChannel+0x3e>
 8000e8c:	2318      	movs	r3, #24
 8000e8e:	e784      	b.n	8000d9a <HAL_ADC_ConfigChannel+0x3e>
 8000e90:	f44f 7380 	mov.w	r3, #256	; 0x100
 8000e94:	e781      	b.n	8000d9a <HAL_ADC_ConfigChannel+0x3e>
 8000e96:	2306      	movs	r3, #6
 8000e98:	e77f      	b.n	8000d9a <HAL_ADC_ConfigChannel+0x3e>
 8000e9a:	6e08      	ldr	r0, [r1, #96]	; 0x60
 8000e9c:	6e08      	ldr	r0, [r1, #96]	; 0x60
 8000e9e:	f3c3 0612 	ubfx	r6, r3, #0, #19
 8000ea2:	f3c0 6084 	ubfx	r0, r0, #26, #5
 8000ea6:	2e00      	cmp	r6, #0
 8000ea8:	d138      	bne.n	8000f1c <HAL_ADC_ConfigChannel+0x1c0>
 8000eaa:	f3c3 6384 	ubfx	r3, r3, #26, #5
 8000eae:	4298      	cmp	r0, r3
 8000eb0:	bf02      	ittt	eq
 8000eb2:	6e0b      	ldreq	r3, [r1, #96]	; 0x60
 8000eb4:	f023 4300 	biceq.w	r3, r3, #2147483648	; 0x80000000
 8000eb8:	660b      	streq	r3, [r1, #96]	; 0x60
 8000eba:	6e4b      	ldr	r3, [r1, #100]	; 0x64
 8000ebc:	6823      	ldr	r3, [r4, #0]
 8000ebe:	6e48      	ldr	r0, [r1, #100]	; 0x64
 8000ec0:	f3c3 0612 	ubfx	r6, r3, #0, #19
 8000ec4:	f3c0 6084 	ubfx	r0, r0, #26, #5
 8000ec8:	bb6e      	cbnz	r6, 8000f26 <HAL_ADC_ConfigChannel+0x1ca>
 8000eca:	f3c3 6384 	ubfx	r3, r3, #26, #5
 8000ece:	4298      	cmp	r0, r3
 8000ed0:	bf02      	ittt	eq
 8000ed2:	6e4b      	ldreq	r3, [r1, #100]	; 0x64
 8000ed4:	f023 4300 	biceq.w	r3, r3, #2147483648	; 0x80000000
 8000ed8:	664b      	streq	r3, [r1, #100]	; 0x64
 8000eda:	6893      	ldr	r3, [r2, #8]
 8000edc:	6823      	ldr	r3, [r4, #0]
 8000ede:	6891      	ldr	r1, [r2, #8]
 8000ee0:	f3c3 0012 	ubfx	r0, r3, #0, #19
 8000ee4:	f3c1 6184 	ubfx	r1, r1, #26, #5
 8000ee8:	bb10      	cbnz	r0, 8000f30 <HAL_ADC_ConfigChannel+0x1d4>
 8000eea:	f3c3 6384 	ubfx	r3, r3, #26, #5
 8000eee:	4299      	cmp	r1, r3
 8000ef0:	bf02      	ittt	eq
 8000ef2:	6893      	ldreq	r3, [r2, #8]
 8000ef4:	f023 4300 	biceq.w	r3, r3, #2147483648	; 0x80000000
 8000ef8:	6093      	streq	r3, [r2, #8]
 8000efa:	68d3      	ldr	r3, [r2, #12]
 8000efc:	6823      	ldr	r3, [r4, #0]
 8000efe:	68d1      	ldr	r1, [r2, #12]
 8000f00:	f3c3 0012 	ubfx	r0, r3, #0, #19
 8000f04:	f3c1 6184 	ubfx	r1, r1, #26, #5
 8000f08:	b9b8      	cbnz	r0, 8000f3a <HAL_ADC_ConfigChannel+0x1de>
 8000f0a:	f3c3 6384 	ubfx	r3, r3, #26, #5
 8000f0e:	4299      	cmp	r1, r3
 8000f10:	bf02      	ittt	eq
 8000f12:	68d3      	ldreq	r3, [r2, #12]
 8000f14:	f023 4300 	biceq.w	r3, r3, #2147483648	; 0x80000000
 8000f18:	60d3      	streq	r3, [r2, #12]
 8000f1a:	e77b      	b.n	8000e14 <HAL_ADC_ConfigChannel+0xb8>
 8000f1c:	fa93 f3a3 	rbit	r3, r3
 8000f20:	fab3 f383 	clz	r3, r3
 8000f24:	e7c3      	b.n	8000eae <HAL_ADC_ConfigChannel+0x152>
 8000f26:	fa93 f3a3 	rbit	r3, r3
 8000f2a:	fab3 f383 	clz	r3, r3
 8000f2e:	e7ce      	b.n	8000ece <HAL_ADC_ConfigChannel+0x172>
 8000f30:	fa93 f3a3 	rbit	r3, r3
 8000f34:	fab3 f383 	clz	r3, r3
 8000f38:	e7d9      	b.n	8000eee <HAL_ADC_ConfigChannel+0x192>
 8000f3a:	fa93 f3a3 	rbit	r3, r3
 8000f3e:	fab3 f383 	clz	r3, r3
 8000f42:	e7e4      	b.n	8000f0e <HAL_ADC_ConfigChannel+0x1b2>
 8000f44:	fa93 f2a3 	rbit	r2, r3
 8000f48:	b132      	cbz	r2, 8000f58 <HAL_ADC_ConfigChannel+0x1fc>
 8000f4a:	fab2 f282 	clz	r2, r2
 8000f4e:	3201      	adds	r2, #1
 8000f50:	f002 021f 	and.w	r2, r2, #31
 8000f54:	2a09      	cmp	r2, #9
 8000f56:	d82c      	bhi.n	8000fb2 <HAL_ADC_ConfigChannel+0x256>
 8000f58:	fa93 f1a3 	rbit	r1, r3
 8000f5c:	fab1 f181 	clz	r1, r1
 8000f60:	3101      	adds	r1, #1
 8000f62:	0689      	lsls	r1, r1, #26
 8000f64:	f001 42f8 	and.w	r2, r1, #2080374784	; 0x7c000000
 8000f68:	fa93 f1a3 	rbit	r1, r3
 8000f6c:	fab1 f181 	clz	r1, r1
 8000f70:	3101      	adds	r1, #1
 8000f72:	f001 061f 	and.w	r6, r1, #31
 8000f76:	2101      	movs	r1, #1
 8000f78:	40b1      	lsls	r1, r6
 8000f7a:	4311      	orrs	r1, r2
 8000f7c:	b9a7      	cbnz	r7, 8000fa8 <HAL_ADC_ConfigChannel+0x24c>
 8000f7e:	0e9e      	lsrs	r6, r3, #26
 8000f80:	3601      	adds	r6, #1
 8000f82:	f006 061f 	and.w	r6, r6, #31
 8000f86:	eb06 0646 	add.w	r6, r6, r6, lsl #1
 8000f8a:	0536      	lsls	r6, r6, #20
 8000f8c:	4331      	orrs	r1, r6
 8000f8e:	68a2      	ldr	r2, [r4, #8]
 8000f90:	f7ff fdf2 	bl	8000b78 <LL_ADC_SetChannelSamplingTime>
 8000f94:	6822      	ldr	r2, [r4, #0]
 8000f96:	4b41      	ldr	r3, [pc, #260]	; (800109c <HAL_ADC_ConfigChannel+0x340>)
 8000f98:	421a      	tst	r2, r3
 8000f9a:	d121      	bne.n	8000fe0 <HAL_ADC_ConfigChannel+0x284>
 8000f9c:	2000      	movs	r0, #0
 8000f9e:	2300      	movs	r3, #0
 8000fa0:	f885 3050 	strb.w	r3, [r5, #80]	; 0x50
 8000fa4:	b003      	add	sp, #12
 8000fa6:	bdf0      	pop	{r4, r5, r6, r7, pc}
 8000fa8:	fa93 f6a3 	rbit	r6, r3
 8000fac:	fab6 f686 	clz	r6, r6
 8000fb0:	e7e6      	b.n	8000f80 <HAL_ADC_ConfigChannel+0x224>
 8000fb2:	fa93 f1a3 	rbit	r1, r3
 8000fb6:	fab1 f181 	clz	r1, r1
 8000fba:	3101      	adds	r1, #1
 8000fbc:	0689      	lsls	r1, r1, #26
 8000fbe:	f001 42f8 	and.w	r2, r1, #2080374784	; 0x7c000000
 8000fc2:	fa93 f1a3 	rbit	r1, r3
 8000fc6:	fab1 f181 	clz	r1, r1
 8000fca:	3101      	adds	r1, #1
 8000fcc:	f001 061f 	and.w	r6, r1, #31
 8000fd0:	2101      	movs	r1, #1
 8000fd2:	40b1      	lsls	r1, r6
 8000fd4:	e748      	b.n	8000e68 <HAL_ADC_ConfigChannel+0x10c>
 8000fd6:	fa93 f2a3 	rbit	r2, r3
 8000fda:	fab2 f282 	clz	r2, r2
 8000fde:	e748      	b.n	8000e72 <HAL_ADC_ConfigChannel+0x116>
 8000fe0:	492f      	ldr	r1, [pc, #188]	; (80010a0 <HAL_ADC_ConfigChannel+0x344>)
 8000fe2:	4b30      	ldr	r3, [pc, #192]	; (80010a4 <HAL_ADC_ConfigChannel+0x348>)
 8000fe4:	6888      	ldr	r0, [r1, #8]
 8000fe6:	429a      	cmp	r2, r3
 8000fe8:	f000 76e0 	and.w	r6, r0, #29360128	; 0x1c00000
 8000fec:	460c      	mov	r4, r1
 8000fee:	d11f      	bne.n	8001030 <HAL_ADC_ConfigChannel+0x2d4>
 8000ff0:	0202      	lsls	r2, r0, #8
 8000ff2:	d4d3      	bmi.n	8000f9c <HAL_ADC_ConfigChannel+0x240>
 8000ff4:	682b      	ldr	r3, [r5, #0]
 8000ff6:	4a2c      	ldr	r2, [pc, #176]	; (80010a8 <HAL_ADC_ConfigChannel+0x34c>)
 8000ff8:	4293      	cmp	r3, r2
 8000ffa:	d003      	beq.n	8001004 <HAL_ADC_ConfigChannel+0x2a8>
 8000ffc:	f502 7200 	add.w	r2, r2, #512	; 0x200
 8001000:	4293      	cmp	r3, r2
 8001002:	d1cb      	bne.n	8000f9c <HAL_ADC_ConfigChannel+0x240>
 8001004:	68a3      	ldr	r3, [r4, #8]
 8001006:	4a29      	ldr	r2, [pc, #164]	; (80010ac <HAL_ADC_ConfigChannel+0x350>)
 8001008:	f023 73e0 	bic.w	r3, r3, #29360128	; 0x1c00000
 800100c:	4333      	orrs	r3, r6
 800100e:	f443 0300 	orr.w	r3, r3, #8388608	; 0x800000
 8001012:	60a3      	str	r3, [r4, #8]
 8001014:	4b26      	ldr	r3, [pc, #152]	; (80010b0 <HAL_ADC_ConfigChannel+0x354>)
 8001016:	681b      	ldr	r3, [r3, #0]
 8001018:	fbb3 f2f2 	udiv	r2, r3, r2
 800101c:	230c      	movs	r3, #12
 800101e:	fb02 3303 	mla	r3, r2, r3, r3
 8001022:	9301      	str	r3, [sp, #4]
 8001024:	9b01      	ldr	r3, [sp, #4]
 8001026:	2b00      	cmp	r3, #0
 8001028:	d0b8      	beq.n	8000f9c <HAL_ADC_ConfigChannel+0x240>
 800102a:	9b01      	ldr	r3, [sp, #4]
 800102c:	3b01      	subs	r3, #1
 800102e:	e7f8      	b.n	8001022 <HAL_ADC_ConfigChannel+0x2c6>
 8001030:	4b20      	ldr	r3, [pc, #128]	; (80010b4 <HAL_ADC_ConfigChannel+0x358>)
 8001032:	429a      	cmp	r2, r3
 8001034:	d111      	bne.n	800105a <HAL_ADC_ConfigChannel+0x2fe>
 8001036:	01c3      	lsls	r3, r0, #7
 8001038:	d4b0      	bmi.n	8000f9c <HAL_ADC_ConfigChannel+0x240>
 800103a:	682b      	ldr	r3, [r5, #0]
 800103c:	4a1a      	ldr	r2, [pc, #104]	; (80010a8 <HAL_ADC_ConfigChannel+0x34c>)
 800103e:	4293      	cmp	r3, r2
 8001040:	d003      	beq.n	800104a <HAL_ADC_ConfigChannel+0x2ee>
 8001042:	f502 7200 	add.w	r2, r2, #512	; 0x200
 8001046:	4293      	cmp	r3, r2
 8001048:	d1a8      	bne.n	8000f9c <HAL_ADC_ConfigChannel+0x240>
 800104a:	68a3      	ldr	r3, [r4, #8]
 800104c:	f023 73e0 	bic.w	r3, r3, #29360128	; 0x1c00000
 8001050:	4333      	orrs	r3, r6
 8001052:	f043 7380 	orr.w	r3, r3, #16777216	; 0x1000000
 8001056:	60a3      	str	r3, [r4, #8]
 8001058:	e7a0      	b.n	8000f9c <HAL_ADC_ConfigChannel+0x240>
 800105a:	4b17      	ldr	r3, [pc, #92]	; (80010b8 <HAL_ADC_ConfigChannel+0x35c>)
 800105c:	429a      	cmp	r2, r3
 800105e:	d19d      	bne.n	8000f9c <HAL_ADC_ConfigChannel+0x240>
 8001060:	f410 0080 	ands.w	r0, r0, #4194304	; 0x400000
 8001064:	d19a      	bne.n	8000f9c <HAL_ADC_ConfigChannel+0x240>
 8001066:	682a      	ldr	r2, [r5, #0]
 8001068:	4b0f      	ldr	r3, [pc, #60]	; (80010a8 <HAL_ADC_ConfigChannel+0x34c>)
 800106a:	429a      	cmp	r2, r3
 800106c:	d196      	bne.n	8000f9c <HAL_ADC_ConfigChannel+0x240>
 800106e:	688b      	ldr	r3, [r1, #8]
 8001070:	f023 73e0 	bic.w	r3, r3, #29360128	; 0x1c00000
 8001074:	4333      	orrs	r3, r6
 8001076:	f443 0380 	orr.w	r3, r3, #4194304	; 0x400000
 800107a:	608b      	str	r3, [r1, #8]
 800107c:	e78f      	b.n	8000f9e <HAL_ADC_ConfigChannel+0x242>
 800107e:	6d6a      	ldr	r2, [r5, #84]	; 0x54
 8001080:	f042 0220 	orr.w	r2, r2, #32
 8001084:	656a      	str	r2, [r5, #84]	; 0x54
 8001086:	4618      	mov	r0, r3
 8001088:	e789      	b.n	8000f9e <HAL_ADC_ConfigChannel+0x242>
 800108a:	2002      	movs	r0, #2
 800108c:	e78a      	b.n	8000fa4 <HAL_ADC_ConfigChannel+0x248>
 800108e:	bf00      	nop
 8001090:	03fff000 	.word	0x03fff000
 8001094:	0007ffff 	.word	0x0007ffff
 8001098:	407f0000 	.word	0x407f0000
 800109c:	80080000 	.word	0x80080000
 80010a0:	50040300 	.word	0x50040300
 80010a4:	c7520000 	.word	0xc7520000
 80010a8:	50040000 	.word	0x50040000
 80010ac:	00030d40 	.word	0x00030d40
 80010b0:	20000004 	.word	0x20000004
 80010b4:	cb840000 	.word	0xcb840000
 80010b8:	80000001 	.word	0x80000001

080010bc <LL_ADC_REG_IsConversionOngoing>:
 80010bc:	6880      	ldr	r0, [r0, #8]
 80010be:	f3c0 0080 	ubfx	r0, r0, #2, #1
 80010c2:	4770      	bx	lr

080010c4 <HAL_ADCEx_MultiModeConfigChannel>:
 80010c4:	b5f0      	push	{r4, r5, r6, r7, lr}
 80010c6:	f890 3050 	ldrb.w	r3, [r0, #80]	; 0x50
 80010ca:	2b01      	cmp	r3, #1
 80010cc:	b09b      	sub	sp, #108	; 0x6c
 80010ce:	4602      	mov	r2, r0
 80010d0:	d05a      	beq.n	8001188 <HAL_ADCEx_MultiModeConfigChannel+0xc4>
 80010d2:	2301      	movs	r3, #1
 80010d4:	f880 3050 	strb.w	r3, [r0, #80]	; 0x50
 80010d8:	6817      	ldr	r7, [r2, #0]
 80010da:	4c2c      	ldr	r4, [pc, #176]	; (800118c <HAL_ADCEx_MultiModeConfigChannel+0xc8>)
 80010dc:	2000      	movs	r0, #0
 80010de:	42a7      	cmp	r7, r4
 80010e0:	9016      	str	r0, [sp, #88]	; 0x58
 80010e2:	9017      	str	r0, [sp, #92]	; 0x5c
 80010e4:	d008      	beq.n	80010f8 <HAL_ADCEx_MultiModeConfigChannel+0x34>
 80010e6:	6d51      	ldr	r1, [r2, #84]	; 0x54
 80010e8:	f882 0050 	strb.w	r0, [r2, #80]	; 0x50
 80010ec:	f041 0120 	orr.w	r1, r1, #32
 80010f0:	6551      	str	r1, [r2, #84]	; 0x54
 80010f2:	4618      	mov	r0, r3
 80010f4:	b01b      	add	sp, #108	; 0x6c
 80010f6:	bdf0      	pop	{r4, r5, r6, r7, pc}
 80010f8:	4e25      	ldr	r6, [pc, #148]	; (8001190 <HAL_ADCEx_MultiModeConfigChannel+0xcc>)
 80010fa:	4630      	mov	r0, r6
 80010fc:	f7ff ffde 	bl	80010bc <LL_ADC_REG_IsConversionOngoing>
 8001100:	4604      	mov	r4, r0
 8001102:	6810      	ldr	r0, [r2, #0]
 8001104:	f7ff ffda 	bl	80010bc <LL_ADC_REG_IsConversionOngoing>
 8001108:	4320      	orrs	r0, r4
 800110a:	d138      	bne.n	800117e <HAL_ADCEx_MultiModeConfigChannel+0xba>
 800110c:	4c21      	ldr	r4, [pc, #132]	; (8001194 <HAL_ADCEx_MultiModeConfigChannel+0xd0>)
 800110e:	680d      	ldr	r5, [r1, #0]
 8001110:	68a3      	ldr	r3, [r4, #8]
 8001112:	f8df c084 	ldr.w	ip, [pc, #132]	; 8001198 <HAL_ADCEx_MultiModeConfigChannel+0xd4>
 8001116:	f423 4360 	bic.w	r3, r3, #57344	; 0xe000
 800111a:	b1fd      	cbz	r5, 800115c <HAL_ADCEx_MultiModeConfigChannel+0x98>
 800111c:	6848      	ldr	r0, [r1, #4]
 800111e:	4303      	orrs	r3, r0
 8001120:	f892 0030 	ldrb.w	r0, [r2, #48]	; 0x30
 8001124:	ea43 3340 	orr.w	r3, r3, r0, lsl #13
 8001128:	60a3      	str	r3, [r4, #8]
 800112a:	68bf      	ldr	r7, [r7, #8]
 800112c:	68b3      	ldr	r3, [r6, #8]
 800112e:	f8dc 0008 	ldr.w	r0, [ip, #8]
 8001132:	433b      	orrs	r3, r7
 8001134:	4303      	orrs	r3, r0
 8001136:	f013 0301 	ands.w	r3, r3, #1
 800113a:	d004      	beq.n	8001146 <HAL_ADCEx_MultiModeConfigChannel+0x82>
 800113c:	2000      	movs	r0, #0
 800113e:	2300      	movs	r3, #0
 8001140:	f882 3050 	strb.w	r3, [r2, #80]	; 0x50
 8001144:	e7d6      	b.n	80010f4 <HAL_ADCEx_MultiModeConfigChannel+0x30>
 8001146:	6889      	ldr	r1, [r1, #8]
 8001148:	68a0      	ldr	r0, [r4, #8]
 800114a:	430d      	orrs	r5, r1
 800114c:	f420 6171 	bic.w	r1, r0, #3856	; 0xf10
 8001150:	f021 010f 	bic.w	r1, r1, #15
 8001154:	430d      	orrs	r5, r1
 8001156:	60a5      	str	r5, [r4, #8]
 8001158:	4618      	mov	r0, r3
 800115a:	e7f0      	b.n	800113e <HAL_ADCEx_MultiModeConfigChannel+0x7a>
 800115c:	60a3      	str	r3, [r4, #8]
 800115e:	68b9      	ldr	r1, [r7, #8]
 8001160:	68b3      	ldr	r3, [r6, #8]
 8001162:	f8dc 0008 	ldr.w	r0, [ip, #8]
 8001166:	430b      	orrs	r3, r1
 8001168:	4303      	orrs	r3, r0
 800116a:	f013 0301 	ands.w	r3, r3, #1
 800116e:	d1e5      	bne.n	800113c <HAL_ADCEx_MultiModeConfigChannel+0x78>
 8001170:	68a1      	ldr	r1, [r4, #8]
 8001172:	f421 6171 	bic.w	r1, r1, #3856	; 0xf10
 8001176:	f021 010f 	bic.w	r1, r1, #15
 800117a:	60a1      	str	r1, [r4, #8]
 800117c:	e7ec      	b.n	8001158 <HAL_ADCEx_MultiModeConfigChannel+0x94>
 800117e:	6d51      	ldr	r1, [r2, #84]	; 0x54
 8001180:	f041 0120 	orr.w	r1, r1, #32
 8001184:	6551      	str	r1, [r2, #84]	; 0x54
 8001186:	e7e7      	b.n	8001158 <HAL_ADCEx_MultiModeConfigChannel+0x94>
 8001188:	2002      	movs	r0, #2
 800118a:	e7b3      	b.n	80010f4 <HAL_ADCEx_MultiModeConfigChannel+0x30>
 800118c:	50040000 	.word	0x50040000
 8001190:	50040100 	.word	0x50040100
 8001194:	50040300 	.word	0x50040300
 8001198:	50040200 	.word	0x50040200

0800119c <HAL_NVIC_SetPriorityGrouping>:
 800119c:	4907      	ldr	r1, [pc, #28]	; (80011bc <HAL_NVIC_SetPriorityGrouping+0x20>)
 800119e:	68ca      	ldr	r2, [r1, #12]
 80011a0:	f422 62e0 	bic.w	r2, r2, #1792	; 0x700
 80011a4:	0203      	lsls	r3, r0, #8
 80011a6:	0412      	lsls	r2, r2, #16
 80011a8:	f403 63e0 	and.w	r3, r3, #1792	; 0x700
 80011ac:	0c12      	lsrs	r2, r2, #16
 80011ae:	4313      	orrs	r3, r2
 80011b0:	f043 63bf 	orr.w	r3, r3, #100139008	; 0x5f80000
 80011b4:	f443 3300 	orr.w	r3, r3, #131072	; 0x20000
 80011b8:	60cb      	str	r3, [r1, #12]
 80011ba:	4770      	bx	lr
 80011bc:	e000ed00 	.word	0xe000ed00

080011c0 <HAL_NVIC_SetPriority>:
 80011c0:	4b16      	ldr	r3, [pc, #88]	; (800121c <HAL_NVIC_SetPriority+0x5c>)
 80011c2:	b530      	push	{r4, r5, lr}
 80011c4:	68dc      	ldr	r4, [r3, #12]
 80011c6:	f3c4 2402 	ubfx	r4, r4, #8, #3
 80011ca:	f1c4 0507 	rsb	r5, r4, #7
 80011ce:	1d23      	adds	r3, r4, #4
 80011d0:	2d04      	cmp	r5, #4
 80011d2:	bf28      	it	cs
 80011d4:	2504      	movcs	r5, #4
 80011d6:	2b06      	cmp	r3, #6
 80011d8:	f04f 33ff 	mov.w	r3, #4294967295
 80011dc:	bf8c      	ite	hi
 80011de:	3c03      	subhi	r4, #3
 80011e0:	2400      	movls	r4, #0
 80011e2:	fa03 f505 	lsl.w	r5, r3, r5
 80011e6:	ea21 0105 	bic.w	r1, r1, r5
 80011ea:	40a3      	lsls	r3, r4
 80011ec:	ea22 0203 	bic.w	r2, r2, r3
 80011f0:	40a1      	lsls	r1, r4
 80011f2:	2800      	cmp	r0, #0
 80011f4:	ea41 0302 	orr.w	r3, r1, r2
 80011f8:	bfac      	ite	ge
 80011fa:	f100 4060 	addge.w	r0, r0, #3758096384	; 0xe0000000
 80011fe:	4a08      	ldrlt	r2, [pc, #32]	; (8001220 <HAL_NVIC_SetPriority+0x60>)
 8001200:	ea4f 1303 	mov.w	r3, r3, lsl #4
 8001204:	bfb8      	it	lt
 8001206:	f000 000f 	andlt.w	r0, r0, #15
 800120a:	b2db      	uxtb	r3, r3
 800120c:	bfaa      	itet	ge
 800120e:	f500 4061 	addge.w	r0, r0, #57600	; 0xe100
 8001212:	5413      	strblt	r3, [r2, r0]
 8001214:	f880 3300 	strbge.w	r3, [r0, #768]	; 0x300
 8001218:	bd30      	pop	{r4, r5, pc}
 800121a:	bf00      	nop
 800121c:	e000ed00 	.word	0xe000ed00
 8001220:	e000ed14 	.word	0xe000ed14

08001224 <HAL_NVIC_EnableIRQ>:
 8001224:	2800      	cmp	r0, #0
 8001226:	db08      	blt.n	800123a <HAL_NVIC_EnableIRQ+0x16>
 8001228:	2301      	movs	r3, #1
 800122a:	0942      	lsrs	r2, r0, #5
 800122c:	f000 001f 	and.w	r0, r0, #31
 8001230:	fa03 f000 	lsl.w	r0, r3, r0
 8001234:	4b01      	ldr	r3, [pc, #4]	; (800123c <HAL_NVIC_EnableIRQ+0x18>)
 8001236:	f843 0022 	str.w	r0, [r3, r2, lsl #2]
 800123a:	4770      	bx	lr
 800123c:	e000e100 	.word	0xe000e100

08001240 <HAL_SYSTICK_Config>:
 8001240:	3801      	subs	r0, #1
 8001242:	f1b0 7f80 	cmp.w	r0, #16777216	; 0x1000000
 8001246:	d20a      	bcs.n	800125e <HAL_SYSTICK_Config+0x1e>
 8001248:	4b06      	ldr	r3, [pc, #24]	; (8001264 <HAL_SYSTICK_Config+0x24>)
 800124a:	4a07      	ldr	r2, [pc, #28]	; (8001268 <HAL_SYSTICK_Config+0x28>)
 800124c:	6058      	str	r0, [r3, #4]
 800124e:	21f0      	movs	r1, #240	; 0xf0
 8001250:	f882 1023 	strb.w	r1, [r2, #35]	; 0x23
 8001254:	2000      	movs	r0, #0
 8001256:	2207      	movs	r2, #7
 8001258:	6098      	str	r0, [r3, #8]
 800125a:	601a      	str	r2, [r3, #0]
 800125c:	4770      	bx	lr
 800125e:	2001      	movs	r0, #1
 8001260:	4770      	bx	lr
 8001262:	bf00      	nop
 8001264:	e000e010 	.word	0xe000e010
 8001268:	e000ed00 	.word	0xe000ed00

0800126c <HAL_DMA_Init>:
 800126c:	b530      	push	{r4, r5, lr}
 800126e:	2800      	cmp	r0, #0
 8001270:	d058      	beq.n	8001324 <HAL_DMA_Init+0xb8>
 8001272:	6801      	ldr	r1, [r0, #0]
 8001274:	4b2c      	ldr	r3, [pc, #176]	; (8001328 <HAL_DMA_Init+0xbc>)
 8001276:	4299      	cmp	r1, r3
 8001278:	f04f 0414 	mov.w	r4, #20
 800127c:	d842      	bhi.n	8001304 <HAL_DMA_Init+0x98>
 800127e:	4a2b      	ldr	r2, [pc, #172]	; (800132c <HAL_DMA_Init+0xc0>)
 8001280:	440a      	add	r2, r1
 8001282:	fbb2 f2f4 	udiv	r2, r2, r4
 8001286:	0092      	lsls	r2, r2, #2
 8001288:	6442      	str	r2, [r0, #68]	; 0x44
 800128a:	f2a3 4307 	subw	r3, r3, #1031	; 0x407
 800128e:	6403      	str	r3, [r0, #64]	; 0x40
 8001290:	2302      	movs	r3, #2
 8001292:	f880 3025 	strb.w	r3, [r0, #37]	; 0x25
 8001296:	e9d0 4302 	ldrd	r4, r3, [r0, #8]
 800129a:	6905      	ldr	r5, [r0, #16]
 800129c:	680a      	ldr	r2, [r1, #0]
 800129e:	4323      	orrs	r3, r4
 80012a0:	432b      	orrs	r3, r5
 80012a2:	6945      	ldr	r5, [r0, #20]
 80012a4:	432b      	orrs	r3, r5
 80012a6:	6985      	ldr	r5, [r0, #24]
 80012a8:	432b      	orrs	r3, r5
 80012aa:	69c5      	ldr	r5, [r0, #28]
 80012ac:	432b      	orrs	r3, r5
 80012ae:	6a05      	ldr	r5, [r0, #32]
 80012b0:	f422 42ff 	bic.w	r2, r2, #32640	; 0x7f80
 80012b4:	f022 0270 	bic.w	r2, r2, #112	; 0x70
 80012b8:	432b      	orrs	r3, r5
 80012ba:	4313      	orrs	r3, r2
 80012bc:	f5b4 4f80 	cmp.w	r4, #16384	; 0x4000
 80012c0:	600b      	str	r3, [r1, #0]
 80012c2:	d016      	beq.n	80012f2 <HAL_DMA_Init+0x86>
 80012c4:	6c41      	ldr	r1, [r0, #68]	; 0x44
 80012c6:	6c04      	ldr	r4, [r0, #64]	; 0x40
 80012c8:	f001 021c 	and.w	r2, r1, #28
 80012cc:	6841      	ldr	r1, [r0, #4]
 80012ce:	230f      	movs	r3, #15
 80012d0:	4093      	lsls	r3, r2
 80012d2:	4091      	lsls	r1, r2
 80012d4:	4a16      	ldr	r2, [pc, #88]	; (8001330 <HAL_DMA_Init+0xc4>)
 80012d6:	4294      	cmp	r4, r2
 80012d8:	ea6f 0303 	mvn.w	r3, r3
 80012dc:	d11a      	bne.n	8001314 <HAL_DMA_Init+0xa8>
 80012de:	f8d2 40a8 	ldr.w	r4, [r2, #168]	; 0xa8
 80012e2:	4023      	ands	r3, r4
 80012e4:	f8c2 30a8 	str.w	r3, [r2, #168]	; 0xa8
 80012e8:	f8d2 30a8 	ldr.w	r3, [r2, #168]	; 0xa8
 80012ec:	4319      	orrs	r1, r3
 80012ee:	f8c2 10a8 	str.w	r1, [r2, #168]	; 0xa8
 80012f2:	2300      	movs	r3, #0
 80012f4:	2201      	movs	r2, #1
 80012f6:	63c3      	str	r3, [r0, #60]	; 0x3c
 80012f8:	f880 3024 	strb.w	r3, [r0, #36]	; 0x24
 80012fc:	f880 2025 	strb.w	r2, [r0, #37]	; 0x25
 8001300:	4618      	mov	r0, r3
 8001302:	bd30      	pop	{r4, r5, pc}
 8001304:	4b0b      	ldr	r3, [pc, #44]	; (8001334 <HAL_DMA_Init+0xc8>)
 8001306:	440b      	add	r3, r1
 8001308:	fbb3 f3f4 	udiv	r3, r3, r4
 800130c:	009b      	lsls	r3, r3, #2
 800130e:	6443      	str	r3, [r0, #68]	; 0x44
 8001310:	4b09      	ldr	r3, [pc, #36]	; (8001338 <HAL_DMA_Init+0xcc>)
 8001312:	e7bc      	b.n	800128e <HAL_DMA_Init+0x22>
 8001314:	4a09      	ldr	r2, [pc, #36]	; (800133c <HAL_DMA_Init+0xd0>)
 8001316:	6814      	ldr	r4, [r2, #0]
 8001318:	4023      	ands	r3, r4
 800131a:	6013      	str	r3, [r2, #0]
 800131c:	6813      	ldr	r3, [r2, #0]
 800131e:	4319      	orrs	r1, r3
 8001320:	6011      	str	r1, [r2, #0]
 8001322:	e7e6      	b.n	80012f2 <HAL_DMA_Init+0x86>
 8001324:	2001      	movs	r0, #1
 8001326:	e7ec      	b.n	8001302 <HAL_DMA_Init+0x96>
 8001328:	40020407 	.word	0x40020407
 800132c:	bffdfff8 	.word	0xbffdfff8
 8001330:	40020000 	.word	0x40020000
 8001334:	bffdfbf8 	.word	0xbffdfbf8
 8001338:	40020400 	.word	0x40020400
 800133c:	400204a8 	.word	0x400204a8

08001340 <HAL_DMA_IRQHandler>:
 8001340:	6c01      	ldr	r1, [r0, #64]	; 0x40
 8001342:	6c42      	ldr	r2, [r0, #68]	; 0x44
 8001344:	6803      	ldr	r3, [r0, #0]
 8001346:	b470      	push	{r4, r5, r6}
 8001348:	f002 021c 	and.w	r2, r2, #28
 800134c:	680e      	ldr	r6, [r1, #0]
 800134e:	681d      	ldr	r5, [r3, #0]
 8001350:	2404      	movs	r4, #4
 8001352:	4094      	lsls	r4, r2
 8001354:	4234      	tst	r4, r6
 8001356:	d00e      	beq.n	8001376 <HAL_DMA_IRQHandler+0x36>
 8001358:	f015 0f04 	tst.w	r5, #4
 800135c:	d00b      	beq.n	8001376 <HAL_DMA_IRQHandler+0x36>
 800135e:	681a      	ldr	r2, [r3, #0]
 8001360:	0692      	lsls	r2, r2, #26
 8001362:	bf5e      	ittt	pl
 8001364:	681a      	ldrpl	r2, [r3, #0]
 8001366:	f022 0204 	bicpl.w	r2, r2, #4
 800136a:	601a      	strpl	r2, [r3, #0]
 800136c:	6b03      	ldr	r3, [r0, #48]	; 0x30
 800136e:	604c      	str	r4, [r1, #4]
 8001370:	b373      	cbz	r3, 80013d0 <HAL_DMA_IRQHandler+0x90>
 8001372:	bc70      	pop	{r4, r5, r6}
 8001374:	4718      	bx	r3
 8001376:	2402      	movs	r4, #2
 8001378:	4094      	lsls	r4, r2
 800137a:	4234      	tst	r4, r6
 800137c:	d012      	beq.n	80013a4 <HAL_DMA_IRQHandler+0x64>
 800137e:	f015 0f02 	tst.w	r5, #2
 8001382:	d00f      	beq.n	80013a4 <HAL_DMA_IRQHandler+0x64>
 8001384:	681a      	ldr	r2, [r3, #0]
 8001386:	0695      	lsls	r5, r2, #26
 8001388:	d406      	bmi.n	8001398 <HAL_DMA_IRQHandler+0x58>
 800138a:	681a      	ldr	r2, [r3, #0]
 800138c:	f022 020a 	bic.w	r2, r2, #10
 8001390:	601a      	str	r2, [r3, #0]
 8001392:	2301      	movs	r3, #1
 8001394:	f880 3025 	strb.w	r3, [r0, #37]	; 0x25
 8001398:	2300      	movs	r3, #0
 800139a:	604c      	str	r4, [r1, #4]
 800139c:	f880 3024 	strb.w	r3, [r0, #36]	; 0x24
 80013a0:	6ac3      	ldr	r3, [r0, #44]	; 0x2c
 80013a2:	e7e5      	b.n	8001370 <HAL_DMA_IRQHandler+0x30>
 80013a4:	2408      	movs	r4, #8
 80013a6:	4094      	lsls	r4, r2
 80013a8:	4234      	tst	r4, r6
 80013aa:	d011      	beq.n	80013d0 <HAL_DMA_IRQHandler+0x90>
 80013ac:	072c      	lsls	r4, r5, #28
 80013ae:	d50f      	bpl.n	80013d0 <HAL_DMA_IRQHandler+0x90>
 80013b0:	681c      	ldr	r4, [r3, #0]
 80013b2:	f024 040e 	bic.w	r4, r4, #14
 80013b6:	601c      	str	r4, [r3, #0]
 80013b8:	2301      	movs	r3, #1
 80013ba:	fa03 f202 	lsl.w	r2, r3, r2
 80013be:	604a      	str	r2, [r1, #4]
 80013c0:	63c3      	str	r3, [r0, #60]	; 0x3c
 80013c2:	f880 3025 	strb.w	r3, [r0, #37]	; 0x25
 80013c6:	2300      	movs	r3, #0
 80013c8:	f880 3024 	strb.w	r3, [r0, #36]	; 0x24
 80013cc:	6b43      	ldr	r3, [r0, #52]	; 0x34
 80013ce:	e7cf      	b.n	8001370 <HAL_DMA_IRQHandler+0x30>
 80013d0:	bc70      	pop	{r4, r5, r6}
 80013d2:	4770      	bx	lr

080013d4 <HAL_GPIO_Init>:
 80013d4:	e92d 4ff7 	stmdb	sp!, {r0, r1, r2, r4, r5, r6, r7, r8, r9, sl, fp, lr}
 80013d8:	f8df 91b0 	ldr.w	r9, [pc, #432]	; 800158c <HAL_GPIO_Init+0x1b8>
 80013dc:	4d69      	ldr	r5, [pc, #420]	; (8001584 <HAL_GPIO_Init+0x1b0>)
 80013de:	2300      	movs	r3, #0
 80013e0:	680a      	ldr	r2, [r1, #0]
 80013e2:	fa32 f403 	lsrs.w	r4, r2, r3
 80013e6:	d102      	bne.n	80013ee <HAL_GPIO_Init+0x1a>
 80013e8:	b003      	add	sp, #12
 80013ea:	e8bd 8ff0 	ldmia.w	sp!, {r4, r5, r6, r7, r8, r9, sl, fp, pc}
 80013ee:	f04f 0a01 	mov.w	sl, #1
 80013f2:	fa0a fa03 	lsl.w	sl, sl, r3
 80013f6:	ea1a 0202 	ands.w	r2, sl, r2
 80013fa:	f000 80b4 	beq.w	8001566 <HAL_GPIO_Init+0x192>
 80013fe:	684c      	ldr	r4, [r1, #4]
 8001400:	f024 0e10 	bic.w	lr, r4, #16
 8001404:	ea4f 0843 	mov.w	r8, r3, lsl #1
 8001408:	2603      	movs	r6, #3
 800140a:	f10e 37ff 	add.w	r7, lr, #4294967295
 800140e:	fa06 f608 	lsl.w	r6, r6, r8
 8001412:	2f01      	cmp	r7, #1
 8001414:	ea6f 0606 	mvn.w	r6, r6
 8001418:	d811      	bhi.n	800143e <HAL_GPIO_Init+0x6a>
 800141a:	6887      	ldr	r7, [r0, #8]
 800141c:	ea07 0c06 	and.w	ip, r7, r6
 8001420:	68cf      	ldr	r7, [r1, #12]
 8001422:	fa07 f708 	lsl.w	r7, r7, r8
 8001426:	ea47 070c 	orr.w	r7, r7, ip
 800142a:	6087      	str	r7, [r0, #8]
 800142c:	6847      	ldr	r7, [r0, #4]
 800142e:	ea27 0c0a 	bic.w	ip, r7, sl
 8001432:	f3c4 1700 	ubfx	r7, r4, #4, #1
 8001436:	409f      	lsls	r7, r3
 8001438:	ea47 070c 	orr.w	r7, r7, ip
 800143c:	6047      	str	r7, [r0, #4]
 800143e:	f004 0c03 	and.w	ip, r4, #3
 8001442:	f1bc 0f03 	cmp.w	ip, #3
 8001446:	d108      	bne.n	800145a <HAL_GPIO_Init+0x86>
 8001448:	6ac7      	ldr	r7, [r0, #44]	; 0x2c
 800144a:	ea27 0a0a 	bic.w	sl, r7, sl
 800144e:	f3c4 07c0 	ubfx	r7, r4, #3, #1
 8001452:	409f      	lsls	r7, r3
 8001454:	ea47 070a 	orr.w	r7, r7, sl
 8001458:	62c7      	str	r7, [r0, #44]	; 0x2c
 800145a:	68c7      	ldr	r7, [r0, #12]
 800145c:	ea07 0a06 	and.w	sl, r7, r6
 8001460:	688f      	ldr	r7, [r1, #8]
 8001462:	fa07 f708 	lsl.w	r7, r7, r8
 8001466:	ea47 070a 	orr.w	r7, r7, sl
 800146a:	f1be 0f02 	cmp.w	lr, #2
 800146e:	60c7      	str	r7, [r0, #12]
 8001470:	d116      	bne.n	80014a0 <HAL_GPIO_Init+0xcc>
 8001472:	ea4f 0ad3 	mov.w	sl, r3, lsr #3
 8001476:	eb00 0a8a 	add.w	sl, r0, sl, lsl #2
 800147a:	f003 0b07 	and.w	fp, r3, #7
 800147e:	f8da 7020 	ldr.w	r7, [sl, #32]
 8001482:	ea4f 0b8b 	mov.w	fp, fp, lsl #2
 8001486:	f04f 0e0f 	mov.w	lr, #15
 800148a:	fa0e fe0b 	lsl.w	lr, lr, fp
 800148e:	ea27 0e0e 	bic.w	lr, r7, lr
 8001492:	690f      	ldr	r7, [r1, #16]
 8001494:	fa07 f70b 	lsl.w	r7, r7, fp
 8001498:	ea47 070e 	orr.w	r7, r7, lr
 800149c:	f8ca 7020 	str.w	r7, [sl, #32]
 80014a0:	6807      	ldr	r7, [r0, #0]
 80014a2:	fa0c fc08 	lsl.w	ip, ip, r8
 80014a6:	403e      	ands	r6, r7
 80014a8:	ea4c 0606 	orr.w	r6, ip, r6
 80014ac:	6006      	str	r6, [r0, #0]
 80014ae:	00e6      	lsls	r6, r4, #3
 80014b0:	d559      	bpl.n	8001566 <HAL_GPIO_Init+0x192>
 80014b2:	f8d9 6060 	ldr.w	r6, [r9, #96]	; 0x60
 80014b6:	f046 0601 	orr.w	r6, r6, #1
 80014ba:	f8c9 6060 	str.w	r6, [r9, #96]	; 0x60
 80014be:	f8d9 6060 	ldr.w	r6, [r9, #96]	; 0x60
 80014c2:	f023 0703 	bic.w	r7, r3, #3
 80014c6:	f107 4780 	add.w	r7, r7, #1073741824	; 0x40000000
 80014ca:	f006 0601 	and.w	r6, r6, #1
 80014ce:	f507 3780 	add.w	r7, r7, #65536	; 0x10000
 80014d2:	9601      	str	r6, [sp, #4]
 80014d4:	f003 0e03 	and.w	lr, r3, #3
 80014d8:	9e01      	ldr	r6, [sp, #4]
 80014da:	68be      	ldr	r6, [r7, #8]
 80014dc:	ea4f 0e8e 	mov.w	lr, lr, lsl #2
 80014e0:	f04f 0c0f 	mov.w	ip, #15
 80014e4:	fa0c fc0e 	lsl.w	ip, ip, lr
 80014e8:	f1b0 4f90 	cmp.w	r0, #1207959552	; 0x48000000
 80014ec:	ea26 0c0c 	bic.w	ip, r6, ip
 80014f0:	d03b      	beq.n	800156a <HAL_GPIO_Init+0x196>
 80014f2:	4e25      	ldr	r6, [pc, #148]	; (8001588 <HAL_GPIO_Init+0x1b4>)
 80014f4:	42b0      	cmp	r0, r6
 80014f6:	d03a      	beq.n	800156e <HAL_GPIO_Init+0x19a>
 80014f8:	f506 6680 	add.w	r6, r6, #1024	; 0x400
 80014fc:	42b0      	cmp	r0, r6
 80014fe:	d038      	beq.n	8001572 <HAL_GPIO_Init+0x19e>
 8001500:	f506 6680 	add.w	r6, r6, #1024	; 0x400
 8001504:	42b0      	cmp	r0, r6
 8001506:	d036      	beq.n	8001576 <HAL_GPIO_Init+0x1a2>
 8001508:	f506 6680 	add.w	r6, r6, #1024	; 0x400
 800150c:	42b0      	cmp	r0, r6
 800150e:	d034      	beq.n	800157a <HAL_GPIO_Init+0x1a6>
 8001510:	f506 6680 	add.w	r6, r6, #1024	; 0x400
 8001514:	42b0      	cmp	r0, r6
 8001516:	d032      	beq.n	800157e <HAL_GPIO_Init+0x1aa>
 8001518:	f506 6680 	add.w	r6, r6, #1024	; 0x400
 800151c:	42b0      	cmp	r0, r6
 800151e:	bf0c      	ite	eq
 8001520:	2606      	moveq	r6, #6
 8001522:	2607      	movne	r6, #7
 8001524:	fa06 f60e 	lsl.w	r6, r6, lr
 8001528:	ea46 060c 	orr.w	r6, r6, ip
 800152c:	60be      	str	r6, [r7, #8]
 800152e:	682e      	ldr	r6, [r5, #0]
 8001530:	43d7      	mvns	r7, r2
 8001532:	f414 3f80 	tst.w	r4, #65536	; 0x10000
 8001536:	bf0c      	ite	eq
 8001538:	403e      	andeq	r6, r7
 800153a:	4316      	orrne	r6, r2
 800153c:	602e      	str	r6, [r5, #0]
 800153e:	686e      	ldr	r6, [r5, #4]
 8001540:	f414 3f00 	tst.w	r4, #131072	; 0x20000
 8001544:	bf0c      	ite	eq
 8001546:	403e      	andeq	r6, r7
 8001548:	4316      	orrne	r6, r2
 800154a:	606e      	str	r6, [r5, #4]
 800154c:	68ae      	ldr	r6, [r5, #8]
 800154e:	f414 1f80 	tst.w	r4, #1048576	; 0x100000
 8001552:	bf0c      	ite	eq
 8001554:	403e      	andeq	r6, r7
 8001556:	4316      	orrne	r6, r2
 8001558:	60ae      	str	r6, [r5, #8]
 800155a:	68ee      	ldr	r6, [r5, #12]
 800155c:	02a4      	lsls	r4, r4, #10
 800155e:	bf54      	ite	pl
 8001560:	403e      	andpl	r6, r7
 8001562:	4316      	orrmi	r6, r2
 8001564:	60ee      	str	r6, [r5, #12]
 8001566:	3301      	adds	r3, #1
 8001568:	e73a      	b.n	80013e0 <HAL_GPIO_Init+0xc>
 800156a:	2600      	movs	r6, #0
 800156c:	e7da      	b.n	8001524 <HAL_GPIO_Init+0x150>
 800156e:	2601      	movs	r6, #1
 8001570:	e7d8      	b.n	8001524 <HAL_GPIO_Init+0x150>
 8001572:	2602      	movs	r6, #2
 8001574:	e7d6      	b.n	8001524 <HAL_GPIO_Init+0x150>
 8001576:	2603      	movs	r6, #3
 8001578:	e7d4      	b.n	8001524 <HAL_GPIO_Init+0x150>
 800157a:	2604      	movs	r6, #4
 800157c:	e7d2      	b.n	8001524 <HAL_GPIO_Init+0x150>
 800157e:	2605      	movs	r6, #5
 8001580:	e7d0      	b.n	8001524 <HAL_GPIO_Init+0x150>
 8001582:	bf00      	nop
 8001584:	40010400 	.word	0x40010400
 8001588:	48000400 	.word	0x48000400
 800158c:	40021000 	.word	0x40021000

08001590 <HAL_GPIO_WritePin>:
 8001590:	b10a      	cbz	r2, 8001596 <HAL_GPIO_WritePin+0x6>
 8001592:	6181      	str	r1, [r0, #24]
 8001594:	4770      	bx	lr
 8001596:	6281      	str	r1, [r0, #40]	; 0x28
 8001598:	4770      	bx	lr
	...

0800159c <HAL_PWREx_GetVoltageRange>:
 800159c:	4b02      	ldr	r3, [pc, #8]	; (80015a8 <HAL_PWREx_GetVoltageRange+0xc>)
 800159e:	6818      	ldr	r0, [r3, #0]
 80015a0:	f400 60c0 	and.w	r0, r0, #1536	; 0x600
 80015a4:	4770      	bx	lr
 80015a6:	bf00      	nop
 80015a8:	40007000 	.word	0x40007000

080015ac <HAL_PWREx_ControlVoltageScaling>:
 80015ac:	4b17      	ldr	r3, [pc, #92]	; (800160c <HAL_PWREx_ControlVoltageScaling+0x60>)
 80015ae:	681a      	ldr	r2, [r3, #0]
 80015b0:	f5b0 7f00 	cmp.w	r0, #512	; 0x200
 80015b4:	f402 62c0 	and.w	r2, r2, #1536	; 0x600
 80015b8:	d11e      	bne.n	80015f8 <HAL_PWREx_ControlVoltageScaling+0x4c>
 80015ba:	f5b2 7f00 	cmp.w	r2, #512	; 0x200
 80015be:	d101      	bne.n	80015c4 <HAL_PWREx_ControlVoltageScaling+0x18>
 80015c0:	2000      	movs	r0, #0
 80015c2:	4770      	bx	lr
 80015c4:	681a      	ldr	r2, [r3, #0]
 80015c6:	f422 62c0 	bic.w	r2, r2, #1536	; 0x600
 80015ca:	f442 7200 	orr.w	r2, r2, #512	; 0x200
 80015ce:	601a      	str	r2, [r3, #0]
 80015d0:	4a0f      	ldr	r2, [pc, #60]	; (8001610 <HAL_PWREx_ControlVoltageScaling+0x64>)
 80015d2:	6811      	ldr	r1, [r2, #0]
 80015d4:	2232      	movs	r2, #50	; 0x32
 80015d6:	434a      	muls	r2, r1
 80015d8:	490e      	ldr	r1, [pc, #56]	; (8001614 <HAL_PWREx_ControlVoltageScaling+0x68>)
 80015da:	fbb2 f2f1 	udiv	r2, r2, r1
 80015de:	4619      	mov	r1, r3
 80015e0:	3201      	adds	r2, #1
 80015e2:	6958      	ldr	r0, [r3, #20]
 80015e4:	0540      	lsls	r0, r0, #21
 80015e6:	d500      	bpl.n	80015ea <HAL_PWREx_ControlVoltageScaling+0x3e>
 80015e8:	b922      	cbnz	r2, 80015f4 <HAL_PWREx_ControlVoltageScaling+0x48>
 80015ea:	694b      	ldr	r3, [r1, #20]
 80015ec:	055b      	lsls	r3, r3, #21
 80015ee:	d5e7      	bpl.n	80015c0 <HAL_PWREx_ControlVoltageScaling+0x14>
 80015f0:	2003      	movs	r0, #3
 80015f2:	4770      	bx	lr
 80015f4:	3a01      	subs	r2, #1
 80015f6:	e7f4      	b.n	80015e2 <HAL_PWREx_ControlVoltageScaling+0x36>
 80015f8:	f5b2 6f80 	cmp.w	r2, #1024	; 0x400
 80015fc:	bf1f      	itttt	ne
 80015fe:	681a      	ldrne	r2, [r3, #0]
 8001600:	f422 62c0 	bicne.w	r2, r2, #1536	; 0x600
 8001604:	f442 6280 	orrne.w	r2, r2, #1024	; 0x400
 8001608:	601a      	strne	r2, [r3, #0]
 800160a:	e7d9      	b.n	80015c0 <HAL_PWREx_ControlVoltageScaling+0x14>
 800160c:	40007000 	.word	0x40007000
 8001610:	20000004 	.word	0x20000004
 8001614:	000f4240 	.word	0x000f4240

08001618 <RCC_SetFlashLatencyFromMSIRange>:
 8001618:	b537      	push	{r0, r1, r2, r4, r5, lr}
 800161a:	4d1e      	ldr	r5, [pc, #120]	; (8001694 <RCC_SetFlashLatencyFromMSIRange+0x7c>)
 800161c:	6dab      	ldr	r3, [r5, #88]	; 0x58
 800161e:	00da      	lsls	r2, r3, #3
 8001620:	4604      	mov	r4, r0
 8001622:	d518      	bpl.n	8001656 <RCC_SetFlashLatencyFromMSIRange+0x3e>
 8001624:	f7ff ffba 	bl	800159c <HAL_PWREx_GetVoltageRange>
 8001628:	f5b0 7f00 	cmp.w	r0, #512	; 0x200
 800162c:	d123      	bne.n	8001676 <RCC_SetFlashLatencyFromMSIRange+0x5e>
 800162e:	2c80      	cmp	r4, #128	; 0x80
 8001630:	d929      	bls.n	8001686 <RCC_SetFlashLatencyFromMSIRange+0x6e>
 8001632:	2ca0      	cmp	r4, #160	; 0xa0
 8001634:	bf8c      	ite	hi
 8001636:	2402      	movhi	r4, #2
 8001638:	2401      	movls	r4, #1
 800163a:	4917      	ldr	r1, [pc, #92]	; (8001698 <RCC_SetFlashLatencyFromMSIRange+0x80>)
 800163c:	680a      	ldr	r2, [r1, #0]
 800163e:	f022 0207 	bic.w	r2, r2, #7
 8001642:	4322      	orrs	r2, r4
 8001644:	600a      	str	r2, [r1, #0]
 8001646:	6808      	ldr	r0, [r1, #0]
 8001648:	f000 0007 	and.w	r0, r0, #7
 800164c:	1b00      	subs	r0, r0, r4
 800164e:	bf18      	it	ne
 8001650:	2001      	movne	r0, #1
 8001652:	b003      	add	sp, #12
 8001654:	bd30      	pop	{r4, r5, pc}
 8001656:	6dab      	ldr	r3, [r5, #88]	; 0x58
 8001658:	f043 5380 	orr.w	r3, r3, #268435456	; 0x10000000
 800165c:	65ab      	str	r3, [r5, #88]	; 0x58
 800165e:	6dab      	ldr	r3, [r5, #88]	; 0x58
 8001660:	f003 5380 	and.w	r3, r3, #268435456	; 0x10000000
 8001664:	9301      	str	r3, [sp, #4]
 8001666:	9b01      	ldr	r3, [sp, #4]
 8001668:	f7ff ff98 	bl	800159c <HAL_PWREx_GetVoltageRange>
 800166c:	6dab      	ldr	r3, [r5, #88]	; 0x58
 800166e:	f023 5380 	bic.w	r3, r3, #268435456	; 0x10000000
 8001672:	65ab      	str	r3, [r5, #88]	; 0x58
 8001674:	e7d8      	b.n	8001628 <RCC_SetFlashLatencyFromMSIRange+0x10>
 8001676:	2c80      	cmp	r4, #128	; 0x80
 8001678:	d807      	bhi.n	800168a <RCC_SetFlashLatencyFromMSIRange+0x72>
 800167a:	d008      	beq.n	800168e <RCC_SetFlashLatencyFromMSIRange+0x76>
 800167c:	f1a4 0370 	sub.w	r3, r4, #112	; 0x70
 8001680:	425c      	negs	r4, r3
 8001682:	415c      	adcs	r4, r3
 8001684:	e7d9      	b.n	800163a <RCC_SetFlashLatencyFromMSIRange+0x22>
 8001686:	2400      	movs	r4, #0
 8001688:	e7d7      	b.n	800163a <RCC_SetFlashLatencyFromMSIRange+0x22>
 800168a:	2403      	movs	r4, #3
 800168c:	e7d5      	b.n	800163a <RCC_SetFlashLatencyFromMSIRange+0x22>
 800168e:	2402      	movs	r4, #2
 8001690:	e7d3      	b.n	800163a <RCC_SetFlashLatencyFromMSIRange+0x22>
 8001692:	bf00      	nop
 8001694:	40021000 	.word	0x40021000
 8001698:	40022000 	.word	0x40022000

0800169c <HAL_RCC_GetSysClockFreq>:
 800169c:	4b22      	ldr	r3, [pc, #136]	; (8001728 <HAL_RCC_GetSysClockFreq+0x8c>)
 800169e:	689a      	ldr	r2, [r3, #8]
 80016a0:	68d9      	ldr	r1, [r3, #12]
 80016a2:	f012 020c 	ands.w	r2, r2, #12
 80016a6:	d005      	beq.n	80016b4 <HAL_RCC_GetSysClockFreq+0x18>
 80016a8:	2a0c      	cmp	r2, #12
 80016aa:	d115      	bne.n	80016d8 <HAL_RCC_GetSysClockFreq+0x3c>
 80016ac:	f001 0103 	and.w	r1, r1, #3
 80016b0:	2901      	cmp	r1, #1
 80016b2:	d118      	bne.n	80016e6 <HAL_RCC_GetSysClockFreq+0x4a>
 80016b4:	6819      	ldr	r1, [r3, #0]
 80016b6:	481d      	ldr	r0, [pc, #116]	; (800172c <HAL_RCC_GetSysClockFreq+0x90>)
 80016b8:	0709      	lsls	r1, r1, #28
 80016ba:	bf55      	itete	pl
 80016bc:	f8d3 1094 	ldrpl.w	r1, [r3, #148]	; 0x94
 80016c0:	6819      	ldrmi	r1, [r3, #0]
 80016c2:	f3c1 2103 	ubfxpl	r1, r1, #8, #4
 80016c6:	f3c1 1103 	ubfxmi	r1, r1, #4, #4
 80016ca:	f850 0021 	ldr.w	r0, [r0, r1, lsl #2]
 80016ce:	b34a      	cbz	r2, 8001724 <HAL_RCC_GetSysClockFreq+0x88>
 80016d0:	2a0c      	cmp	r2, #12
 80016d2:	d009      	beq.n	80016e8 <HAL_RCC_GetSysClockFreq+0x4c>
 80016d4:	2000      	movs	r0, #0
 80016d6:	4770      	bx	lr
 80016d8:	2a04      	cmp	r2, #4
 80016da:	d022      	beq.n	8001722 <HAL_RCC_GetSysClockFreq+0x86>
 80016dc:	2a08      	cmp	r2, #8
 80016de:	4814      	ldr	r0, [pc, #80]	; (8001730 <HAL_RCC_GetSysClockFreq+0x94>)
 80016e0:	bf18      	it	ne
 80016e2:	2000      	movne	r0, #0
 80016e4:	4770      	bx	lr
 80016e6:	2000      	movs	r0, #0
 80016e8:	68da      	ldr	r2, [r3, #12]
 80016ea:	f002 0203 	and.w	r2, r2, #3
 80016ee:	2a02      	cmp	r2, #2
 80016f0:	d015      	beq.n	800171e <HAL_RCC_GetSysClockFreq+0x82>
 80016f2:	490f      	ldr	r1, [pc, #60]	; (8001730 <HAL_RCC_GetSysClockFreq+0x94>)
 80016f4:	2a03      	cmp	r2, #3
 80016f6:	bf08      	it	eq
 80016f8:	4608      	moveq	r0, r1
 80016fa:	68da      	ldr	r2, [r3, #12]
 80016fc:	68d9      	ldr	r1, [r3, #12]
 80016fe:	68db      	ldr	r3, [r3, #12]
 8001700:	f3c3 6341 	ubfx	r3, r3, #25, #2
 8001704:	f3c1 2106 	ubfx	r1, r1, #8, #7
 8001708:	f3c2 1202 	ubfx	r2, r2, #4, #3
 800170c:	3301      	adds	r3, #1
 800170e:	4348      	muls	r0, r1
 8001710:	3201      	adds	r2, #1
 8001712:	005b      	lsls	r3, r3, #1
 8001714:	fbb0 f0f2 	udiv	r0, r0, r2
 8001718:	fbb0 f0f3 	udiv	r0, r0, r3
 800171c:	4770      	bx	lr
 800171e:	4805      	ldr	r0, [pc, #20]	; (8001734 <HAL_RCC_GetSysClockFreq+0x98>)
 8001720:	e7eb      	b.n	80016fa <HAL_RCC_GetSysClockFreq+0x5e>
 8001722:	4804      	ldr	r0, [pc, #16]	; (8001734 <HAL_RCC_GetSysClockFreq+0x98>)
 8001724:	4770      	bx	lr
 8001726:	bf00      	nop
 8001728:	40021000 	.word	0x40021000
 800172c:	08002b98 	.word	0x08002b98
 8001730:	007a1200 	.word	0x007a1200
 8001734:	00f42400 	.word	0x00f42400

08001738 <HAL_RCC_OscConfig>:
 8001738:	e92d 43f7 	stmdb	sp!, {r0, r1, r2, r4, r5, r6, r7, r8, r9, lr}
 800173c:	4605      	mov	r5, r0
 800173e:	b918      	cbnz	r0, 8001748 <HAL_RCC_OscConfig+0x10>
 8001740:	2001      	movs	r0, #1
 8001742:	b003      	add	sp, #12
 8001744:	e8bd 83f0 	ldmia.w	sp!, {r4, r5, r6, r7, r8, r9, pc}
 8001748:	4ca7      	ldr	r4, [pc, #668]	; (80019e8 <HAL_RCC_OscConfig+0x2b0>)
 800174a:	6803      	ldr	r3, [r0, #0]
 800174c:	68a6      	ldr	r6, [r4, #8]
 800174e:	68e7      	ldr	r7, [r4, #12]
 8001750:	06d8      	lsls	r0, r3, #27
 8001752:	f006 060c 	and.w	r6, r6, #12
 8001756:	f007 0703 	and.w	r7, r7, #3
 800175a:	d53d      	bpl.n	80017d8 <HAL_RCC_OscConfig+0xa0>
 800175c:	b11e      	cbz	r6, 8001766 <HAL_RCC_OscConfig+0x2e>
 800175e:	2e0c      	cmp	r6, #12
 8001760:	d166      	bne.n	8001830 <HAL_RCC_OscConfig+0xf8>
 8001762:	2f01      	cmp	r7, #1
 8001764:	d164      	bne.n	8001830 <HAL_RCC_OscConfig+0xf8>
 8001766:	6823      	ldr	r3, [r4, #0]
 8001768:	0799      	lsls	r1, r3, #30
 800176a:	d502      	bpl.n	8001772 <HAL_RCC_OscConfig+0x3a>
 800176c:	69ab      	ldr	r3, [r5, #24]
 800176e:	2b00      	cmp	r3, #0
 8001770:	d0e6      	beq.n	8001740 <HAL_RCC_OscConfig+0x8>
 8001772:	6823      	ldr	r3, [r4, #0]
 8001774:	6a28      	ldr	r0, [r5, #32]
 8001776:	071a      	lsls	r2, r3, #28
 8001778:	bf56      	itet	pl
 800177a:	f8d4 3094 	ldrpl.w	r3, [r4, #148]	; 0x94
 800177e:	6823      	ldrmi	r3, [r4, #0]
 8001780:	091b      	lsrpl	r3, r3, #4
 8001782:	f003 03f0 	and.w	r3, r3, #240	; 0xf0
 8001786:	4298      	cmp	r0, r3
 8001788:	d93b      	bls.n	8001802 <HAL_RCC_OscConfig+0xca>
 800178a:	f7ff ff45 	bl	8001618 <RCC_SetFlashLatencyFromMSIRange>
 800178e:	2800      	cmp	r0, #0
 8001790:	d1d6      	bne.n	8001740 <HAL_RCC_OscConfig+0x8>
 8001792:	6823      	ldr	r3, [r4, #0]
 8001794:	f043 0308 	orr.w	r3, r3, #8
 8001798:	6023      	str	r3, [r4, #0]
 800179a:	6823      	ldr	r3, [r4, #0]
 800179c:	6a2a      	ldr	r2, [r5, #32]
 800179e:	f023 03f0 	bic.w	r3, r3, #240	; 0xf0
 80017a2:	4313      	orrs	r3, r2
 80017a4:	6023      	str	r3, [r4, #0]
 80017a6:	6863      	ldr	r3, [r4, #4]
 80017a8:	69ea      	ldr	r2, [r5, #28]
 80017aa:	f423 437f 	bic.w	r3, r3, #65280	; 0xff00
 80017ae:	ea43 2302 	orr.w	r3, r3, r2, lsl #8
 80017b2:	6063      	str	r3, [r4, #4]
 80017b4:	f7ff ff72 	bl	800169c <HAL_RCC_GetSysClockFreq>
 80017b8:	68a3      	ldr	r3, [r4, #8]
 80017ba:	4a8c      	ldr	r2, [pc, #560]	; (80019ec <HAL_RCC_OscConfig+0x2b4>)
 80017bc:	f3c3 1303 	ubfx	r3, r3, #4, #4
 80017c0:	5cd3      	ldrb	r3, [r2, r3]
 80017c2:	f003 031f 	and.w	r3, r3, #31
 80017c6:	40d8      	lsrs	r0, r3
 80017c8:	4b89      	ldr	r3, [pc, #548]	; (80019f0 <HAL_RCC_OscConfig+0x2b8>)
 80017ca:	6018      	str	r0, [r3, #0]
 80017cc:	4b89      	ldr	r3, [pc, #548]	; (80019f4 <HAL_RCC_OscConfig+0x2bc>)
 80017ce:	6818      	ldr	r0, [r3, #0]
 80017d0:	f7ff f970 	bl	8000ab4 <HAL_InitTick>
 80017d4:	2800      	cmp	r0, #0
 80017d6:	d1b4      	bne.n	8001742 <HAL_RCC_OscConfig+0xa>
 80017d8:	682b      	ldr	r3, [r5, #0]
 80017da:	07d9      	lsls	r1, r3, #31
 80017dc:	d45f      	bmi.n	800189e <HAL_RCC_OscConfig+0x166>
 80017de:	682b      	ldr	r3, [r5, #0]
 80017e0:	079a      	lsls	r2, r3, #30
 80017e2:	f100 809e 	bmi.w	8001922 <HAL_RCC_OscConfig+0x1ea>
 80017e6:	682b      	ldr	r3, [r5, #0]
 80017e8:	0719      	lsls	r1, r3, #28
 80017ea:	f100 80d2 	bmi.w	8001992 <HAL_RCC_OscConfig+0x25a>
 80017ee:	682b      	ldr	r3, [r5, #0]
 80017f0:	075a      	lsls	r2, r3, #29
 80017f2:	f100 8101 	bmi.w	80019f8 <HAL_RCC_OscConfig+0x2c0>
 80017f6:	6aab      	ldr	r3, [r5, #40]	; 0x28
 80017f8:	2b00      	cmp	r3, #0
 80017fa:	f040 816a 	bne.w	8001ad2 <HAL_RCC_OscConfig+0x39a>
 80017fe:	2000      	movs	r0, #0
 8001800:	e79f      	b.n	8001742 <HAL_RCC_OscConfig+0xa>
 8001802:	6823      	ldr	r3, [r4, #0]
 8001804:	f043 0308 	orr.w	r3, r3, #8
 8001808:	6023      	str	r3, [r4, #0]
 800180a:	6823      	ldr	r3, [r4, #0]
 800180c:	f023 03f0 	bic.w	r3, r3, #240	; 0xf0
 8001810:	4303      	orrs	r3, r0
 8001812:	6023      	str	r3, [r4, #0]
 8001814:	6863      	ldr	r3, [r4, #4]
 8001816:	69ea      	ldr	r2, [r5, #28]
 8001818:	f423 437f 	bic.w	r3, r3, #65280	; 0xff00
 800181c:	ea43 2302 	orr.w	r3, r3, r2, lsl #8
 8001820:	6063      	str	r3, [r4, #4]
 8001822:	2e00      	cmp	r6, #0
 8001824:	d1c6      	bne.n	80017b4 <HAL_RCC_OscConfig+0x7c>
 8001826:	f7ff fef7 	bl	8001618 <RCC_SetFlashLatencyFromMSIRange>
 800182a:	2800      	cmp	r0, #0
 800182c:	d0c2      	beq.n	80017b4 <HAL_RCC_OscConfig+0x7c>
 800182e:	e787      	b.n	8001740 <HAL_RCC_OscConfig+0x8>
 8001830:	69ab      	ldr	r3, [r5, #24]
 8001832:	b31b      	cbz	r3, 800187c <HAL_RCC_OscConfig+0x144>
 8001834:	6823      	ldr	r3, [r4, #0]
 8001836:	f043 0301 	orr.w	r3, r3, #1
 800183a:	6023      	str	r3, [r4, #0]
 800183c:	f7ff f982 	bl	8000b44 <HAL_GetTick>
 8001840:	4680      	mov	r8, r0
 8001842:	6823      	ldr	r3, [r4, #0]
 8001844:	079b      	lsls	r3, r3, #30
 8001846:	d511      	bpl.n	800186c <HAL_RCC_OscConfig+0x134>
 8001848:	6823      	ldr	r3, [r4, #0]
 800184a:	f043 0308 	orr.w	r3, r3, #8
 800184e:	6023      	str	r3, [r4, #0]
 8001850:	6823      	ldr	r3, [r4, #0]
 8001852:	6a2a      	ldr	r2, [r5, #32]
 8001854:	f023 03f0 	bic.w	r3, r3, #240	; 0xf0
 8001858:	4313      	orrs	r3, r2
 800185a:	6023      	str	r3, [r4, #0]
 800185c:	6863      	ldr	r3, [r4, #4]
 800185e:	69ea      	ldr	r2, [r5, #28]
 8001860:	f423 437f 	bic.w	r3, r3, #65280	; 0xff00
 8001864:	ea43 2302 	orr.w	r3, r3, r2, lsl #8
 8001868:	6063      	str	r3, [r4, #4]
 800186a:	e7b5      	b.n	80017d8 <HAL_RCC_OscConfig+0xa0>
 800186c:	f7ff f96a 	bl	8000b44 <HAL_GetTick>
 8001870:	eba0 0008 	sub.w	r0, r0, r8
 8001874:	2802      	cmp	r0, #2
 8001876:	d9e4      	bls.n	8001842 <HAL_RCC_OscConfig+0x10a>
 8001878:	2003      	movs	r0, #3
 800187a:	e762      	b.n	8001742 <HAL_RCC_OscConfig+0xa>
 800187c:	6823      	ldr	r3, [r4, #0]
 800187e:	f023 0301 	bic.w	r3, r3, #1
 8001882:	6023      	str	r3, [r4, #0]
 8001884:	f7ff f95e 	bl	8000b44 <HAL_GetTick>
 8001888:	4680      	mov	r8, r0
 800188a:	6823      	ldr	r3, [r4, #0]
 800188c:	0798      	lsls	r0, r3, #30
 800188e:	d5a3      	bpl.n	80017d8 <HAL_RCC_OscConfig+0xa0>
 8001890:	f7ff f958 	bl	8000b44 <HAL_GetTick>
 8001894:	eba0 0008 	sub.w	r0, r0, r8
 8001898:	2802      	cmp	r0, #2
 800189a:	d9f6      	bls.n	800188a <HAL_RCC_OscConfig+0x152>
 800189c:	e7ec      	b.n	8001878 <HAL_RCC_OscConfig+0x140>
 800189e:	2e08      	cmp	r6, #8
 80018a0:	d003      	beq.n	80018aa <HAL_RCC_OscConfig+0x172>
 80018a2:	2e0c      	cmp	r6, #12
 80018a4:	d108      	bne.n	80018b8 <HAL_RCC_OscConfig+0x180>
 80018a6:	2f03      	cmp	r7, #3
 80018a8:	d106      	bne.n	80018b8 <HAL_RCC_OscConfig+0x180>
 80018aa:	6823      	ldr	r3, [r4, #0]
 80018ac:	039b      	lsls	r3, r3, #14
 80018ae:	d596      	bpl.n	80017de <HAL_RCC_OscConfig+0xa6>
 80018b0:	686b      	ldr	r3, [r5, #4]
 80018b2:	2b00      	cmp	r3, #0
 80018b4:	d193      	bne.n	80017de <HAL_RCC_OscConfig+0xa6>
 80018b6:	e743      	b.n	8001740 <HAL_RCC_OscConfig+0x8>
 80018b8:	686b      	ldr	r3, [r5, #4]
 80018ba:	f5b3 3f80 	cmp.w	r3, #65536	; 0x10000
 80018be:	d110      	bne.n	80018e2 <HAL_RCC_OscConfig+0x1aa>
 80018c0:	6823      	ldr	r3, [r4, #0]
 80018c2:	f443 3380 	orr.w	r3, r3, #65536	; 0x10000
 80018c6:	6023      	str	r3, [r4, #0]
 80018c8:	f7ff f93c 	bl	8000b44 <HAL_GetTick>
 80018cc:	4680      	mov	r8, r0
 80018ce:	6823      	ldr	r3, [r4, #0]
 80018d0:	0398      	lsls	r0, r3, #14
 80018d2:	d484      	bmi.n	80017de <HAL_RCC_OscConfig+0xa6>
 80018d4:	f7ff f936 	bl	8000b44 <HAL_GetTick>
 80018d8:	eba0 0008 	sub.w	r0, r0, r8
 80018dc:	2864      	cmp	r0, #100	; 0x64
 80018de:	d9f6      	bls.n	80018ce <HAL_RCC_OscConfig+0x196>
 80018e0:	e7ca      	b.n	8001878 <HAL_RCC_OscConfig+0x140>
 80018e2:	f5b3 2fa0 	cmp.w	r3, #327680	; 0x50000
 80018e6:	d104      	bne.n	80018f2 <HAL_RCC_OscConfig+0x1ba>
 80018e8:	6823      	ldr	r3, [r4, #0]
 80018ea:	f443 2380 	orr.w	r3, r3, #262144	; 0x40000
 80018ee:	6023      	str	r3, [r4, #0]
 80018f0:	e7e6      	b.n	80018c0 <HAL_RCC_OscConfig+0x188>
 80018f2:	6822      	ldr	r2, [r4, #0]
 80018f4:	f422 3280 	bic.w	r2, r2, #65536	; 0x10000
 80018f8:	6022      	str	r2, [r4, #0]
 80018fa:	6822      	ldr	r2, [r4, #0]
 80018fc:	f422 2280 	bic.w	r2, r2, #262144	; 0x40000
 8001900:	6022      	str	r2, [r4, #0]
 8001902:	2b00      	cmp	r3, #0
 8001904:	d1e0      	bne.n	80018c8 <HAL_RCC_OscConfig+0x190>
 8001906:	f7ff f91d 	bl	8000b44 <HAL_GetTick>
 800190a:	4680      	mov	r8, r0
 800190c:	6823      	ldr	r3, [r4, #0]
 800190e:	0399      	lsls	r1, r3, #14
 8001910:	f57f af65 	bpl.w	80017de <HAL_RCC_OscConfig+0xa6>
 8001914:	f7ff f916 	bl	8000b44 <HAL_GetTick>
 8001918:	eba0 0008 	sub.w	r0, r0, r8
 800191c:	2864      	cmp	r0, #100	; 0x64
 800191e:	d9f5      	bls.n	800190c <HAL_RCC_OscConfig+0x1d4>
 8001920:	e7aa      	b.n	8001878 <HAL_RCC_OscConfig+0x140>
 8001922:	2e04      	cmp	r6, #4
 8001924:	d003      	beq.n	800192e <HAL_RCC_OscConfig+0x1f6>
 8001926:	2e0c      	cmp	r6, #12
 8001928:	d110      	bne.n	800194c <HAL_RCC_OscConfig+0x214>
 800192a:	2f02      	cmp	r7, #2
 800192c:	d10e      	bne.n	800194c <HAL_RCC_OscConfig+0x214>
 800192e:	6823      	ldr	r3, [r4, #0]
 8001930:	055a      	lsls	r2, r3, #21
 8001932:	d503      	bpl.n	800193c <HAL_RCC_OscConfig+0x204>
 8001934:	68eb      	ldr	r3, [r5, #12]
 8001936:	2b00      	cmp	r3, #0
 8001938:	f43f af02 	beq.w	8001740 <HAL_RCC_OscConfig+0x8>
 800193c:	6863      	ldr	r3, [r4, #4]
 800193e:	692a      	ldr	r2, [r5, #16]
 8001940:	f023 53f8 	bic.w	r3, r3, #520093696	; 0x1f000000
 8001944:	ea43 6302 	orr.w	r3, r3, r2, lsl #24
 8001948:	6063      	str	r3, [r4, #4]
 800194a:	e74c      	b.n	80017e6 <HAL_RCC_OscConfig+0xae>
 800194c:	68eb      	ldr	r3, [r5, #12]
 800194e:	b17b      	cbz	r3, 8001970 <HAL_RCC_OscConfig+0x238>
 8001950:	6823      	ldr	r3, [r4, #0]
 8001952:	f443 7380 	orr.w	r3, r3, #256	; 0x100
 8001956:	6023      	str	r3, [r4, #0]
 8001958:	f7ff f8f4 	bl	8000b44 <HAL_GetTick>
 800195c:	4607      	mov	r7, r0
 800195e:	6823      	ldr	r3, [r4, #0]
 8001960:	055b      	lsls	r3, r3, #21
 8001962:	d4eb      	bmi.n	800193c <HAL_RCC_OscConfig+0x204>
 8001964:	f7ff f8ee 	bl	8000b44 <HAL_GetTick>
 8001968:	1bc0      	subs	r0, r0, r7
 800196a:	2802      	cmp	r0, #2
 800196c:	d9f7      	bls.n	800195e <HAL_RCC_OscConfig+0x226>
 800196e:	e783      	b.n	8001878 <HAL_RCC_OscConfig+0x140>
 8001970:	6823      	ldr	r3, [r4, #0]
 8001972:	f423 7380 	bic.w	r3, r3, #256	; 0x100
 8001976:	6023      	str	r3, [r4, #0]
 8001978:	f7ff f8e4 	bl	8000b44 <HAL_GetTick>
 800197c:	4607      	mov	r7, r0
 800197e:	6823      	ldr	r3, [r4, #0]
 8001980:	0558      	lsls	r0, r3, #21
 8001982:	f57f af30 	bpl.w	80017e6 <HAL_RCC_OscConfig+0xae>
 8001986:	f7ff f8dd 	bl	8000b44 <HAL_GetTick>
 800198a:	1bc0      	subs	r0, r0, r7
 800198c:	2802      	cmp	r0, #2
 800198e:	d9f6      	bls.n	800197e <HAL_RCC_OscConfig+0x246>
 8001990:	e772      	b.n	8001878 <HAL_RCC_OscConfig+0x140>
 8001992:	696b      	ldr	r3, [r5, #20]
 8001994:	b19b      	cbz	r3, 80019be <HAL_RCC_OscConfig+0x286>
 8001996:	f8d4 3094 	ldr.w	r3, [r4, #148]	; 0x94
 800199a:	f043 0301 	orr.w	r3, r3, #1
 800199e:	f8c4 3094 	str.w	r3, [r4, #148]	; 0x94
 80019a2:	f7ff f8cf 	bl	8000b44 <HAL_GetTick>
 80019a6:	4607      	mov	r7, r0
 80019a8:	f8d4 3094 	ldr.w	r3, [r4, #148]	; 0x94
 80019ac:	079b      	lsls	r3, r3, #30
 80019ae:	f53f af1e 	bmi.w	80017ee <HAL_RCC_OscConfig+0xb6>
 80019b2:	f7ff f8c7 	bl	8000b44 <HAL_GetTick>
 80019b6:	1bc0      	subs	r0, r0, r7
 80019b8:	2802      	cmp	r0, #2
 80019ba:	d9f5      	bls.n	80019a8 <HAL_RCC_OscConfig+0x270>
 80019bc:	e75c      	b.n	8001878 <HAL_RCC_OscConfig+0x140>
 80019be:	f8d4 3094 	ldr.w	r3, [r4, #148]	; 0x94
 80019c2:	f023 0301 	bic.w	r3, r3, #1
 80019c6:	f8c4 3094 	str.w	r3, [r4, #148]	; 0x94
 80019ca:	f7ff f8bb 	bl	8000b44 <HAL_GetTick>
 80019ce:	4607      	mov	r7, r0
 80019d0:	f8d4 3094 	ldr.w	r3, [r4, #148]	; 0x94
 80019d4:	0798      	lsls	r0, r3, #30
 80019d6:	f57f af0a 	bpl.w	80017ee <HAL_RCC_OscConfig+0xb6>
 80019da:	f7ff f8b3 	bl	8000b44 <HAL_GetTick>
 80019de:	1bc0      	subs	r0, r0, r7
 80019e0:	2802      	cmp	r0, #2
 80019e2:	d9f5      	bls.n	80019d0 <HAL_RCC_OscConfig+0x298>
 80019e4:	e748      	b.n	8001878 <HAL_RCC_OscConfig+0x140>
 80019e6:	bf00      	nop
 80019e8:	40021000 	.word	0x40021000
 80019ec:	08002b80 	.word	0x08002b80
 80019f0:	20000004 	.word	0x20000004
 80019f4:	2000000c 	.word	0x2000000c
 80019f8:	6da3      	ldr	r3, [r4, #88]	; 0x58
 80019fa:	00d9      	lsls	r1, r3, #3
 80019fc:	d429      	bmi.n	8001a52 <HAL_RCC_OscConfig+0x31a>
 80019fe:	6da3      	ldr	r3, [r4, #88]	; 0x58
 8001a00:	f043 5380 	orr.w	r3, r3, #268435456	; 0x10000000
 8001a04:	65a3      	str	r3, [r4, #88]	; 0x58
 8001a06:	6da3      	ldr	r3, [r4, #88]	; 0x58
 8001a08:	f003 5380 	and.w	r3, r3, #268435456	; 0x10000000
 8001a0c:	9301      	str	r3, [sp, #4]
 8001a0e:	9b01      	ldr	r3, [sp, #4]
 8001a10:	f04f 0801 	mov.w	r8, #1
 8001a14:	4f89      	ldr	r7, [pc, #548]	; (8001c3c <HAL_RCC_OscConfig+0x504>)
 8001a16:	683b      	ldr	r3, [r7, #0]
 8001a18:	05da      	lsls	r2, r3, #23
 8001a1a:	d51d      	bpl.n	8001a58 <HAL_RCC_OscConfig+0x320>
 8001a1c:	68ab      	ldr	r3, [r5, #8]
 8001a1e:	2b01      	cmp	r3, #1
 8001a20:	d12b      	bne.n	8001a7a <HAL_RCC_OscConfig+0x342>
 8001a22:	f8d4 3090 	ldr.w	r3, [r4, #144]	; 0x90
 8001a26:	f043 0301 	orr.w	r3, r3, #1
 8001a2a:	f8c4 3090 	str.w	r3, [r4, #144]	; 0x90
 8001a2e:	f7ff f889 	bl	8000b44 <HAL_GetTick>
 8001a32:	f241 3988 	movw	r9, #5000	; 0x1388
 8001a36:	4607      	mov	r7, r0
 8001a38:	f8d4 3090 	ldr.w	r3, [r4, #144]	; 0x90
 8001a3c:	0798      	lsls	r0, r3, #30
 8001a3e:	d542      	bpl.n	8001ac6 <HAL_RCC_OscConfig+0x38e>
 8001a40:	f1b8 0f00 	cmp.w	r8, #0
 8001a44:	f43f aed7 	beq.w	80017f6 <HAL_RCC_OscConfig+0xbe>
 8001a48:	6da3      	ldr	r3, [r4, #88]	; 0x58
 8001a4a:	f023 5380 	bic.w	r3, r3, #268435456	; 0x10000000
 8001a4e:	65a3      	str	r3, [r4, #88]	; 0x58
 8001a50:	e6d1      	b.n	80017f6 <HAL_RCC_OscConfig+0xbe>
 8001a52:	f04f 0800 	mov.w	r8, #0
 8001a56:	e7dd      	b.n	8001a14 <HAL_RCC_OscConfig+0x2dc>
 8001a58:	683b      	ldr	r3, [r7, #0]
 8001a5a:	f443 7380 	orr.w	r3, r3, #256	; 0x100
 8001a5e:	603b      	str	r3, [r7, #0]
 8001a60:	f7ff f870 	bl	8000b44 <HAL_GetTick>
 8001a64:	4681      	mov	r9, r0
 8001a66:	683b      	ldr	r3, [r7, #0]
 8001a68:	05db      	lsls	r3, r3, #23
 8001a6a:	d4d7      	bmi.n	8001a1c <HAL_RCC_OscConfig+0x2e4>
 8001a6c:	f7ff f86a 	bl	8000b44 <HAL_GetTick>
 8001a70:	eba0 0009 	sub.w	r0, r0, r9
 8001a74:	2802      	cmp	r0, #2
 8001a76:	d9f6      	bls.n	8001a66 <HAL_RCC_OscConfig+0x32e>
 8001a78:	e6fe      	b.n	8001878 <HAL_RCC_OscConfig+0x140>
 8001a7a:	2b05      	cmp	r3, #5
 8001a7c:	d106      	bne.n	8001a8c <HAL_RCC_OscConfig+0x354>
 8001a7e:	f8d4 3090 	ldr.w	r3, [r4, #144]	; 0x90
 8001a82:	f043 0304 	orr.w	r3, r3, #4
 8001a86:	f8c4 3090 	str.w	r3, [r4, #144]	; 0x90
 8001a8a:	e7ca      	b.n	8001a22 <HAL_RCC_OscConfig+0x2ea>
 8001a8c:	f8d4 2090 	ldr.w	r2, [r4, #144]	; 0x90
 8001a90:	f022 0201 	bic.w	r2, r2, #1
 8001a94:	f8c4 2090 	str.w	r2, [r4, #144]	; 0x90
 8001a98:	f8d4 2090 	ldr.w	r2, [r4, #144]	; 0x90
 8001a9c:	f022 0204 	bic.w	r2, r2, #4
 8001aa0:	f8c4 2090 	str.w	r2, [r4, #144]	; 0x90
 8001aa4:	2b00      	cmp	r3, #0
 8001aa6:	d1c2      	bne.n	8001a2e <HAL_RCC_OscConfig+0x2f6>
 8001aa8:	f7ff f84c 	bl	8000b44 <HAL_GetTick>
 8001aac:	f241 3988 	movw	r9, #5000	; 0x1388
 8001ab0:	4607      	mov	r7, r0
 8001ab2:	f8d4 3090 	ldr.w	r3, [r4, #144]	; 0x90
 8001ab6:	0799      	lsls	r1, r3, #30
 8001ab8:	d5c2      	bpl.n	8001a40 <HAL_RCC_OscConfig+0x308>
 8001aba:	f7ff f843 	bl	8000b44 <HAL_GetTick>
 8001abe:	1bc0      	subs	r0, r0, r7
 8001ac0:	4548      	cmp	r0, r9
 8001ac2:	d9f6      	bls.n	8001ab2 <HAL_RCC_OscConfig+0x37a>
 8001ac4:	e6d8      	b.n	8001878 <HAL_RCC_OscConfig+0x140>
 8001ac6:	f7ff f83d 	bl	8000b44 <HAL_GetTick>
 8001aca:	1bc0      	subs	r0, r0, r7
 8001acc:	4548      	cmp	r0, r9
 8001ace:	d9b3      	bls.n	8001a38 <HAL_RCC_OscConfig+0x300>
 8001ad0:	e6d2      	b.n	8001878 <HAL_RCC_OscConfig+0x140>
 8001ad2:	2b02      	cmp	r3, #2
 8001ad4:	f040 808f 	bne.w	8001bf6 <HAL_RCC_OscConfig+0x4be>
 8001ad8:	68e3      	ldr	r3, [r4, #12]
 8001ada:	6aea      	ldr	r2, [r5, #44]	; 0x2c
 8001adc:	f003 0103 	and.w	r1, r3, #3
 8001ae0:	4291      	cmp	r1, r2
 8001ae2:	d124      	bne.n	8001b2e <HAL_RCC_OscConfig+0x3f6>
 8001ae4:	6b29      	ldr	r1, [r5, #48]	; 0x30
 8001ae6:	f003 0270 	and.w	r2, r3, #112	; 0x70
 8001aea:	3901      	subs	r1, #1
 8001aec:	ebb2 1f01 	cmp.w	r2, r1, lsl #4
 8001af0:	d11d      	bne.n	8001b2e <HAL_RCC_OscConfig+0x3f6>
 8001af2:	6b69      	ldr	r1, [r5, #52]	; 0x34
 8001af4:	f403 42fe 	and.w	r2, r3, #32512	; 0x7f00
 8001af8:	ebb2 2f01 	cmp.w	r2, r1, lsl #8
 8001afc:	d117      	bne.n	8001b2e <HAL_RCC_OscConfig+0x3f6>
 8001afe:	6baa      	ldr	r2, [r5, #56]	; 0x38
 8001b00:	3a07      	subs	r2, #7
 8001b02:	f403 3100 	and.w	r1, r3, #131072	; 0x20000
 8001b06:	bf18      	it	ne
 8001b08:	2201      	movne	r2, #1
 8001b0a:	4291      	cmp	r1, r2
 8001b0c:	d10f      	bne.n	8001b2e <HAL_RCC_OscConfig+0x3f6>
 8001b0e:	6bea      	ldr	r2, [r5, #60]	; 0x3c
 8001b10:	0852      	lsrs	r2, r2, #1
 8001b12:	f403 01c0 	and.w	r1, r3, #6291456	; 0x600000
 8001b16:	3a01      	subs	r2, #1
 8001b18:	ebb1 5f42 	cmp.w	r1, r2, lsl #21
 8001b1c:	d107      	bne.n	8001b2e <HAL_RCC_OscConfig+0x3f6>
 8001b1e:	6c2a      	ldr	r2, [r5, #64]	; 0x40
 8001b20:	0852      	lsrs	r2, r2, #1
 8001b22:	f003 63c0 	and.w	r3, r3, #100663296	; 0x6000000
 8001b26:	3a01      	subs	r2, #1
 8001b28:	ebb3 6f42 	cmp.w	r3, r2, lsl #25
 8001b2c:	d04a      	beq.n	8001bc4 <HAL_RCC_OscConfig+0x48c>
 8001b2e:	2e0c      	cmp	r6, #12
 8001b30:	f43f ae06 	beq.w	8001740 <HAL_RCC_OscConfig+0x8>
 8001b34:	6823      	ldr	r3, [r4, #0]
 8001b36:	015a      	lsls	r2, r3, #5
 8001b38:	f53f ae02 	bmi.w	8001740 <HAL_RCC_OscConfig+0x8>
 8001b3c:	6823      	ldr	r3, [r4, #0]
 8001b3e:	00db      	lsls	r3, r3, #3
 8001b40:	f53f adfe 	bmi.w	8001740 <HAL_RCC_OscConfig+0x8>
 8001b44:	6823      	ldr	r3, [r4, #0]
 8001b46:	f023 7380 	bic.w	r3, r3, #16777216	; 0x1000000
 8001b4a:	6023      	str	r3, [r4, #0]
 8001b4c:	f7fe fffa 	bl	8000b44 <HAL_GetTick>
 8001b50:	4606      	mov	r6, r0
 8001b52:	6823      	ldr	r3, [r4, #0]
 8001b54:	019f      	lsls	r7, r3, #6
 8001b56:	d42f      	bmi.n	8001bb8 <HAL_RCC_OscConfig+0x480>
 8001b58:	68e2      	ldr	r2, [r4, #12]
 8001b5a:	4b39      	ldr	r3, [pc, #228]	; (8001c40 <HAL_RCC_OscConfig+0x508>)
 8001b5c:	4013      	ands	r3, r2
 8001b5e:	6aea      	ldr	r2, [r5, #44]	; 0x2c
 8001b60:	4313      	orrs	r3, r2
 8001b62:	6b6a      	ldr	r2, [r5, #52]	; 0x34
 8001b64:	ea43 2302 	orr.w	r3, r3, r2, lsl #8
 8001b68:	6b2a      	ldr	r2, [r5, #48]	; 0x30
 8001b6a:	3a01      	subs	r2, #1
 8001b6c:	ea43 1302 	orr.w	r3, r3, r2, lsl #4
 8001b70:	6baa      	ldr	r2, [r5, #56]	; 0x38
 8001b72:	0912      	lsrs	r2, r2, #4
 8001b74:	ea43 4342 	orr.w	r3, r3, r2, lsl #17
 8001b78:	6bea      	ldr	r2, [r5, #60]	; 0x3c
 8001b7a:	0852      	lsrs	r2, r2, #1
 8001b7c:	3a01      	subs	r2, #1
 8001b7e:	ea43 5342 	orr.w	r3, r3, r2, lsl #21
 8001b82:	6c2a      	ldr	r2, [r5, #64]	; 0x40
 8001b84:	0852      	lsrs	r2, r2, #1
 8001b86:	3a01      	subs	r2, #1
 8001b88:	ea43 6342 	orr.w	r3, r3, r2, lsl #25
 8001b8c:	60e3      	str	r3, [r4, #12]
 8001b8e:	6823      	ldr	r3, [r4, #0]
 8001b90:	f043 7380 	orr.w	r3, r3, #16777216	; 0x1000000
 8001b94:	6023      	str	r3, [r4, #0]
 8001b96:	68e3      	ldr	r3, [r4, #12]
 8001b98:	f043 7380 	orr.w	r3, r3, #16777216	; 0x1000000
 8001b9c:	60e3      	str	r3, [r4, #12]
 8001b9e:	f7fe ffd1 	bl	8000b44 <HAL_GetTick>
 8001ba2:	4605      	mov	r5, r0
 8001ba4:	6823      	ldr	r3, [r4, #0]
 8001ba6:	0198      	lsls	r0, r3, #6
 8001ba8:	f53f ae29 	bmi.w	80017fe <HAL_RCC_OscConfig+0xc6>
 8001bac:	f7fe ffca 	bl	8000b44 <HAL_GetTick>
 8001bb0:	1b40      	subs	r0, r0, r5
 8001bb2:	2802      	cmp	r0, #2
 8001bb4:	d9f6      	bls.n	8001ba4 <HAL_RCC_OscConfig+0x46c>
 8001bb6:	e65f      	b.n	8001878 <HAL_RCC_OscConfig+0x140>
 8001bb8:	f7fe ffc4 	bl	8000b44 <HAL_GetTick>
 8001bbc:	1b80      	subs	r0, r0, r6
 8001bbe:	2802      	cmp	r0, #2
 8001bc0:	d9c7      	bls.n	8001b52 <HAL_RCC_OscConfig+0x41a>
 8001bc2:	e659      	b.n	8001878 <HAL_RCC_OscConfig+0x140>
 8001bc4:	6823      	ldr	r3, [r4, #0]
 8001bc6:	0199      	lsls	r1, r3, #6
 8001bc8:	f53f ae19 	bmi.w	80017fe <HAL_RCC_OscConfig+0xc6>
 8001bcc:	6823      	ldr	r3, [r4, #0]
 8001bce:	f043 7380 	orr.w	r3, r3, #16777216	; 0x1000000
 8001bd2:	6023      	str	r3, [r4, #0]
 8001bd4:	68e3      	ldr	r3, [r4, #12]
 8001bd6:	f043 7380 	orr.w	r3, r3, #16777216	; 0x1000000
 8001bda:	60e3      	str	r3, [r4, #12]
 8001bdc:	f7fe ffb2 	bl	8000b44 <HAL_GetTick>
 8001be0:	4605      	mov	r5, r0
 8001be2:	6823      	ldr	r3, [r4, #0]
 8001be4:	019a      	lsls	r2, r3, #6
 8001be6:	f53f ae0a 	bmi.w	80017fe <HAL_RCC_OscConfig+0xc6>
 8001bea:	f7fe ffab 	bl	8000b44 <HAL_GetTick>
 8001bee:	1b40      	subs	r0, r0, r5
 8001bf0:	2802      	cmp	r0, #2
 8001bf2:	d9f6      	bls.n	8001be2 <HAL_RCC_OscConfig+0x4aa>
 8001bf4:	e640      	b.n	8001878 <HAL_RCC_OscConfig+0x140>
 8001bf6:	2e0c      	cmp	r6, #12
 8001bf8:	f43f ada2 	beq.w	8001740 <HAL_RCC_OscConfig+0x8>
 8001bfc:	6823      	ldr	r3, [r4, #0]
 8001bfe:	f023 7380 	bic.w	r3, r3, #16777216	; 0x1000000
 8001c02:	6023      	str	r3, [r4, #0]
 8001c04:	6823      	ldr	r3, [r4, #0]
 8001c06:	f013 5f20 	tst.w	r3, #671088640	; 0x28000000
 8001c0a:	bf02      	ittt	eq
 8001c0c:	68e3      	ldreq	r3, [r4, #12]
 8001c0e:	f023 0303 	biceq.w	r3, r3, #3
 8001c12:	60e3      	streq	r3, [r4, #12]
 8001c14:	68e3      	ldr	r3, [r4, #12]
 8001c16:	f023 7388 	bic.w	r3, r3, #17825792	; 0x1100000
 8001c1a:	f423 3380 	bic.w	r3, r3, #65536	; 0x10000
 8001c1e:	60e3      	str	r3, [r4, #12]
 8001c20:	f7fe ff90 	bl	8000b44 <HAL_GetTick>
 8001c24:	4605      	mov	r5, r0
 8001c26:	6823      	ldr	r3, [r4, #0]
 8001c28:	019b      	lsls	r3, r3, #6
 8001c2a:	f57f ade8 	bpl.w	80017fe <HAL_RCC_OscConfig+0xc6>
 8001c2e:	f7fe ff89 	bl	8000b44 <HAL_GetTick>
 8001c32:	1b40      	subs	r0, r0, r5
 8001c34:	2802      	cmp	r0, #2
 8001c36:	d9f6      	bls.n	8001c26 <HAL_RCC_OscConfig+0x4ee>
 8001c38:	e61e      	b.n	8001878 <HAL_RCC_OscConfig+0x140>
 8001c3a:	bf00      	nop
 8001c3c:	40007000 	.word	0x40007000
 8001c40:	f99d808c 	.word	0xf99d808c

08001c44 <HAL_RCC_ClockConfig>:
 8001c44:	e92d 41f0 	stmdb	sp!, {r4, r5, r6, r7, r8, lr}
 8001c48:	460d      	mov	r5, r1
 8001c4a:	4604      	mov	r4, r0
 8001c4c:	b910      	cbnz	r0, 8001c54 <HAL_RCC_ClockConfig+0x10>
 8001c4e:	2001      	movs	r0, #1
 8001c50:	e8bd 81f0 	ldmia.w	sp!, {r4, r5, r6, r7, r8, pc}
 8001c54:	4a40      	ldr	r2, [pc, #256]	; (8001d58 <HAL_RCC_ClockConfig+0x114>)
 8001c56:	6813      	ldr	r3, [r2, #0]
 8001c58:	f003 0307 	and.w	r3, r3, #7
 8001c5c:	428b      	cmp	r3, r1
 8001c5e:	d32a      	bcc.n	8001cb6 <HAL_RCC_ClockConfig+0x72>
 8001c60:	6823      	ldr	r3, [r4, #0]
 8001c62:	07d9      	lsls	r1, r3, #31
 8001c64:	d432      	bmi.n	8001ccc <HAL_RCC_ClockConfig+0x88>
 8001c66:	6821      	ldr	r1, [r4, #0]
 8001c68:	078a      	lsls	r2, r1, #30
 8001c6a:	d45b      	bmi.n	8001d24 <HAL_RCC_ClockConfig+0xe0>
 8001c6c:	4a3a      	ldr	r2, [pc, #232]	; (8001d58 <HAL_RCC_ClockConfig+0x114>)
 8001c6e:	6813      	ldr	r3, [r2, #0]
 8001c70:	f003 0307 	and.w	r3, r3, #7
 8001c74:	42ab      	cmp	r3, r5
 8001c76:	d85d      	bhi.n	8001d34 <HAL_RCC_ClockConfig+0xf0>
 8001c78:	f011 0f04 	tst.w	r1, #4
 8001c7c:	4d37      	ldr	r5, [pc, #220]	; (8001d5c <HAL_RCC_ClockConfig+0x118>)
 8001c7e:	d164      	bne.n	8001d4a <HAL_RCC_ClockConfig+0x106>
 8001c80:	070b      	lsls	r3, r1, #28
 8001c82:	d506      	bpl.n	8001c92 <HAL_RCC_ClockConfig+0x4e>
 8001c84:	68ab      	ldr	r3, [r5, #8]
 8001c86:	6922      	ldr	r2, [r4, #16]
 8001c88:	f423 5360 	bic.w	r3, r3, #14336	; 0x3800
 8001c8c:	ea43 03c2 	orr.w	r3, r3, r2, lsl #3
 8001c90:	60ab      	str	r3, [r5, #8]
 8001c92:	f7ff fd03 	bl	800169c <HAL_RCC_GetSysClockFreq>
 8001c96:	68ab      	ldr	r3, [r5, #8]
 8001c98:	4a31      	ldr	r2, [pc, #196]	; (8001d60 <HAL_RCC_ClockConfig+0x11c>)
 8001c9a:	f3c3 1303 	ubfx	r3, r3, #4, #4
 8001c9e:	e8bd 41f0 	ldmia.w	sp!, {r4, r5, r6, r7, r8, lr}
 8001ca2:	5cd3      	ldrb	r3, [r2, r3]
 8001ca4:	f003 031f 	and.w	r3, r3, #31
 8001ca8:	40d8      	lsrs	r0, r3
 8001caa:	4b2e      	ldr	r3, [pc, #184]	; (8001d64 <HAL_RCC_ClockConfig+0x120>)
 8001cac:	6018      	str	r0, [r3, #0]
 8001cae:	4b2e      	ldr	r3, [pc, #184]	; (8001d68 <HAL_RCC_ClockConfig+0x124>)
 8001cb0:	6818      	ldr	r0, [r3, #0]
 8001cb2:	f7fe beff 	b.w	8000ab4 <HAL_InitTick>
 8001cb6:	6813      	ldr	r3, [r2, #0]
 8001cb8:	f023 0307 	bic.w	r3, r3, #7
 8001cbc:	430b      	orrs	r3, r1
 8001cbe:	6013      	str	r3, [r2, #0]
 8001cc0:	6813      	ldr	r3, [r2, #0]
 8001cc2:	f003 0307 	and.w	r3, r3, #7
 8001cc6:	428b      	cmp	r3, r1
 8001cc8:	d1c1      	bne.n	8001c4e <HAL_RCC_ClockConfig+0xa>
 8001cca:	e7c9      	b.n	8001c60 <HAL_RCC_ClockConfig+0x1c>
 8001ccc:	6862      	ldr	r2, [r4, #4]
 8001cce:	4e23      	ldr	r6, [pc, #140]	; (8001d5c <HAL_RCC_ClockConfig+0x118>)
 8001cd0:	2a03      	cmp	r2, #3
 8001cd2:	6833      	ldr	r3, [r6, #0]
 8001cd4:	d11a      	bne.n	8001d0c <HAL_RCC_ClockConfig+0xc8>
 8001cd6:	f013 7f00 	tst.w	r3, #33554432	; 0x2000000
 8001cda:	d0b8      	beq.n	8001c4e <HAL_RCC_ClockConfig+0xa>
 8001cdc:	68b3      	ldr	r3, [r6, #8]
 8001cde:	f023 0303 	bic.w	r3, r3, #3
 8001ce2:	4313      	orrs	r3, r2
 8001ce4:	60b3      	str	r3, [r6, #8]
 8001ce6:	f7fe ff2d 	bl	8000b44 <HAL_GetTick>
 8001cea:	f241 3888 	movw	r8, #5000	; 0x1388
 8001cee:	4607      	mov	r7, r0
 8001cf0:	68b3      	ldr	r3, [r6, #8]
 8001cf2:	6862      	ldr	r2, [r4, #4]
 8001cf4:	f003 030c 	and.w	r3, r3, #12
 8001cf8:	ebb3 0f82 	cmp.w	r3, r2, lsl #2
 8001cfc:	d0b3      	beq.n	8001c66 <HAL_RCC_ClockConfig+0x22>
 8001cfe:	f7fe ff21 	bl	8000b44 <HAL_GetTick>
 8001d02:	1bc0      	subs	r0, r0, r7
 8001d04:	4540      	cmp	r0, r8
 8001d06:	d9f3      	bls.n	8001cf0 <HAL_RCC_ClockConfig+0xac>
 8001d08:	2003      	movs	r0, #3
 8001d0a:	e7a1      	b.n	8001c50 <HAL_RCC_ClockConfig+0xc>
 8001d0c:	2a02      	cmp	r2, #2
 8001d0e:	d102      	bne.n	8001d16 <HAL_RCC_ClockConfig+0xd2>
 8001d10:	f413 3f00 	tst.w	r3, #131072	; 0x20000
 8001d14:	e7e1      	b.n	8001cda <HAL_RCC_ClockConfig+0x96>
 8001d16:	b912      	cbnz	r2, 8001d1e <HAL_RCC_ClockConfig+0xda>
 8001d18:	f013 0f02 	tst.w	r3, #2
 8001d1c:	e7dd      	b.n	8001cda <HAL_RCC_ClockConfig+0x96>
 8001d1e:	f413 6f80 	tst.w	r3, #1024	; 0x400
 8001d22:	e7da      	b.n	8001cda <HAL_RCC_ClockConfig+0x96>
 8001d24:	4a0d      	ldr	r2, [pc, #52]	; (8001d5c <HAL_RCC_ClockConfig+0x118>)
 8001d26:	68a0      	ldr	r0, [r4, #8]
 8001d28:	6893      	ldr	r3, [r2, #8]
 8001d2a:	f023 03f0 	bic.w	r3, r3, #240	; 0xf0
 8001d2e:	4303      	orrs	r3, r0
 8001d30:	6093      	str	r3, [r2, #8]
 8001d32:	e79b      	b.n	8001c6c <HAL_RCC_ClockConfig+0x28>
 8001d34:	6813      	ldr	r3, [r2, #0]
 8001d36:	f023 0307 	bic.w	r3, r3, #7
 8001d3a:	432b      	orrs	r3, r5
 8001d3c:	6013      	str	r3, [r2, #0]
 8001d3e:	6813      	ldr	r3, [r2, #0]
 8001d40:	f003 0307 	and.w	r3, r3, #7
 8001d44:	42ab      	cmp	r3, r5
 8001d46:	d182      	bne.n	8001c4e <HAL_RCC_ClockConfig+0xa>
 8001d48:	e796      	b.n	8001c78 <HAL_RCC_ClockConfig+0x34>
 8001d4a:	68ab      	ldr	r3, [r5, #8]
 8001d4c:	68e2      	ldr	r2, [r4, #12]
 8001d4e:	f423 63e0 	bic.w	r3, r3, #1792	; 0x700
 8001d52:	4313      	orrs	r3, r2
 8001d54:	60ab      	str	r3, [r5, #8]
 8001d56:	e793      	b.n	8001c80 <HAL_RCC_ClockConfig+0x3c>
 8001d58:	40022000 	.word	0x40022000
 8001d5c:	40021000 	.word	0x40021000
 8001d60:	08002b80 	.word	0x08002b80
 8001d64:	20000004 	.word	0x20000004
 8001d68:	2000000c 	.word	0x2000000c

08001d6c <HAL_RCC_GetPCLK1Freq>:
 8001d6c:	4b05      	ldr	r3, [pc, #20]	; (8001d84 <HAL_RCC_GetPCLK1Freq+0x18>)
 8001d6e:	4a06      	ldr	r2, [pc, #24]	; (8001d88 <HAL_RCC_GetPCLK1Freq+0x1c>)
 8001d70:	689b      	ldr	r3, [r3, #8]
 8001d72:	f3c3 2302 	ubfx	r3, r3, #8, #3
 8001d76:	5cd3      	ldrb	r3, [r2, r3]
 8001d78:	4a04      	ldr	r2, [pc, #16]	; (8001d8c <HAL_RCC_GetPCLK1Freq+0x20>)
 8001d7a:	6810      	ldr	r0, [r2, #0]
 8001d7c:	f003 031f 	and.w	r3, r3, #31
 8001d80:	40d8      	lsrs	r0, r3
 8001d82:	4770      	bx	lr
 8001d84:	40021000 	.word	0x40021000
 8001d88:	08002b90 	.word	0x08002b90
 8001d8c:	20000004 	.word	0x20000004

08001d90 <HAL_RCC_GetPCLK2Freq>:
 8001d90:	4b05      	ldr	r3, [pc, #20]	; (8001da8 <HAL_RCC_GetPCLK2Freq+0x18>)
 8001d92:	4a06      	ldr	r2, [pc, #24]	; (8001dac <HAL_RCC_GetPCLK2Freq+0x1c>)
 8001d94:	689b      	ldr	r3, [r3, #8]
 8001d96:	f3c3 23c2 	ubfx	r3, r3, #11, #3
 8001d9a:	5cd3      	ldrb	r3, [r2, r3]
 8001d9c:	4a04      	ldr	r2, [pc, #16]	; (8001db0 <HAL_RCC_GetPCLK2Freq+0x20>)
 8001d9e:	6810      	ldr	r0, [r2, #0]
 8001da0:	f003 031f 	and.w	r3, r3, #31
 8001da4:	40d8      	lsrs	r0, r3
 8001da6:	4770      	bx	lr
 8001da8:	40021000 	.word	0x40021000
 8001dac:	08002b90 	.word	0x08002b90
 8001db0:	20000004 	.word	0x20000004

08001db4 <RCCEx_PLLSAI1_Config>:
 8001db4:	4a44      	ldr	r2, [pc, #272]	; (8001ec8 <RCCEx_PLLSAI1_Config+0x114>)
 8001db6:	b5f8      	push	{r3, r4, r5, r6, r7, lr}
 8001db8:	460e      	mov	r6, r1
 8001dba:	68d1      	ldr	r1, [r2, #12]
 8001dbc:	6803      	ldr	r3, [r0, #0]
 8001dbe:	f011 0f03 	tst.w	r1, #3
 8001dc2:	4605      	mov	r5, r0
 8001dc4:	4614      	mov	r4, r2
 8001dc6:	d029      	beq.n	8001e1c <RCCEx_PLLSAI1_Config+0x68>
 8001dc8:	68d1      	ldr	r1, [r2, #12]
 8001dca:	f001 0103 	and.w	r1, r1, #3
 8001dce:	4299      	cmp	r1, r3
 8001dd0:	d178      	bne.n	8001ec4 <RCCEx_PLLSAI1_Config+0x110>
 8001dd2:	2900      	cmp	r1, #0
 8001dd4:	d076      	beq.n	8001ec4 <RCCEx_PLLSAI1_Config+0x110>
 8001dd6:	68d3      	ldr	r3, [r2, #12]
 8001dd8:	6842      	ldr	r2, [r0, #4]
 8001dda:	f3c3 1302 	ubfx	r3, r3, #4, #3
 8001dde:	3301      	adds	r3, #1
 8001de0:	4293      	cmp	r3, r2
 8001de2:	d16f      	bne.n	8001ec4 <RCCEx_PLLSAI1_Config+0x110>
 8001de4:	6823      	ldr	r3, [r4, #0]
 8001de6:	f023 6380 	bic.w	r3, r3, #67108864	; 0x4000000
 8001dea:	6023      	str	r3, [r4, #0]
 8001dec:	f7fe feaa 	bl	8000b44 <HAL_GetTick>
 8001df0:	4607      	mov	r7, r0
 8001df2:	6823      	ldr	r3, [r4, #0]
 8001df4:	011a      	lsls	r2, r3, #4
 8001df6:	d430      	bmi.n	8001e5a <RCCEx_PLLSAI1_Config+0xa6>
 8001df8:	68ab      	ldr	r3, [r5, #8]
 8001dfa:	021f      	lsls	r7, r3, #8
 8001dfc:	b3a6      	cbz	r6, 8001e68 <RCCEx_PLLSAI1_Config+0xb4>
 8001dfe:	2e01      	cmp	r6, #1
 8001e00:	d14d      	bne.n	8001e9e <RCCEx_PLLSAI1_Config+0xea>
 8001e02:	692a      	ldr	r2, [r5, #16]
 8001e04:	6921      	ldr	r1, [r4, #16]
 8001e06:	0852      	lsrs	r2, r2, #1
 8001e08:	1e53      	subs	r3, r2, #1
 8001e0a:	f421 02c0 	bic.w	r2, r1, #6291456	; 0x600000
 8001e0e:	f422 42fe 	bic.w	r2, r2, #32512	; 0x7f00
 8001e12:	433a      	orrs	r2, r7
 8001e14:	ea42 5243 	orr.w	r2, r2, r3, lsl #21
 8001e18:	6122      	str	r2, [r4, #16]
 8001e1a:	e030      	b.n	8001e7e <RCCEx_PLLSAI1_Config+0xca>
 8001e1c:	2b02      	cmp	r3, #2
 8001e1e:	d011      	beq.n	8001e44 <RCCEx_PLLSAI1_Config+0x90>
 8001e20:	2b03      	cmp	r3, #3
 8001e22:	d013      	beq.n	8001e4c <RCCEx_PLLSAI1_Config+0x98>
 8001e24:	2b01      	cmp	r3, #1
 8001e26:	d14d      	bne.n	8001ec4 <RCCEx_PLLSAI1_Config+0x110>
 8001e28:	6812      	ldr	r2, [r2, #0]
 8001e2a:	f012 0f02 	tst.w	r2, #2
 8001e2e:	d049      	beq.n	8001ec4 <RCCEx_PLLSAI1_Config+0x110>
 8001e30:	68e0      	ldr	r0, [r4, #12]
 8001e32:	686a      	ldr	r2, [r5, #4]
 8001e34:	f020 0073 	bic.w	r0, r0, #115	; 0x73
 8001e38:	3a01      	subs	r2, #1
 8001e3a:	4318      	orrs	r0, r3
 8001e3c:	ea40 1002 	orr.w	r0, r0, r2, lsl #4
 8001e40:	60e0      	str	r0, [r4, #12]
 8001e42:	e7cf      	b.n	8001de4 <RCCEx_PLLSAI1_Config+0x30>
 8001e44:	6812      	ldr	r2, [r2, #0]
 8001e46:	f412 6f80 	tst.w	r2, #1024	; 0x400
 8001e4a:	e7f0      	b.n	8001e2e <RCCEx_PLLSAI1_Config+0x7a>
 8001e4c:	6811      	ldr	r1, [r2, #0]
 8001e4e:	0389      	lsls	r1, r1, #14
 8001e50:	d4ee      	bmi.n	8001e30 <RCCEx_PLLSAI1_Config+0x7c>
 8001e52:	6812      	ldr	r2, [r2, #0]
 8001e54:	f412 2f80 	tst.w	r2, #262144	; 0x40000
 8001e58:	e7e9      	b.n	8001e2e <RCCEx_PLLSAI1_Config+0x7a>
 8001e5a:	f7fe fe73 	bl	8000b44 <HAL_GetTick>
 8001e5e:	1bc0      	subs	r0, r0, r7
 8001e60:	2802      	cmp	r0, #2
 8001e62:	d9c6      	bls.n	8001df2 <RCCEx_PLLSAI1_Config+0x3e>
 8001e64:	2003      	movs	r0, #3
 8001e66:	bdf8      	pop	{r3, r4, r5, r6, r7, pc}
 8001e68:	6921      	ldr	r1, [r4, #16]
 8001e6a:	68eb      	ldr	r3, [r5, #12]
 8001e6c:	f421 311f 	bic.w	r1, r1, #162816	; 0x27c00
 8001e70:	f421 7140 	bic.w	r1, r1, #768	; 0x300
 8001e74:	091b      	lsrs	r3, r3, #4
 8001e76:	4339      	orrs	r1, r7
 8001e78:	ea41 4143 	orr.w	r1, r1, r3, lsl #17
 8001e7c:	6121      	str	r1, [r4, #16]
 8001e7e:	6823      	ldr	r3, [r4, #0]
 8001e80:	f043 6380 	orr.w	r3, r3, #67108864	; 0x4000000
 8001e84:	6023      	str	r3, [r4, #0]
 8001e86:	f7fe fe5d 	bl	8000b44 <HAL_GetTick>
 8001e8a:	4606      	mov	r6, r0
 8001e8c:	6823      	ldr	r3, [r4, #0]
 8001e8e:	011b      	lsls	r3, r3, #4
 8001e90:	d512      	bpl.n	8001eb8 <RCCEx_PLLSAI1_Config+0x104>
 8001e92:	6923      	ldr	r3, [r4, #16]
 8001e94:	69aa      	ldr	r2, [r5, #24]
 8001e96:	4313      	orrs	r3, r2
 8001e98:	6123      	str	r3, [r4, #16]
 8001e9a:	2000      	movs	r0, #0
 8001e9c:	e7e3      	b.n	8001e66 <RCCEx_PLLSAI1_Config+0xb2>
 8001e9e:	696b      	ldr	r3, [r5, #20]
 8001ea0:	6922      	ldr	r2, [r4, #16]
 8001ea2:	085b      	lsrs	r3, r3, #1
 8001ea4:	1e59      	subs	r1, r3, #1
 8001ea6:	f022 63c0 	bic.w	r3, r2, #100663296	; 0x6000000
 8001eaa:	f423 43fe 	bic.w	r3, r3, #32512	; 0x7f00
 8001eae:	433b      	orrs	r3, r7
 8001eb0:	ea43 6341 	orr.w	r3, r3, r1, lsl #25
 8001eb4:	6123      	str	r3, [r4, #16]
 8001eb6:	e7e2      	b.n	8001e7e <RCCEx_PLLSAI1_Config+0xca>
 8001eb8:	f7fe fe44 	bl	8000b44 <HAL_GetTick>
 8001ebc:	1b80      	subs	r0, r0, r6
 8001ebe:	2802      	cmp	r0, #2
 8001ec0:	d9e4      	bls.n	8001e8c <RCCEx_PLLSAI1_Config+0xd8>
 8001ec2:	e7cf      	b.n	8001e64 <RCCEx_PLLSAI1_Config+0xb0>
 8001ec4:	2001      	movs	r0, #1
 8001ec6:	e7ce      	b.n	8001e66 <RCCEx_PLLSAI1_Config+0xb2>
 8001ec8:	40021000 	.word	0x40021000

08001ecc <RCCEx_PLLSAI2_Config>:
 8001ecc:	4a3d      	ldr	r2, [pc, #244]	; (8001fc4 <RCCEx_PLLSAI2_Config+0xf8>)
 8001ece:	b5f8      	push	{r3, r4, r5, r6, r7, lr}
 8001ed0:	460e      	mov	r6, r1
 8001ed2:	68d1      	ldr	r1, [r2, #12]
 8001ed4:	6803      	ldr	r3, [r0, #0]
 8001ed6:	f011 0f03 	tst.w	r1, #3
 8001eda:	4605      	mov	r5, r0
 8001edc:	4614      	mov	r4, r2
 8001ede:	d027      	beq.n	8001f30 <RCCEx_PLLSAI2_Config+0x64>
 8001ee0:	68d1      	ldr	r1, [r2, #12]
 8001ee2:	f001 0103 	and.w	r1, r1, #3
 8001ee6:	4299      	cmp	r1, r3
 8001ee8:	d169      	bne.n	8001fbe <RCCEx_PLLSAI2_Config+0xf2>
 8001eea:	2900      	cmp	r1, #0
 8001eec:	d067      	beq.n	8001fbe <RCCEx_PLLSAI2_Config+0xf2>
 8001eee:	68d3      	ldr	r3, [r2, #12]
 8001ef0:	6842      	ldr	r2, [r0, #4]
 8001ef2:	f3c3 1302 	ubfx	r3, r3, #4, #3
 8001ef6:	3301      	adds	r3, #1
 8001ef8:	4293      	cmp	r3, r2
 8001efa:	d160      	bne.n	8001fbe <RCCEx_PLLSAI2_Config+0xf2>
 8001efc:	6823      	ldr	r3, [r4, #0]
 8001efe:	f023 5380 	bic.w	r3, r3, #268435456	; 0x10000000
 8001f02:	6023      	str	r3, [r4, #0]
 8001f04:	f7fe fe1e 	bl	8000b44 <HAL_GetTick>
 8001f08:	4607      	mov	r7, r0
 8001f0a:	6823      	ldr	r3, [r4, #0]
 8001f0c:	009a      	lsls	r2, r3, #2
 8001f0e:	d42e      	bmi.n	8001f6e <RCCEx_PLLSAI2_Config+0xa2>
 8001f10:	68ab      	ldr	r3, [r5, #8]
 8001f12:	0218      	lsls	r0, r3, #8
 8001f14:	b396      	cbz	r6, 8001f7c <RCCEx_PLLSAI2_Config+0xb0>
 8001f16:	6963      	ldr	r3, [r4, #20]
 8001f18:	6929      	ldr	r1, [r5, #16]
 8001f1a:	f023 63c0 	bic.w	r3, r3, #100663296	; 0x6000000
 8001f1e:	0849      	lsrs	r1, r1, #1
 8001f20:	f423 43fe 	bic.w	r3, r3, #32512	; 0x7f00
 8001f24:	3901      	subs	r1, #1
 8001f26:	4303      	orrs	r3, r0
 8001f28:	ea43 6341 	orr.w	r3, r3, r1, lsl #25
 8001f2c:	6163      	str	r3, [r4, #20]
 8001f2e:	e030      	b.n	8001f92 <RCCEx_PLLSAI2_Config+0xc6>
 8001f30:	2b02      	cmp	r3, #2
 8001f32:	d011      	beq.n	8001f58 <RCCEx_PLLSAI2_Config+0x8c>
 8001f34:	2b03      	cmp	r3, #3
 8001f36:	d013      	beq.n	8001f60 <RCCEx_PLLSAI2_Config+0x94>
 8001f38:	2b01      	cmp	r3, #1
 8001f3a:	d140      	bne.n	8001fbe <RCCEx_PLLSAI2_Config+0xf2>
 8001f3c:	6812      	ldr	r2, [r2, #0]
 8001f3e:	f012 0f02 	tst.w	r2, #2
 8001f42:	d03c      	beq.n	8001fbe <RCCEx_PLLSAI2_Config+0xf2>
 8001f44:	68e0      	ldr	r0, [r4, #12]
 8001f46:	686a      	ldr	r2, [r5, #4]
 8001f48:	f020 0073 	bic.w	r0, r0, #115	; 0x73
 8001f4c:	3a01      	subs	r2, #1
 8001f4e:	4318      	orrs	r0, r3
 8001f50:	ea40 1002 	orr.w	r0, r0, r2, lsl #4
 8001f54:	60e0      	str	r0, [r4, #12]
 8001f56:	e7d1      	b.n	8001efc <RCCEx_PLLSAI2_Config+0x30>
 8001f58:	6812      	ldr	r2, [r2, #0]
 8001f5a:	f412 6f80 	tst.w	r2, #1024	; 0x400
 8001f5e:	e7f0      	b.n	8001f42 <RCCEx_PLLSAI2_Config+0x76>
 8001f60:	6811      	ldr	r1, [r2, #0]
 8001f62:	0389      	lsls	r1, r1, #14
 8001f64:	d4ee      	bmi.n	8001f44 <RCCEx_PLLSAI2_Config+0x78>
 8001f66:	6812      	ldr	r2, [r2, #0]
 8001f68:	f412 2f80 	tst.w	r2, #262144	; 0x40000
 8001f6c:	e7e9      	b.n	8001f42 <RCCEx_PLLSAI2_Config+0x76>
 8001f6e:	f7fe fde9 	bl	8000b44 <HAL_GetTick>
 8001f72:	1bc0      	subs	r0, r0, r7
 8001f74:	2802      	cmp	r0, #2
 8001f76:	d9c8      	bls.n	8001f0a <RCCEx_PLLSAI2_Config+0x3e>
 8001f78:	2003      	movs	r0, #3
 8001f7a:	bdf8      	pop	{r3, r4, r5, r6, r7, pc}
 8001f7c:	6962      	ldr	r2, [r4, #20]
 8001f7e:	68eb      	ldr	r3, [r5, #12]
 8001f80:	f422 321f 	bic.w	r2, r2, #162816	; 0x27c00
 8001f84:	f422 7240 	bic.w	r2, r2, #768	; 0x300
 8001f88:	091b      	lsrs	r3, r3, #4
 8001f8a:	4302      	orrs	r2, r0
 8001f8c:	ea42 4243 	orr.w	r2, r2, r3, lsl #17
 8001f90:	6162      	str	r2, [r4, #20]
 8001f92:	6823      	ldr	r3, [r4, #0]
 8001f94:	f043 5380 	orr.w	r3, r3, #268435456	; 0x10000000
 8001f98:	6023      	str	r3, [r4, #0]
 8001f9a:	f7fe fdd3 	bl	8000b44 <HAL_GetTick>
 8001f9e:	4606      	mov	r6, r0
 8001fa0:	6823      	ldr	r3, [r4, #0]
 8001fa2:	009b      	lsls	r3, r3, #2
 8001fa4:	d505      	bpl.n	8001fb2 <RCCEx_PLLSAI2_Config+0xe6>
 8001fa6:	6963      	ldr	r3, [r4, #20]
 8001fa8:	696a      	ldr	r2, [r5, #20]
 8001faa:	4313      	orrs	r3, r2
 8001fac:	6163      	str	r3, [r4, #20]
 8001fae:	2000      	movs	r0, #0
 8001fb0:	e7e3      	b.n	8001f7a <RCCEx_PLLSAI2_Config+0xae>
 8001fb2:	f7fe fdc7 	bl	8000b44 <HAL_GetTick>
 8001fb6:	1b80      	subs	r0, r0, r6
 8001fb8:	2802      	cmp	r0, #2
 8001fba:	d9f1      	bls.n	8001fa0 <RCCEx_PLLSAI2_Config+0xd4>
 8001fbc:	e7dc      	b.n	8001f78 <RCCEx_PLLSAI2_Config+0xac>
 8001fbe:	2001      	movs	r0, #1
 8001fc0:	e7db      	b.n	8001f7a <RCCEx_PLLSAI2_Config+0xae>
 8001fc2:	bf00      	nop
 8001fc4:	40021000 	.word	0x40021000

08001fc8 <HAL_RCCEx_PeriphCLKConfig>:
 8001fc8:	e92d 47f3 	stmdb	sp!, {r0, r1, r4, r5, r6, r7, r8, r9, sl, lr}
 8001fcc:	6806      	ldr	r6, [r0, #0]
 8001fce:	f416 6600 	ands.w	r6, r6, #2048	; 0x800
 8001fd2:	4604      	mov	r4, r0
 8001fd4:	d009      	beq.n	8001fea <HAL_RCCEx_PeriphCLKConfig+0x22>
 8001fd6:	6e41      	ldr	r1, [r0, #100]	; 0x64
 8001fd8:	f5b1 0f00 	cmp.w	r1, #8388608	; 0x800000
 8001fdc:	d022      	beq.n	8002024 <HAL_RCCEx_PeriphCLKConfig+0x5c>
 8001fde:	d813      	bhi.n	8002008 <HAL_RCCEx_PeriphCLKConfig+0x40>
 8001fe0:	b331      	cbz	r1, 8002030 <HAL_RCCEx_PeriphCLKConfig+0x68>
 8001fe2:	f5b1 0f80 	cmp.w	r1, #4194304	; 0x400000
 8001fe6:	d02a      	beq.n	800203e <HAL_RCCEx_PeriphCLKConfig+0x76>
 8001fe8:	2601      	movs	r6, #1
 8001fea:	6823      	ldr	r3, [r4, #0]
 8001fec:	04d8      	lsls	r0, r3, #19
 8001fee:	d509      	bpl.n	8002004 <HAL_RCCEx_PeriphCLKConfig+0x3c>
 8001ff0:	6ea1      	ldr	r1, [r4, #104]	; 0x68
 8001ff2:	f1b1 7f00 	cmp.w	r1, #33554432	; 0x2000000
 8001ff6:	d02c      	beq.n	8002052 <HAL_RCCEx_PeriphCLKConfig+0x8a>
 8001ff8:	d826      	bhi.n	8002048 <HAL_RCCEx_PeriphCLKConfig+0x80>
 8001ffa:	b381      	cbz	r1, 800205e <HAL_RCCEx_PeriphCLKConfig+0x96>
 8001ffc:	f1b1 7f80 	cmp.w	r1, #16777216	; 0x1000000
 8002000:	d070      	beq.n	80020e4 <HAL_RCCEx_PeriphCLKConfig+0x11c>
 8002002:	2601      	movs	r6, #1
 8002004:	4635      	mov	r5, r6
 8002006:	e039      	b.n	800207c <HAL_RCCEx_PeriphCLKConfig+0xb4>
 8002008:	f5b1 0f40 	cmp.w	r1, #12582912	; 0xc00000
 800200c:	d1ec      	bne.n	8001fe8 <HAL_RCCEx_PeriphCLKConfig+0x20>
 800200e:	4ab5      	ldr	r2, [pc, #724]	; (80022e4 <HAL_RCCEx_PeriphCLKConfig+0x31c>)
 8002010:	6e61      	ldr	r1, [r4, #100]	; 0x64
 8002012:	f8d2 3088 	ldr.w	r3, [r2, #136]	; 0x88
 8002016:	f423 0340 	bic.w	r3, r3, #12582912	; 0xc00000
 800201a:	430b      	orrs	r3, r1
 800201c:	f8c2 3088 	str.w	r3, [r2, #136]	; 0x88
 8002020:	2600      	movs	r6, #0
 8002022:	e7e2      	b.n	8001fea <HAL_RCCEx_PeriphCLKConfig+0x22>
 8002024:	4aaf      	ldr	r2, [pc, #700]	; (80022e4 <HAL_RCCEx_PeriphCLKConfig+0x31c>)
 8002026:	68d3      	ldr	r3, [r2, #12]
 8002028:	f443 3380 	orr.w	r3, r3, #65536	; 0x10000
 800202c:	60d3      	str	r3, [r2, #12]
 800202e:	e7ee      	b.n	800200e <HAL_RCCEx_PeriphCLKConfig+0x46>
 8002030:	3004      	adds	r0, #4
 8002032:	f7ff febf 	bl	8001db4 <RCCEx_PLLSAI1_Config>
 8002036:	4606      	mov	r6, r0
 8002038:	2800      	cmp	r0, #0
 800203a:	d1d6      	bne.n	8001fea <HAL_RCCEx_PeriphCLKConfig+0x22>
 800203c:	e7e7      	b.n	800200e <HAL_RCCEx_PeriphCLKConfig+0x46>
 800203e:	2100      	movs	r1, #0
 8002040:	3020      	adds	r0, #32
 8002042:	f7ff ff43 	bl	8001ecc <RCCEx_PLLSAI2_Config>
 8002046:	e7f6      	b.n	8002036 <HAL_RCCEx_PeriphCLKConfig+0x6e>
 8002048:	f1b1 7f40 	cmp.w	r1, #50331648	; 0x3000000
 800204c:	d1d9      	bne.n	8002002 <HAL_RCCEx_PeriphCLKConfig+0x3a>
 800204e:	4635      	mov	r5, r6
 8002050:	e009      	b.n	8002066 <HAL_RCCEx_PeriphCLKConfig+0x9e>
 8002052:	4aa4      	ldr	r2, [pc, #656]	; (80022e4 <HAL_RCCEx_PeriphCLKConfig+0x31c>)
 8002054:	68d3      	ldr	r3, [r2, #12]
 8002056:	f443 3380 	orr.w	r3, r3, #65536	; 0x10000
 800205a:	60d3      	str	r3, [r2, #12]
 800205c:	e7f7      	b.n	800204e <HAL_RCCEx_PeriphCLKConfig+0x86>
 800205e:	1d20      	adds	r0, r4, #4
 8002060:	f7ff fea8 	bl	8001db4 <RCCEx_PLLSAI1_Config>
 8002064:	4605      	mov	r5, r0
 8002066:	2d00      	cmp	r5, #0
 8002068:	d142      	bne.n	80020f0 <HAL_RCCEx_PeriphCLKConfig+0x128>
 800206a:	4a9e      	ldr	r2, [pc, #632]	; (80022e4 <HAL_RCCEx_PeriphCLKConfig+0x31c>)
 800206c:	6ea1      	ldr	r1, [r4, #104]	; 0x68
 800206e:	f8d2 3088 	ldr.w	r3, [r2, #136]	; 0x88
 8002072:	f023 7340 	bic.w	r3, r3, #50331648	; 0x3000000
 8002076:	430b      	orrs	r3, r1
 8002078:	f8c2 3088 	str.w	r3, [r2, #136]	; 0x88
 800207c:	6823      	ldr	r3, [r4, #0]
 800207e:	0399      	lsls	r1, r3, #14
 8002080:	f140 815e 	bpl.w	8002340 <HAL_RCCEx_PeriphCLKConfig+0x378>
 8002084:	4f97      	ldr	r7, [pc, #604]	; (80022e4 <HAL_RCCEx_PeriphCLKConfig+0x31c>)
 8002086:	6dbb      	ldr	r3, [r7, #88]	; 0x58
 8002088:	00da      	lsls	r2, r3, #3
 800208a:	d433      	bmi.n	80020f4 <HAL_RCCEx_PeriphCLKConfig+0x12c>
 800208c:	6dbb      	ldr	r3, [r7, #88]	; 0x58
 800208e:	f043 5380 	orr.w	r3, r3, #268435456	; 0x10000000
 8002092:	65bb      	str	r3, [r7, #88]	; 0x58
 8002094:	6dbb      	ldr	r3, [r7, #88]	; 0x58
 8002096:	f003 5380 	and.w	r3, r3, #268435456	; 0x10000000
 800209a:	9301      	str	r3, [sp, #4]
 800209c:	9b01      	ldr	r3, [sp, #4]
 800209e:	f04f 0801 	mov.w	r8, #1
 80020a2:	f8df 9244 	ldr.w	r9, [pc, #580]	; 80022e8 <HAL_RCCEx_PeriphCLKConfig+0x320>
 80020a6:	f8d9 3000 	ldr.w	r3, [r9]
 80020aa:	f443 7380 	orr.w	r3, r3, #256	; 0x100
 80020ae:	f8c9 3000 	str.w	r3, [r9]
 80020b2:	f7fe fd47 	bl	8000b44 <HAL_GetTick>
 80020b6:	4682      	mov	sl, r0
 80020b8:	f8d9 3000 	ldr.w	r3, [r9]
 80020bc:	05db      	lsls	r3, r3, #23
 80020be:	d51c      	bpl.n	80020fa <HAL_RCCEx_PeriphCLKConfig+0x132>
 80020c0:	bb15      	cbnz	r5, 8002108 <HAL_RCCEx_PeriphCLKConfig+0x140>
 80020c2:	f8d7 3090 	ldr.w	r3, [r7, #144]	; 0x90
 80020c6:	f413 7340 	ands.w	r3, r3, #768	; 0x300
 80020ca:	f040 810f 	bne.w	80022ec <HAL_RCCEx_PeriphCLKConfig+0x324>
 80020ce:	f8d7 3090 	ldr.w	r3, [r7, #144]	; 0x90
 80020d2:	f8d4 2084 	ldr.w	r2, [r4, #132]	; 0x84
 80020d6:	f423 7340 	bic.w	r3, r3, #768	; 0x300
 80020da:	4313      	orrs	r3, r2
 80020dc:	f8c7 3090 	str.w	r3, [r7, #144]	; 0x90
 80020e0:	4635      	mov	r5, r6
 80020e2:	e011      	b.n	8002108 <HAL_RCCEx_PeriphCLKConfig+0x140>
 80020e4:	2100      	movs	r1, #0
 80020e6:	f104 0020 	add.w	r0, r4, #32
 80020ea:	f7ff feef 	bl	8001ecc <RCCEx_PLLSAI2_Config>
 80020ee:	e7b9      	b.n	8002064 <HAL_RCCEx_PeriphCLKConfig+0x9c>
 80020f0:	462e      	mov	r6, r5
 80020f2:	e7c3      	b.n	800207c <HAL_RCCEx_PeriphCLKConfig+0xb4>
 80020f4:	f04f 0800 	mov.w	r8, #0
 80020f8:	e7d3      	b.n	80020a2 <HAL_RCCEx_PeriphCLKConfig+0xda>
 80020fa:	f7fe fd23 	bl	8000b44 <HAL_GetTick>
 80020fe:	eba0 000a 	sub.w	r0, r0, sl
 8002102:	2802      	cmp	r0, #2
 8002104:	d9d8      	bls.n	80020b8 <HAL_RCCEx_PeriphCLKConfig+0xf0>
 8002106:	2503      	movs	r5, #3
 8002108:	f1b8 0f00 	cmp.w	r8, #0
 800210c:	d003      	beq.n	8002116 <HAL_RCCEx_PeriphCLKConfig+0x14e>
 800210e:	6dbb      	ldr	r3, [r7, #88]	; 0x58
 8002110:	f023 5380 	bic.w	r3, r3, #268435456	; 0x10000000
 8002114:	65bb      	str	r3, [r7, #88]	; 0x58
 8002116:	6823      	ldr	r3, [r4, #0]
 8002118:	07da      	lsls	r2, r3, #31
 800211a:	d508      	bpl.n	800212e <HAL_RCCEx_PeriphCLKConfig+0x166>
 800211c:	4971      	ldr	r1, [pc, #452]	; (80022e4 <HAL_RCCEx_PeriphCLKConfig+0x31c>)
 800211e:	6ba0      	ldr	r0, [r4, #56]	; 0x38
 8002120:	f8d1 2088 	ldr.w	r2, [r1, #136]	; 0x88
 8002124:	f022 0203 	bic.w	r2, r2, #3
 8002128:	4302      	orrs	r2, r0
 800212a:	f8c1 2088 	str.w	r2, [r1, #136]	; 0x88
 800212e:	079f      	lsls	r7, r3, #30
 8002130:	d508      	bpl.n	8002144 <HAL_RCCEx_PeriphCLKConfig+0x17c>
 8002132:	496c      	ldr	r1, [pc, #432]	; (80022e4 <HAL_RCCEx_PeriphCLKConfig+0x31c>)
 8002134:	6be0      	ldr	r0, [r4, #60]	; 0x3c
 8002136:	f8d1 2088 	ldr.w	r2, [r1, #136]	; 0x88
 800213a:	f022 020c 	bic.w	r2, r2, #12
 800213e:	4302      	orrs	r2, r0
 8002140:	f8c1 2088 	str.w	r2, [r1, #136]	; 0x88
 8002144:	075e      	lsls	r6, r3, #29
 8002146:	d508      	bpl.n	800215a <HAL_RCCEx_PeriphCLKConfig+0x192>
 8002148:	4966      	ldr	r1, [pc, #408]	; (80022e4 <HAL_RCCEx_PeriphCLKConfig+0x31c>)
 800214a:	6c20      	ldr	r0, [r4, #64]	; 0x40
 800214c:	f8d1 2088 	ldr.w	r2, [r1, #136]	; 0x88
 8002150:	f022 0230 	bic.w	r2, r2, #48	; 0x30
 8002154:	4302      	orrs	r2, r0
 8002156:	f8c1 2088 	str.w	r2, [r1, #136]	; 0x88
 800215a:	0718      	lsls	r0, r3, #28
 800215c:	d508      	bpl.n	8002170 <HAL_RCCEx_PeriphCLKConfig+0x1a8>
 800215e:	4961      	ldr	r1, [pc, #388]	; (80022e4 <HAL_RCCEx_PeriphCLKConfig+0x31c>)
 8002160:	6c60      	ldr	r0, [r4, #68]	; 0x44
 8002162:	f8d1 2088 	ldr.w	r2, [r1, #136]	; 0x88
 8002166:	f022 02c0 	bic.w	r2, r2, #192	; 0xc0
 800216a:	4302      	orrs	r2, r0
 800216c:	f8c1 2088 	str.w	r2, [r1, #136]	; 0x88
 8002170:	06d9      	lsls	r1, r3, #27
 8002172:	d508      	bpl.n	8002186 <HAL_RCCEx_PeriphCLKConfig+0x1be>
 8002174:	495b      	ldr	r1, [pc, #364]	; (80022e4 <HAL_RCCEx_PeriphCLKConfig+0x31c>)
 8002176:	6ca0      	ldr	r0, [r4, #72]	; 0x48
 8002178:	f8d1 2088 	ldr.w	r2, [r1, #136]	; 0x88
 800217c:	f422 7240 	bic.w	r2, r2, #768	; 0x300
 8002180:	4302      	orrs	r2, r0
 8002182:	f8c1 2088 	str.w	r2, [r1, #136]	; 0x88
 8002186:	069a      	lsls	r2, r3, #26
 8002188:	d508      	bpl.n	800219c <HAL_RCCEx_PeriphCLKConfig+0x1d4>
 800218a:	4956      	ldr	r1, [pc, #344]	; (80022e4 <HAL_RCCEx_PeriphCLKConfig+0x31c>)
 800218c:	6ce0      	ldr	r0, [r4, #76]	; 0x4c
 800218e:	f8d1 2088 	ldr.w	r2, [r1, #136]	; 0x88
 8002192:	f422 6240 	bic.w	r2, r2, #3072	; 0xc00
 8002196:	4302      	orrs	r2, r0
 8002198:	f8c1 2088 	str.w	r2, [r1, #136]	; 0x88
 800219c:	059f      	lsls	r7, r3, #22
 800219e:	d508      	bpl.n	80021b2 <HAL_RCCEx_PeriphCLKConfig+0x1ea>
 80021a0:	4950      	ldr	r1, [pc, #320]	; (80022e4 <HAL_RCCEx_PeriphCLKConfig+0x31c>)
 80021a2:	6de0      	ldr	r0, [r4, #92]	; 0x5c
 80021a4:	f8d1 2088 	ldr.w	r2, [r1, #136]	; 0x88
 80021a8:	f422 2240 	bic.w	r2, r2, #786432	; 0xc0000
 80021ac:	4302      	orrs	r2, r0
 80021ae:	f8c1 2088 	str.w	r2, [r1, #136]	; 0x88
 80021b2:	055e      	lsls	r6, r3, #21
 80021b4:	d508      	bpl.n	80021c8 <HAL_RCCEx_PeriphCLKConfig+0x200>
 80021b6:	494b      	ldr	r1, [pc, #300]	; (80022e4 <HAL_RCCEx_PeriphCLKConfig+0x31c>)
 80021b8:	6e20      	ldr	r0, [r4, #96]	; 0x60
 80021ba:	f8d1 2088 	ldr.w	r2, [r1, #136]	; 0x88
 80021be:	f422 1240 	bic.w	r2, r2, #3145728	; 0x300000
 80021c2:	4302      	orrs	r2, r0
 80021c4:	f8c1 2088 	str.w	r2, [r1, #136]	; 0x88
 80021c8:	0658      	lsls	r0, r3, #25
 80021ca:	d508      	bpl.n	80021de <HAL_RCCEx_PeriphCLKConfig+0x216>
 80021cc:	4945      	ldr	r1, [pc, #276]	; (80022e4 <HAL_RCCEx_PeriphCLKConfig+0x31c>)
 80021ce:	6d20      	ldr	r0, [r4, #80]	; 0x50
 80021d0:	f8d1 2088 	ldr.w	r2, [r1, #136]	; 0x88
 80021d4:	f422 5240 	bic.w	r2, r2, #12288	; 0x3000
 80021d8:	4302      	orrs	r2, r0
 80021da:	f8c1 2088 	str.w	r2, [r1, #136]	; 0x88
 80021de:	0619      	lsls	r1, r3, #24
 80021e0:	d508      	bpl.n	80021f4 <HAL_RCCEx_PeriphCLKConfig+0x22c>
 80021e2:	4940      	ldr	r1, [pc, #256]	; (80022e4 <HAL_RCCEx_PeriphCLKConfig+0x31c>)
 80021e4:	6d60      	ldr	r0, [r4, #84]	; 0x54
 80021e6:	f8d1 2088 	ldr.w	r2, [r1, #136]	; 0x88
 80021ea:	f422 4240 	bic.w	r2, r2, #49152	; 0xc000
 80021ee:	4302      	orrs	r2, r0
 80021f0:	f8c1 2088 	str.w	r2, [r1, #136]	; 0x88
 80021f4:	05da      	lsls	r2, r3, #23
 80021f6:	d508      	bpl.n	800220a <HAL_RCCEx_PeriphCLKConfig+0x242>
 80021f8:	493a      	ldr	r1, [pc, #232]	; (80022e4 <HAL_RCCEx_PeriphCLKConfig+0x31c>)
 80021fa:	6da0      	ldr	r0, [r4, #88]	; 0x58
 80021fc:	f8d1 2088 	ldr.w	r2, [r1, #136]	; 0x88
 8002200:	f422 3240 	bic.w	r2, r2, #196608	; 0x30000
 8002204:	4302      	orrs	r2, r0
 8002206:	f8c1 2088 	str.w	r2, [r1, #136]	; 0x88
 800220a:	049b      	lsls	r3, r3, #18
 800220c:	d510      	bpl.n	8002230 <HAL_RCCEx_PeriphCLKConfig+0x268>
 800220e:	4a35      	ldr	r2, [pc, #212]	; (80022e4 <HAL_RCCEx_PeriphCLKConfig+0x31c>)
 8002210:	6ee1      	ldr	r1, [r4, #108]	; 0x6c
 8002212:	f8d2 3088 	ldr.w	r3, [r2, #136]	; 0x88
 8002216:	f023 6340 	bic.w	r3, r3, #201326592	; 0xc000000
 800221a:	430b      	orrs	r3, r1
 800221c:	f1b1 6f00 	cmp.w	r1, #134217728	; 0x8000000
 8002220:	f8c2 3088 	str.w	r3, [r2, #136]	; 0x88
 8002224:	f040 808e 	bne.w	8002344 <HAL_RCCEx_PeriphCLKConfig+0x37c>
 8002228:	68d3      	ldr	r3, [r2, #12]
 800222a:	f443 1380 	orr.w	r3, r3, #1048576	; 0x100000
 800222e:	60d3      	str	r3, [r2, #12]
 8002230:	6823      	ldr	r3, [r4, #0]
 8002232:	031f      	lsls	r7, r3, #12
 8002234:	d510      	bpl.n	8002258 <HAL_RCCEx_PeriphCLKConfig+0x290>
 8002236:	4a2b      	ldr	r2, [pc, #172]	; (80022e4 <HAL_RCCEx_PeriphCLKConfig+0x31c>)
 8002238:	6f21      	ldr	r1, [r4, #112]	; 0x70
 800223a:	f8d2 3088 	ldr.w	r3, [r2, #136]	; 0x88
 800223e:	f023 6340 	bic.w	r3, r3, #201326592	; 0xc000000
 8002242:	430b      	orrs	r3, r1
 8002244:	f1b1 6f00 	cmp.w	r1, #134217728	; 0x8000000
 8002248:	f8c2 3088 	str.w	r3, [r2, #136]	; 0x88
 800224c:	f040 8086 	bne.w	800235c <HAL_RCCEx_PeriphCLKConfig+0x394>
 8002250:	68d3      	ldr	r3, [r2, #12]
 8002252:	f443 1380 	orr.w	r3, r3, #1048576	; 0x100000
 8002256:	60d3      	str	r3, [r2, #12]
 8002258:	6823      	ldr	r3, [r4, #0]
 800225a:	035e      	lsls	r6, r3, #13
 800225c:	d50f      	bpl.n	800227e <HAL_RCCEx_PeriphCLKConfig+0x2b6>
 800225e:	4a21      	ldr	r2, [pc, #132]	; (80022e4 <HAL_RCCEx_PeriphCLKConfig+0x31c>)
 8002260:	6f61      	ldr	r1, [r4, #116]	; 0x74
 8002262:	f8d2 3088 	ldr.w	r3, [r2, #136]	; 0x88
 8002266:	f023 6340 	bic.w	r3, r3, #201326592	; 0xc000000
 800226a:	430b      	orrs	r3, r1
 800226c:	f1b1 6f00 	cmp.w	r1, #134217728	; 0x8000000
 8002270:	f8c2 3088 	str.w	r3, [r2, #136]	; 0x88
 8002274:	d17e      	bne.n	8002374 <HAL_RCCEx_PeriphCLKConfig+0x3ac>
 8002276:	68d3      	ldr	r3, [r2, #12]
 8002278:	f443 1380 	orr.w	r3, r3, #1048576	; 0x100000
 800227c:	60d3      	str	r3, [r2, #12]
 800227e:	6823      	ldr	r3, [r4, #0]
 8002280:	0458      	lsls	r0, r3, #17
 8002282:	d512      	bpl.n	80022aa <HAL_RCCEx_PeriphCLKConfig+0x2e2>
 8002284:	4917      	ldr	r1, [pc, #92]	; (80022e4 <HAL_RCCEx_PeriphCLKConfig+0x31c>)
 8002286:	6fa2      	ldr	r2, [r4, #120]	; 0x78
 8002288:	f8d1 3088 	ldr.w	r3, [r1, #136]	; 0x88
 800228c:	f023 5340 	bic.w	r3, r3, #805306368	; 0x30000000
 8002290:	4313      	orrs	r3, r2
 8002292:	f1b2 5f80 	cmp.w	r2, #268435456	; 0x10000000
 8002296:	f8c1 3088 	str.w	r3, [r1, #136]	; 0x88
 800229a:	d176      	bne.n	800238a <HAL_RCCEx_PeriphCLKConfig+0x3c2>
 800229c:	2102      	movs	r1, #2
 800229e:	1d20      	adds	r0, r4, #4
 80022a0:	f7ff fd88 	bl	8001db4 <RCCEx_PLLSAI1_Config>
 80022a4:	2800      	cmp	r0, #0
 80022a6:	bf18      	it	ne
 80022a8:	4605      	movne	r5, r0
 80022aa:	6822      	ldr	r2, [r4, #0]
 80022ac:	0411      	lsls	r1, r2, #16
 80022ae:	d508      	bpl.n	80022c2 <HAL_RCCEx_PeriphCLKConfig+0x2fa>
 80022b0:	490c      	ldr	r1, [pc, #48]	; (80022e4 <HAL_RCCEx_PeriphCLKConfig+0x31c>)
 80022b2:	6fe0      	ldr	r0, [r4, #124]	; 0x7c
 80022b4:	f8d1 3088 	ldr.w	r3, [r1, #136]	; 0x88
 80022b8:	f023 4380 	bic.w	r3, r3, #1073741824	; 0x40000000
 80022bc:	4303      	orrs	r3, r0
 80022be:	f8c1 3088 	str.w	r3, [r1, #136]	; 0x88
 80022c2:	03d3      	lsls	r3, r2, #15
 80022c4:	d509      	bpl.n	80022da <HAL_RCCEx_PeriphCLKConfig+0x312>
 80022c6:	4a07      	ldr	r2, [pc, #28]	; (80022e4 <HAL_RCCEx_PeriphCLKConfig+0x31c>)
 80022c8:	f8d4 1080 	ldr.w	r1, [r4, #128]	; 0x80
 80022cc:	f8d2 3088 	ldr.w	r3, [r2, #136]	; 0x88
 80022d0:	f023 4300 	bic.w	r3, r3, #2147483648	; 0x80000000
 80022d4:	430b      	orrs	r3, r1
 80022d6:	f8c2 3088 	str.w	r3, [r2, #136]	; 0x88
 80022da:	4628      	mov	r0, r5
 80022dc:	b002      	add	sp, #8
 80022de:	e8bd 87f0 	ldmia.w	sp!, {r4, r5, r6, r7, r8, r9, sl, pc}
 80022e2:	bf00      	nop
 80022e4:	40021000 	.word	0x40021000
 80022e8:	40007000 	.word	0x40007000
 80022ec:	f8d4 2084 	ldr.w	r2, [r4, #132]	; 0x84
 80022f0:	4293      	cmp	r3, r2
 80022f2:	f43f aeec 	beq.w	80020ce <HAL_RCCEx_PeriphCLKConfig+0x106>
 80022f6:	f8d7 2090 	ldr.w	r2, [r7, #144]	; 0x90
 80022fa:	f8d7 3090 	ldr.w	r3, [r7, #144]	; 0x90
 80022fe:	f443 3380 	orr.w	r3, r3, #65536	; 0x10000
 8002302:	f8c7 3090 	str.w	r3, [r7, #144]	; 0x90
 8002306:	f8d7 3090 	ldr.w	r3, [r7, #144]	; 0x90
 800230a:	f422 7140 	bic.w	r1, r2, #768	; 0x300
 800230e:	f423 3380 	bic.w	r3, r3, #65536	; 0x10000
 8002312:	07d0      	lsls	r0, r2, #31
 8002314:	f8c7 3090 	str.w	r3, [r7, #144]	; 0x90
 8002318:	f8c7 1090 	str.w	r1, [r7, #144]	; 0x90
 800231c:	f57f aed7 	bpl.w	80020ce <HAL_RCCEx_PeriphCLKConfig+0x106>
 8002320:	f7fe fc10 	bl	8000b44 <HAL_GetTick>
 8002324:	f241 3988 	movw	r9, #5000	; 0x1388
 8002328:	4605      	mov	r5, r0
 800232a:	f8d7 3090 	ldr.w	r3, [r7, #144]	; 0x90
 800232e:	0799      	lsls	r1, r3, #30
 8002330:	f53f aecd 	bmi.w	80020ce <HAL_RCCEx_PeriphCLKConfig+0x106>
 8002334:	f7fe fc06 	bl	8000b44 <HAL_GetTick>
 8002338:	1b40      	subs	r0, r0, r5
 800233a:	4548      	cmp	r0, r9
 800233c:	d9f5      	bls.n	800232a <HAL_RCCEx_PeriphCLKConfig+0x362>
 800233e:	e6e2      	b.n	8002106 <HAL_RCCEx_PeriphCLKConfig+0x13e>
 8002340:	4635      	mov	r5, r6
 8002342:	e6e8      	b.n	8002116 <HAL_RCCEx_PeriphCLKConfig+0x14e>
 8002344:	f1b1 6f80 	cmp.w	r1, #67108864	; 0x4000000
 8002348:	f47f af72 	bne.w	8002230 <HAL_RCCEx_PeriphCLKConfig+0x268>
 800234c:	2101      	movs	r1, #1
 800234e:	1d20      	adds	r0, r4, #4
 8002350:	f7ff fd30 	bl	8001db4 <RCCEx_PLLSAI1_Config>
 8002354:	2800      	cmp	r0, #0
 8002356:	bf18      	it	ne
 8002358:	4605      	movne	r5, r0
 800235a:	e769      	b.n	8002230 <HAL_RCCEx_PeriphCLKConfig+0x268>
 800235c:	f1b1 6f80 	cmp.w	r1, #67108864	; 0x4000000
 8002360:	f47f af7a 	bne.w	8002258 <HAL_RCCEx_PeriphCLKConfig+0x290>
 8002364:	2101      	movs	r1, #1
 8002366:	1d20      	adds	r0, r4, #4
 8002368:	f7ff fd24 	bl	8001db4 <RCCEx_PLLSAI1_Config>
 800236c:	2800      	cmp	r0, #0
 800236e:	bf18      	it	ne
 8002370:	4605      	movne	r5, r0
 8002372:	e771      	b.n	8002258 <HAL_RCCEx_PeriphCLKConfig+0x290>
 8002374:	f1b1 6f80 	cmp.w	r1, #67108864	; 0x4000000
 8002378:	d181      	bne.n	800227e <HAL_RCCEx_PeriphCLKConfig+0x2b6>
 800237a:	2101      	movs	r1, #1
 800237c:	1d20      	adds	r0, r4, #4
 800237e:	f7ff fd19 	bl	8001db4 <RCCEx_PLLSAI1_Config>
 8002382:	2800      	cmp	r0, #0
 8002384:	bf18      	it	ne
 8002386:	4605      	movne	r5, r0
 8002388:	e779      	b.n	800227e <HAL_RCCEx_PeriphCLKConfig+0x2b6>
 800238a:	f1b2 5f00 	cmp.w	r2, #536870912	; 0x20000000
 800238e:	d18c      	bne.n	80022aa <HAL_RCCEx_PeriphCLKConfig+0x2e2>
 8002390:	2102      	movs	r1, #2
 8002392:	f104 0020 	add.w	r0, r4, #32
 8002396:	f7ff fd99 	bl	8001ecc <RCCEx_PLLSAI2_Config>
 800239a:	e783      	b.n	80022a4 <HAL_RCCEx_PeriphCLKConfig+0x2dc>

0800239c <TIM_Base_SetConfig>:
 800239c:	4a30      	ldr	r2, [pc, #192]	; (8002460 <TIM_Base_SetConfig+0xc4>)
 800239e:	6803      	ldr	r3, [r0, #0]
 80023a0:	4290      	cmp	r0, r2
 80023a2:	d012      	beq.n	80023ca <TIM_Base_SetConfig+0x2e>
 80023a4:	f1b0 4f80 	cmp.w	r0, #1073741824	; 0x40000000
 80023a8:	d00f      	beq.n	80023ca <TIM_Base_SetConfig+0x2e>
 80023aa:	f5a2 3294 	sub.w	r2, r2, #75776	; 0x12800
 80023ae:	4290      	cmp	r0, r2
 80023b0:	d00b      	beq.n	80023ca <TIM_Base_SetConfig+0x2e>
 80023b2:	f502 6280 	add.w	r2, r2, #1024	; 0x400
 80023b6:	4290      	cmp	r0, r2
 80023b8:	d007      	beq.n	80023ca <TIM_Base_SetConfig+0x2e>
 80023ba:	f502 6280 	add.w	r2, r2, #1024	; 0x400
 80023be:	4290      	cmp	r0, r2
 80023c0:	d003      	beq.n	80023ca <TIM_Base_SetConfig+0x2e>
 80023c2:	f502 3294 	add.w	r2, r2, #75776	; 0x12800
 80023c6:	4290      	cmp	r0, r2
 80023c8:	d119      	bne.n	80023fe <TIM_Base_SetConfig+0x62>
 80023ca:	684a      	ldr	r2, [r1, #4]
 80023cc:	f023 0370 	bic.w	r3, r3, #112	; 0x70
 80023d0:	4313      	orrs	r3, r2
 80023d2:	4a23      	ldr	r2, [pc, #140]	; (8002460 <TIM_Base_SetConfig+0xc4>)
 80023d4:	4290      	cmp	r0, r2
 80023d6:	d01d      	beq.n	8002414 <TIM_Base_SetConfig+0x78>
 80023d8:	f1b0 4f80 	cmp.w	r0, #1073741824	; 0x40000000
 80023dc:	d01a      	beq.n	8002414 <TIM_Base_SetConfig+0x78>
 80023de:	f5a2 3294 	sub.w	r2, r2, #75776	; 0x12800
 80023e2:	4290      	cmp	r0, r2
 80023e4:	d016      	beq.n	8002414 <TIM_Base_SetConfig+0x78>
 80023e6:	f502 6280 	add.w	r2, r2, #1024	; 0x400
 80023ea:	4290      	cmp	r0, r2
 80023ec:	d012      	beq.n	8002414 <TIM_Base_SetConfig+0x78>
 80023ee:	f502 6280 	add.w	r2, r2, #1024	; 0x400
 80023f2:	4290      	cmp	r0, r2
 80023f4:	d00e      	beq.n	8002414 <TIM_Base_SetConfig+0x78>
 80023f6:	f502 3294 	add.w	r2, r2, #75776	; 0x12800
 80023fa:	4290      	cmp	r0, r2
 80023fc:	d00a      	beq.n	8002414 <TIM_Base_SetConfig+0x78>
 80023fe:	4a19      	ldr	r2, [pc, #100]	; (8002464 <TIM_Base_SetConfig+0xc8>)
 8002400:	4290      	cmp	r0, r2
 8002402:	d007      	beq.n	8002414 <TIM_Base_SetConfig+0x78>
 8002404:	f502 6280 	add.w	r2, r2, #1024	; 0x400
 8002408:	4290      	cmp	r0, r2
 800240a:	d003      	beq.n	8002414 <TIM_Base_SetConfig+0x78>
 800240c:	f502 6280 	add.w	r2, r2, #1024	; 0x400
 8002410:	4290      	cmp	r0, r2
 8002412:	d103      	bne.n	800241c <TIM_Base_SetConfig+0x80>
 8002414:	68ca      	ldr	r2, [r1, #12]
 8002416:	f423 7340 	bic.w	r3, r3, #768	; 0x300
 800241a:	4313      	orrs	r3, r2
 800241c:	694a      	ldr	r2, [r1, #20]
 800241e:	f023 0380 	bic.w	r3, r3, #128	; 0x80
 8002422:	4313      	orrs	r3, r2
 8002424:	6003      	str	r3, [r0, #0]
 8002426:	688b      	ldr	r3, [r1, #8]
 8002428:	62c3      	str	r3, [r0, #44]	; 0x2c
 800242a:	680b      	ldr	r3, [r1, #0]
 800242c:	6283      	str	r3, [r0, #40]	; 0x28
 800242e:	4b0c      	ldr	r3, [pc, #48]	; (8002460 <TIM_Base_SetConfig+0xc4>)
 8002430:	4298      	cmp	r0, r3
 8002432:	d00f      	beq.n	8002454 <TIM_Base_SetConfig+0xb8>
 8002434:	f503 6300 	add.w	r3, r3, #2048	; 0x800
 8002438:	4298      	cmp	r0, r3
 800243a:	d00b      	beq.n	8002454 <TIM_Base_SetConfig+0xb8>
 800243c:	f503 6340 	add.w	r3, r3, #3072	; 0xc00
 8002440:	4298      	cmp	r0, r3
 8002442:	d007      	beq.n	8002454 <TIM_Base_SetConfig+0xb8>
 8002444:	f503 6380 	add.w	r3, r3, #1024	; 0x400
 8002448:	4298      	cmp	r0, r3
 800244a:	d003      	beq.n	8002454 <TIM_Base_SetConfig+0xb8>
 800244c:	f503 6380 	add.w	r3, r3, #1024	; 0x400
 8002450:	4298      	cmp	r0, r3
 8002452:	d101      	bne.n	8002458 <TIM_Base_SetConfig+0xbc>
 8002454:	690b      	ldr	r3, [r1, #16]
 8002456:	6303      	str	r3, [r0, #48]	; 0x30
 8002458:	2301      	movs	r3, #1
 800245a:	6143      	str	r3, [r0, #20]
 800245c:	4770      	bx	lr
 800245e:	bf00      	nop
 8002460:	40012c00 	.word	0x40012c00
 8002464:	40014000 	.word	0x40014000

08002468 <HAL_TIM_Base_Init>:
 8002468:	b510      	push	{r4, lr}
 800246a:	4604      	mov	r4, r0
 800246c:	b350      	cbz	r0, 80024c4 <HAL_TIM_Base_Init+0x5c>
 800246e:	f890 303d 	ldrb.w	r3, [r0, #61]	; 0x3d
 8002472:	f003 02ff 	and.w	r2, r3, #255	; 0xff
 8002476:	b91b      	cbnz	r3, 8002480 <HAL_TIM_Base_Init+0x18>
 8002478:	f880 203c 	strb.w	r2, [r0, #60]	; 0x3c
 800247c:	f7fe fa66 	bl	800094c <HAL_TIM_Base_MspInit>
 8002480:	2302      	movs	r3, #2
 8002482:	6820      	ldr	r0, [r4, #0]
 8002484:	f884 303d 	strb.w	r3, [r4, #61]	; 0x3d
 8002488:	1d21      	adds	r1, r4, #4
 800248a:	f7ff ff87 	bl	800239c <TIM_Base_SetConfig>
 800248e:	2301      	movs	r3, #1
 8002490:	f884 3048 	strb.w	r3, [r4, #72]	; 0x48
 8002494:	2000      	movs	r0, #0
 8002496:	f884 303e 	strb.w	r3, [r4, #62]	; 0x3e
 800249a:	f884 303f 	strb.w	r3, [r4, #63]	; 0x3f
 800249e:	f884 3040 	strb.w	r3, [r4, #64]	; 0x40
 80024a2:	f884 3041 	strb.w	r3, [r4, #65]	; 0x41
 80024a6:	f884 3042 	strb.w	r3, [r4, #66]	; 0x42
 80024aa:	f884 3043 	strb.w	r3, [r4, #67]	; 0x43
 80024ae:	f884 3044 	strb.w	r3, [r4, #68]	; 0x44
 80024b2:	f884 3045 	strb.w	r3, [r4, #69]	; 0x45
 80024b6:	f884 3046 	strb.w	r3, [r4, #70]	; 0x46
 80024ba:	f884 3047 	strb.w	r3, [r4, #71]	; 0x47
 80024be:	f884 303d 	strb.w	r3, [r4, #61]	; 0x3d
 80024c2:	bd10      	pop	{r4, pc}
 80024c4:	2001      	movs	r0, #1
 80024c6:	e7fc      	b.n	80024c2 <HAL_TIM_Base_Init+0x5a>

080024c8 <TIM_ETR_SetConfig>:
 80024c8:	b510      	push	{r4, lr}
 80024ca:	6884      	ldr	r4, [r0, #8]
 80024cc:	4311      	orrs	r1, r2
 80024ce:	f424 447f 	bic.w	r4, r4, #65280	; 0xff00
 80024d2:	ea41 2303 	orr.w	r3, r1, r3, lsl #8
 80024d6:	4323      	orrs	r3, r4
 80024d8:	6083      	str	r3, [r0, #8]
 80024da:	bd10      	pop	{r4, pc}

080024dc <HAL_TIM_ConfigClockSource>:
 80024dc:	b570      	push	{r4, r5, r6, lr}
 80024de:	f890 303c 	ldrb.w	r3, [r0, #60]	; 0x3c
 80024e2:	2b01      	cmp	r3, #1
 80024e4:	4604      	mov	r4, r0
 80024e6:	f04f 0002 	mov.w	r0, #2
 80024ea:	d025      	beq.n	8002538 <HAL_TIM_ConfigClockSource+0x5c>
 80024ec:	f884 003d 	strb.w	r0, [r4, #61]	; 0x3d
 80024f0:	2301      	movs	r3, #1
 80024f2:	6820      	ldr	r0, [r4, #0]
 80024f4:	f884 303c 	strb.w	r3, [r4, #60]	; 0x3c
 80024f8:	6882      	ldr	r2, [r0, #8]
 80024fa:	4b41      	ldr	r3, [pc, #260]	; (8002600 <HAL_TIM_ConfigClockSource+0x124>)
 80024fc:	4013      	ands	r3, r2
 80024fe:	6083      	str	r3, [r0, #8]
 8002500:	680b      	ldr	r3, [r1, #0]
 8002502:	2b60      	cmp	r3, #96	; 0x60
 8002504:	d04d      	beq.n	80025a2 <HAL_TIM_ConfigClockSource+0xc6>
 8002506:	d832      	bhi.n	800256e <HAL_TIM_ConfigClockSource+0x92>
 8002508:	2b40      	cmp	r3, #64	; 0x40
 800250a:	d062      	beq.n	80025d2 <HAL_TIM_ConfigClockSource+0xf6>
 800250c:	d815      	bhi.n	800253a <HAL_TIM_ConfigClockSource+0x5e>
 800250e:	2b20      	cmp	r3, #32
 8002510:	d003      	beq.n	800251a <HAL_TIM_ConfigClockSource+0x3e>
 8002512:	d809      	bhi.n	8002528 <HAL_TIM_ConfigClockSource+0x4c>
 8002514:	f033 0210 	bics.w	r2, r3, #16
 8002518:	d108      	bne.n	800252c <HAL_TIM_ConfigClockSource+0x50>
 800251a:	6882      	ldr	r2, [r0, #8]
 800251c:	f022 0270 	bic.w	r2, r2, #112	; 0x70
 8002520:	4313      	orrs	r3, r2
 8002522:	f043 0307 	orr.w	r3, r3, #7
 8002526:	e020      	b.n	800256a <HAL_TIM_ConfigClockSource+0x8e>
 8002528:	2b30      	cmp	r3, #48	; 0x30
 800252a:	d0f6      	beq.n	800251a <HAL_TIM_ConfigClockSource+0x3e>
 800252c:	2301      	movs	r3, #1
 800252e:	2000      	movs	r0, #0
 8002530:	f884 303d 	strb.w	r3, [r4, #61]	; 0x3d
 8002534:	f884 003c 	strb.w	r0, [r4, #60]	; 0x3c
 8002538:	bd70      	pop	{r4, r5, r6, pc}
 800253a:	2b50      	cmp	r3, #80	; 0x50
 800253c:	d1f6      	bne.n	800252c <HAL_TIM_ConfigClockSource+0x50>
 800253e:	684a      	ldr	r2, [r1, #4]
 8002540:	68ce      	ldr	r6, [r1, #12]
 8002542:	6a01      	ldr	r1, [r0, #32]
 8002544:	6a05      	ldr	r5, [r0, #32]
 8002546:	f025 0501 	bic.w	r5, r5, #1
 800254a:	6205      	str	r5, [r0, #32]
 800254c:	6983      	ldr	r3, [r0, #24]
 800254e:	f021 010a 	bic.w	r1, r1, #10
 8002552:	f023 03f0 	bic.w	r3, r3, #240	; 0xf0
 8002556:	ea43 1306 	orr.w	r3, r3, r6, lsl #4
 800255a:	430a      	orrs	r2, r1
 800255c:	6183      	str	r3, [r0, #24]
 800255e:	6202      	str	r2, [r0, #32]
 8002560:	6883      	ldr	r3, [r0, #8]
 8002562:	f023 0370 	bic.w	r3, r3, #112	; 0x70
 8002566:	f043 0357 	orr.w	r3, r3, #87	; 0x57
 800256a:	6083      	str	r3, [r0, #8]
 800256c:	e7de      	b.n	800252c <HAL_TIM_ConfigClockSource+0x50>
 800256e:	2b70      	cmp	r3, #112	; 0x70
 8002570:	d00c      	beq.n	800258c <HAL_TIM_ConfigClockSource+0xb0>
 8002572:	f5b3 5f00 	cmp.w	r3, #8192	; 0x2000
 8002576:	d1d9      	bne.n	800252c <HAL_TIM_ConfigClockSource+0x50>
 8002578:	68cb      	ldr	r3, [r1, #12]
 800257a:	e9d1 2101 	ldrd	r2, r1, [r1, #4]
 800257e:	f7ff ffa3 	bl	80024c8 <TIM_ETR_SetConfig>
 8002582:	6822      	ldr	r2, [r4, #0]
 8002584:	6893      	ldr	r3, [r2, #8]
 8002586:	f443 4380 	orr.w	r3, r3, #16384	; 0x4000
 800258a:	e008      	b.n	800259e <HAL_TIM_ConfigClockSource+0xc2>
 800258c:	68cb      	ldr	r3, [r1, #12]
 800258e:	e9d1 2101 	ldrd	r2, r1, [r1, #4]
 8002592:	f7ff ff99 	bl	80024c8 <TIM_ETR_SetConfig>
 8002596:	6822      	ldr	r2, [r4, #0]
 8002598:	6893      	ldr	r3, [r2, #8]
 800259a:	f043 0377 	orr.w	r3, r3, #119	; 0x77
 800259e:	6093      	str	r3, [r2, #8]
 80025a0:	e7c4      	b.n	800252c <HAL_TIM_ConfigClockSource+0x50>
 80025a2:	684d      	ldr	r5, [r1, #4]
 80025a4:	68ce      	ldr	r6, [r1, #12]
 80025a6:	6a01      	ldr	r1, [r0, #32]
 80025a8:	f021 0110 	bic.w	r1, r1, #16
 80025ac:	6201      	str	r1, [r0, #32]
 80025ae:	6982      	ldr	r2, [r0, #24]
 80025b0:	6a03      	ldr	r3, [r0, #32]
 80025b2:	f422 4270 	bic.w	r2, r2, #61440	; 0xf000
 80025b6:	f023 03a0 	bic.w	r3, r3, #160	; 0xa0
 80025ba:	ea43 1305 	orr.w	r3, r3, r5, lsl #4
 80025be:	ea42 3206 	orr.w	r2, r2, r6, lsl #12
 80025c2:	6182      	str	r2, [r0, #24]
 80025c4:	6203      	str	r3, [r0, #32]
 80025c6:	6883      	ldr	r3, [r0, #8]
 80025c8:	f023 0370 	bic.w	r3, r3, #112	; 0x70
 80025cc:	f043 0367 	orr.w	r3, r3, #103	; 0x67
 80025d0:	e7cb      	b.n	800256a <HAL_TIM_ConfigClockSource+0x8e>
 80025d2:	684a      	ldr	r2, [r1, #4]
 80025d4:	68ce      	ldr	r6, [r1, #12]
 80025d6:	6a01      	ldr	r1, [r0, #32]
 80025d8:	6a05      	ldr	r5, [r0, #32]
 80025da:	f025 0501 	bic.w	r5, r5, #1
 80025de:	6205      	str	r5, [r0, #32]
 80025e0:	6983      	ldr	r3, [r0, #24]
 80025e2:	f021 010a 	bic.w	r1, r1, #10
 80025e6:	f023 03f0 	bic.w	r3, r3, #240	; 0xf0
 80025ea:	ea43 1306 	orr.w	r3, r3, r6, lsl #4
 80025ee:	430a      	orrs	r2, r1
 80025f0:	6183      	str	r3, [r0, #24]
 80025f2:	6202      	str	r2, [r0, #32]
 80025f4:	6883      	ldr	r3, [r0, #8]
 80025f6:	f023 0370 	bic.w	r3, r3, #112	; 0x70
 80025fa:	f043 0347 	orr.w	r3, r3, #71	; 0x47
 80025fe:	e7b4      	b.n	800256a <HAL_TIM_ConfigClockSource+0x8e>
 8002600:	fffe0088 	.word	0xfffe0088

08002604 <HAL_TIMEx_MasterConfigSynchronization>:
 8002604:	b530      	push	{r4, r5, lr}
 8002606:	f890 303c 	ldrb.w	r3, [r0, #60]	; 0x3c
 800260a:	2b01      	cmp	r3, #1
 800260c:	f04f 0302 	mov.w	r3, #2
 8002610:	d039      	beq.n	8002686 <HAL_TIMEx_MasterConfigSynchronization+0x82>
 8002612:	f880 303d 	strb.w	r3, [r0, #61]	; 0x3d
 8002616:	4d1d      	ldr	r5, [pc, #116]	; (800268c <HAL_TIMEx_MasterConfigSynchronization+0x88>)
 8002618:	6803      	ldr	r3, [r0, #0]
 800261a:	42ab      	cmp	r3, r5
 800261c:	685a      	ldr	r2, [r3, #4]
 800261e:	689c      	ldr	r4, [r3, #8]
 8002620:	d003      	beq.n	800262a <HAL_TIMEx_MasterConfigSynchronization+0x26>
 8002622:	f505 6500 	add.w	r5, r5, #2048	; 0x800
 8002626:	42ab      	cmp	r3, r5
 8002628:	d103      	bne.n	8002632 <HAL_TIMEx_MasterConfigSynchronization+0x2e>
 800262a:	684d      	ldr	r5, [r1, #4]
 800262c:	f422 0270 	bic.w	r2, r2, #15728640	; 0xf00000
 8002630:	432a      	orrs	r2, r5
 8002632:	680d      	ldr	r5, [r1, #0]
 8002634:	f022 0270 	bic.w	r2, r2, #112	; 0x70
 8002638:	432a      	orrs	r2, r5
 800263a:	605a      	str	r2, [r3, #4]
 800263c:	4a13      	ldr	r2, [pc, #76]	; (800268c <HAL_TIMEx_MasterConfigSynchronization+0x88>)
 800263e:	4293      	cmp	r3, r2
 8002640:	d016      	beq.n	8002670 <HAL_TIMEx_MasterConfigSynchronization+0x6c>
 8002642:	f1b3 4f80 	cmp.w	r3, #1073741824	; 0x40000000
 8002646:	d013      	beq.n	8002670 <HAL_TIMEx_MasterConfigSynchronization+0x6c>
 8002648:	f5a2 3294 	sub.w	r2, r2, #75776	; 0x12800
 800264c:	4293      	cmp	r3, r2
 800264e:	d00f      	beq.n	8002670 <HAL_TIMEx_MasterConfigSynchronization+0x6c>
 8002650:	f502 6280 	add.w	r2, r2, #1024	; 0x400
 8002654:	4293      	cmp	r3, r2
 8002656:	d00b      	beq.n	8002670 <HAL_TIMEx_MasterConfigSynchronization+0x6c>
 8002658:	f502 6280 	add.w	r2, r2, #1024	; 0x400
 800265c:	4293      	cmp	r3, r2
 800265e:	d007      	beq.n	8002670 <HAL_TIMEx_MasterConfigSynchronization+0x6c>
 8002660:	f502 3294 	add.w	r2, r2, #75776	; 0x12800
 8002664:	4293      	cmp	r3, r2
 8002666:	d003      	beq.n	8002670 <HAL_TIMEx_MasterConfigSynchronization+0x6c>
 8002668:	f502 6240 	add.w	r2, r2, #3072	; 0xc00
 800266c:	4293      	cmp	r3, r2
 800266e:	d104      	bne.n	800267a <HAL_TIMEx_MasterConfigSynchronization+0x76>
 8002670:	6889      	ldr	r1, [r1, #8]
 8002672:	f024 0280 	bic.w	r2, r4, #128	; 0x80
 8002676:	430a      	orrs	r2, r1
 8002678:	609a      	str	r2, [r3, #8]
 800267a:	2301      	movs	r3, #1
 800267c:	f880 303d 	strb.w	r3, [r0, #61]	; 0x3d
 8002680:	2300      	movs	r3, #0
 8002682:	f880 303c 	strb.w	r3, [r0, #60]	; 0x3c
 8002686:	4618      	mov	r0, r3
 8002688:	bd30      	pop	{r4, r5, pc}
 800268a:	bf00      	nop
 800268c:	40012c00 	.word	0x40012c00

08002690 <UART_SetConfig>:
 8002690:	b5f8      	push	{r3, r4, r5, r6, r7, lr}
 8002692:	4604      	mov	r4, r0
 8002694:	6803      	ldr	r3, [r0, #0]
 8002696:	6921      	ldr	r1, [r4, #16]
 8002698:	68a2      	ldr	r2, [r4, #8]
 800269a:	681d      	ldr	r5, [r3, #0]
 800269c:	69c0      	ldr	r0, [r0, #28]
 800269e:	430a      	orrs	r2, r1
 80026a0:	6961      	ldr	r1, [r4, #20]
 80026a2:	430a      	orrs	r2, r1
 80026a4:	4990      	ldr	r1, [pc, #576]	; (80028e8 <UART_SetConfig+0x258>)
 80026a6:	4302      	orrs	r2, r0
 80026a8:	4029      	ands	r1, r5
 80026aa:	430a      	orrs	r2, r1
 80026ac:	601a      	str	r2, [r3, #0]
 80026ae:	685a      	ldr	r2, [r3, #4]
 80026b0:	68e1      	ldr	r1, [r4, #12]
 80026b2:	f422 5240 	bic.w	r2, r2, #12288	; 0x3000
 80026b6:	430a      	orrs	r2, r1
 80026b8:	605a      	str	r2, [r3, #4]
 80026ba:	4a8c      	ldr	r2, [pc, #560]	; (80028ec <UART_SetConfig+0x25c>)
 80026bc:	69a1      	ldr	r1, [r4, #24]
 80026be:	4293      	cmp	r3, r2
 80026c0:	bf1c      	itt	ne
 80026c2:	6a22      	ldrne	r2, [r4, #32]
 80026c4:	4311      	orrne	r1, r2
 80026c6:	689a      	ldr	r2, [r3, #8]
 80026c8:	f422 6230 	bic.w	r2, r2, #2816	; 0xb00
 80026cc:	430a      	orrs	r2, r1
 80026ce:	609a      	str	r2, [r3, #8]
 80026d0:	4a87      	ldr	r2, [pc, #540]	; (80028f0 <UART_SetConfig+0x260>)
 80026d2:	4293      	cmp	r3, r2
 80026d4:	d117      	bne.n	8002706 <UART_SetConfig+0x76>
 80026d6:	4b87      	ldr	r3, [pc, #540]	; (80028f4 <UART_SetConfig+0x264>)
 80026d8:	f8d3 3088 	ldr.w	r3, [r3, #136]	; 0x88
 80026dc:	f003 0303 	and.w	r3, r3, #3
 80026e0:	3b01      	subs	r3, #1
 80026e2:	2b02      	cmp	r3, #2
 80026e4:	f200 80d0 	bhi.w	8002888 <UART_SetConfig+0x1f8>
 80026e8:	4a83      	ldr	r2, [pc, #524]	; (80028f8 <UART_SetConfig+0x268>)
 80026ea:	5cd3      	ldrb	r3, [r2, r3]
 80026ec:	f5b0 4f00 	cmp.w	r0, #32768	; 0x8000
 80026f0:	f040 8098 	bne.w	8002824 <UART_SetConfig+0x194>
 80026f4:	2b08      	cmp	r3, #8
 80026f6:	d822      	bhi.n	800273e <UART_SetConfig+0xae>
 80026f8:	e8df f003 	tbb	[pc, r3]
 80026fc:	2192c9da 	.word	0x2192c9da
 8002700:	212121cf 	.word	0x212121cf
 8002704:	de          	.byte	0xde
 8002705:	00          	.byte	0x00
 8002706:	4a7d      	ldr	r2, [pc, #500]	; (80028fc <UART_SetConfig+0x26c>)
 8002708:	4293      	cmp	r3, r2
 800270a:	d106      	bne.n	800271a <UART_SetConfig+0x8a>
 800270c:	4b79      	ldr	r3, [pc, #484]	; (80028f4 <UART_SetConfig+0x264>)
 800270e:	4a7c      	ldr	r2, [pc, #496]	; (8002900 <UART_SetConfig+0x270>)
 8002710:	f8d3 3088 	ldr.w	r3, [r3, #136]	; 0x88
 8002714:	f003 030c 	and.w	r3, r3, #12
 8002718:	e7e7      	b.n	80026ea <UART_SetConfig+0x5a>
 800271a:	4a7a      	ldr	r2, [pc, #488]	; (8002904 <UART_SetConfig+0x274>)
 800271c:	4293      	cmp	r3, r2
 800271e:	d119      	bne.n	8002754 <UART_SetConfig+0xc4>
 8002720:	4b74      	ldr	r3, [pc, #464]	; (80028f4 <UART_SetConfig+0x264>)
 8002722:	f8d3 3088 	ldr.w	r3, [r3, #136]	; 0x88
 8002726:	f003 0330 	and.w	r3, r3, #48	; 0x30
 800272a:	2b20      	cmp	r3, #32
 800272c:	f000 80b8 	beq.w	80028a0 <UART_SetConfig+0x210>
 8002730:	d807      	bhi.n	8002742 <UART_SetConfig+0xb2>
 8002732:	2b00      	cmp	r3, #0
 8002734:	f000 80b9 	beq.w	80028aa <UART_SetConfig+0x21a>
 8002738:	2b10      	cmp	r3, #16
 800273a:	f000 80ab 	beq.w	8002894 <UART_SetConfig+0x204>
 800273e:	2001      	movs	r0, #1
 8002740:	e04e      	b.n	80027e0 <UART_SetConfig+0x150>
 8002742:	2b30      	cmp	r3, #48	; 0x30
 8002744:	d1fb      	bne.n	800273e <UART_SetConfig+0xae>
 8002746:	f5b0 4f00 	cmp.w	r0, #32768	; 0x8000
 800274a:	f000 80b5 	beq.w	80028b8 <UART_SetConfig+0x228>
 800274e:	f44f 4000 	mov.w	r0, #32768	; 0x8000
 8002752:	e083      	b.n	800285c <UART_SetConfig+0x1cc>
 8002754:	4a6c      	ldr	r2, [pc, #432]	; (8002908 <UART_SetConfig+0x278>)
 8002756:	4293      	cmp	r3, r2
 8002758:	d10f      	bne.n	800277a <UART_SetConfig+0xea>
 800275a:	4b66      	ldr	r3, [pc, #408]	; (80028f4 <UART_SetConfig+0x264>)
 800275c:	f8d3 3088 	ldr.w	r3, [r3, #136]	; 0x88
 8002760:	f003 03c0 	and.w	r3, r3, #192	; 0xc0
 8002764:	2b80      	cmp	r3, #128	; 0x80
 8002766:	f000 809b 	beq.w	80028a0 <UART_SetConfig+0x210>
 800276a:	d804      	bhi.n	8002776 <UART_SetConfig+0xe6>
 800276c:	2b00      	cmp	r3, #0
 800276e:	f000 809c 	beq.w	80028aa <UART_SetConfig+0x21a>
 8002772:	2b40      	cmp	r3, #64	; 0x40
 8002774:	e7e1      	b.n	800273a <UART_SetConfig+0xaa>
 8002776:	2bc0      	cmp	r3, #192	; 0xc0
 8002778:	e7e4      	b.n	8002744 <UART_SetConfig+0xb4>
 800277a:	4a64      	ldr	r2, [pc, #400]	; (800290c <UART_SetConfig+0x27c>)
 800277c:	4293      	cmp	r3, r2
 800277e:	d112      	bne.n	80027a6 <UART_SetConfig+0x116>
 8002780:	4b5c      	ldr	r3, [pc, #368]	; (80028f4 <UART_SetConfig+0x264>)
 8002782:	f8d3 3088 	ldr.w	r3, [r3, #136]	; 0x88
 8002786:	f403 7340 	and.w	r3, r3, #768	; 0x300
 800278a:	f5b3 7f00 	cmp.w	r3, #512	; 0x200
 800278e:	f000 8087 	beq.w	80028a0 <UART_SetConfig+0x210>
 8002792:	d805      	bhi.n	80027a0 <UART_SetConfig+0x110>
 8002794:	2b00      	cmp	r3, #0
 8002796:	f000 8088 	beq.w	80028aa <UART_SetConfig+0x21a>
 800279a:	f5b3 7f80 	cmp.w	r3, #256	; 0x100
 800279e:	e7cc      	b.n	800273a <UART_SetConfig+0xaa>
 80027a0:	f5b3 7f40 	cmp.w	r3, #768	; 0x300
 80027a4:	e7ce      	b.n	8002744 <UART_SetConfig+0xb4>
 80027a6:	4a51      	ldr	r2, [pc, #324]	; (80028ec <UART_SetConfig+0x25c>)
 80027a8:	4293      	cmp	r3, r2
 80027aa:	d1c8      	bne.n	800273e <UART_SetConfig+0xae>
 80027ac:	4b51      	ldr	r3, [pc, #324]	; (80028f4 <UART_SetConfig+0x264>)
 80027ae:	f8d3 3088 	ldr.w	r3, [r3, #136]	; 0x88
 80027b2:	f403 6340 	and.w	r3, r3, #3072	; 0xc00
 80027b6:	f5b3 6f00 	cmp.w	r3, #2048	; 0x800
 80027ba:	d015      	beq.n	80027e8 <UART_SetConfig+0x158>
 80027bc:	d806      	bhi.n	80027cc <UART_SetConfig+0x13c>
 80027be:	b15b      	cbz	r3, 80027d8 <UART_SetConfig+0x148>
 80027c0:	f5b3 6f80 	cmp.w	r3, #1024	; 0x400
 80027c4:	d1bb      	bne.n	800273e <UART_SetConfig+0xae>
 80027c6:	f7fe ff69 	bl	800169c <HAL_RCC_GetSysClockFreq>
 80027ca:	e007      	b.n	80027dc <UART_SetConfig+0x14c>
 80027cc:	f5b3 6f40 	cmp.w	r3, #3072	; 0xc00
 80027d0:	d1b5      	bne.n	800273e <UART_SetConfig+0xae>
 80027d2:	f44f 4000 	mov.w	r0, #32768	; 0x8000
 80027d6:	e008      	b.n	80027ea <UART_SetConfig+0x15a>
 80027d8:	f7ff fac8 	bl	8001d6c <HAL_RCC_GetPCLK1Freq>
 80027dc:	b928      	cbnz	r0, 80027ea <UART_SetConfig+0x15a>
 80027de:	2000      	movs	r0, #0
 80027e0:	2300      	movs	r3, #0
 80027e2:	e9c4 3319 	strd	r3, r3, [r4, #100]	; 0x64
 80027e6:	bdf8      	pop	{r3, r4, r5, r6, r7, pc}
 80027e8:	4849      	ldr	r0, [pc, #292]	; (8002910 <UART_SetConfig+0x280>)
 80027ea:	6862      	ldr	r2, [r4, #4]
 80027ec:	eb02 0342 	add.w	r3, r2, r2, lsl #1
 80027f0:	4298      	cmp	r0, r3
 80027f2:	d3a4      	bcc.n	800273e <UART_SetConfig+0xae>
 80027f4:	ebb0 3f02 	cmp.w	r0, r2, lsl #12
 80027f8:	d8a1      	bhi.n	800273e <UART_SetConfig+0xae>
 80027fa:	0856      	lsrs	r6, r2, #1
 80027fc:	f44f 7180 	mov.w	r1, #256	; 0x100
 8002800:	2700      	movs	r7, #0
 8002802:	fbe1 6700 	umlal	r6, r7, r1, r0
 8002806:	2300      	movs	r3, #0
 8002808:	4630      	mov	r0, r6
 800280a:	4639      	mov	r1, r7
 800280c:	f7fd fcdc 	bl	80001c8 <__aeabi_uldivmod>
 8002810:	4b40      	ldr	r3, [pc, #256]	; (8002914 <UART_SetConfig+0x284>)
 8002812:	f5a0 7240 	sub.w	r2, r0, #768	; 0x300
 8002816:	429a      	cmp	r2, r3
 8002818:	d891      	bhi.n	800273e <UART_SetConfig+0xae>
 800281a:	6823      	ldr	r3, [r4, #0]
 800281c:	60d8      	str	r0, [r3, #12]
 800281e:	e7de      	b.n	80027de <UART_SetConfig+0x14e>
 8002820:	483b      	ldr	r0, [pc, #236]	; (8002910 <UART_SetConfig+0x280>)
 8002822:	e049      	b.n	80028b8 <UART_SetConfig+0x228>
 8002824:	2b08      	cmp	r3, #8
 8002826:	d88a      	bhi.n	800273e <UART_SetConfig+0xae>
 8002828:	a201      	add	r2, pc, #4	; (adr r2, 8002830 <UART_SetConfig+0x1a0>)
 800282a:	f852 f023 	ldr.w	pc, [r2, r3, lsl #2]
 800282e:	bf00      	nop
 8002830:	08002855 	.word	0x08002855
 8002834:	0800287d 	.word	0x0800287d
 8002838:	080028a7 	.word	0x080028a7
 800283c:	0800273f 	.word	0x0800273f
 8002840:	08002883 	.word	0x08002883
 8002844:	0800273f 	.word	0x0800273f
 8002848:	0800273f 	.word	0x0800273f
 800284c:	0800273f 	.word	0x0800273f
 8002850:	0800274f 	.word	0x0800274f
 8002854:	f7ff fa8a 	bl	8001d6c <HAL_RCC_GetPCLK1Freq>
 8002858:	2800      	cmp	r0, #0
 800285a:	d0c0      	beq.n	80027de <UART_SetConfig+0x14e>
 800285c:	6862      	ldr	r2, [r4, #4]
 800285e:	eb00 0352 	add.w	r3, r0, r2, lsr #1
 8002862:	fbb3 f3f2 	udiv	r3, r3, r2
 8002866:	b29b      	uxth	r3, r3
 8002868:	f1a3 0110 	sub.w	r1, r3, #16
 800286c:	f64f 72ef 	movw	r2, #65519	; 0xffef
 8002870:	4291      	cmp	r1, r2
 8002872:	f63f af64 	bhi.w	800273e <UART_SetConfig+0xae>
 8002876:	6822      	ldr	r2, [r4, #0]
 8002878:	60d3      	str	r3, [r2, #12]
 800287a:	e7b0      	b.n	80027de <UART_SetConfig+0x14e>
 800287c:	f7ff fa88 	bl	8001d90 <HAL_RCC_GetPCLK2Freq>
 8002880:	e7ea      	b.n	8002858 <UART_SetConfig+0x1c8>
 8002882:	f7fe ff0b 	bl	800169c <HAL_RCC_GetSysClockFreq>
 8002886:	e7e7      	b.n	8002858 <UART_SetConfig+0x1c8>
 8002888:	f5b0 4f00 	cmp.w	r0, #32768	; 0x8000
 800288c:	d1f6      	bne.n	800287c <UART_SetConfig+0x1ec>
 800288e:	f7ff fa7f 	bl	8001d90 <HAL_RCC_GetPCLK2Freq>
 8002892:	e00f      	b.n	80028b4 <UART_SetConfig+0x224>
 8002894:	f5b0 4f00 	cmp.w	r0, #32768	; 0x8000
 8002898:	d1f3      	bne.n	8002882 <UART_SetConfig+0x1f2>
 800289a:	f7fe feff 	bl	800169c <HAL_RCC_GetSysClockFreq>
 800289e:	e009      	b.n	80028b4 <UART_SetConfig+0x224>
 80028a0:	f5b0 4f00 	cmp.w	r0, #32768	; 0x8000
 80028a4:	d0bc      	beq.n	8002820 <UART_SetConfig+0x190>
 80028a6:	481a      	ldr	r0, [pc, #104]	; (8002910 <UART_SetConfig+0x280>)
 80028a8:	e7d8      	b.n	800285c <UART_SetConfig+0x1cc>
 80028aa:	f5b0 4f00 	cmp.w	r0, #32768	; 0x8000
 80028ae:	d1d1      	bne.n	8002854 <UART_SetConfig+0x1c4>
 80028b0:	f7ff fa5c 	bl	8001d6c <HAL_RCC_GetPCLK1Freq>
 80028b4:	2800      	cmp	r0, #0
 80028b6:	d092      	beq.n	80027de <UART_SetConfig+0x14e>
 80028b8:	6862      	ldr	r2, [r4, #4]
 80028ba:	0853      	lsrs	r3, r2, #1
 80028bc:	eb03 0040 	add.w	r0, r3, r0, lsl #1
 80028c0:	fbb0 f0f2 	udiv	r0, r0, r2
 80028c4:	b283      	uxth	r3, r0
 80028c6:	f1a3 0110 	sub.w	r1, r3, #16
 80028ca:	f64f 72ef 	movw	r2, #65519	; 0xffef
 80028ce:	4291      	cmp	r1, r2
 80028d0:	f63f af35 	bhi.w	800273e <UART_SetConfig+0xae>
 80028d4:	f020 000f 	bic.w	r0, r0, #15
 80028d8:	6822      	ldr	r2, [r4, #0]
 80028da:	b280      	uxth	r0, r0
 80028dc:	f3c3 0342 	ubfx	r3, r3, #1, #3
 80028e0:	4318      	orrs	r0, r3
 80028e2:	60d0      	str	r0, [r2, #12]
 80028e4:	e77b      	b.n	80027de <UART_SetConfig+0x14e>
 80028e6:	bf00      	nop
 80028e8:	efff69f3 	.word	0xefff69f3
 80028ec:	40008000 	.word	0x40008000
 80028f0:	40013800 	.word	0x40013800
 80028f4:	40021000 	.word	0x40021000
 80028f8:	08002bc8 	.word	0x08002bc8
 80028fc:	40004400 	.word	0x40004400
 8002900:	08002bcb 	.word	0x08002bcb
 8002904:	40004800 	.word	0x40004800
 8002908:	40004c00 	.word	0x40004c00
 800290c:	40005000 	.word	0x40005000
 8002910:	00f42400 	.word	0x00f42400
 8002914:	000ffcff 	.word	0x000ffcff

08002918 <UART_AdvFeatureConfig>:
 8002918:	6a43      	ldr	r3, [r0, #36]	; 0x24
 800291a:	07da      	lsls	r2, r3, #31
 800291c:	b510      	push	{r4, lr}
 800291e:	d506      	bpl.n	800292e <UART_AdvFeatureConfig+0x16>
 8002920:	6801      	ldr	r1, [r0, #0]
 8002922:	6a84      	ldr	r4, [r0, #40]	; 0x28
 8002924:	684a      	ldr	r2, [r1, #4]
 8002926:	f422 3200 	bic.w	r2, r2, #131072	; 0x20000
 800292a:	4322      	orrs	r2, r4
 800292c:	604a      	str	r2, [r1, #4]
 800292e:	079c      	lsls	r4, r3, #30
 8002930:	d506      	bpl.n	8002940 <UART_AdvFeatureConfig+0x28>
 8002932:	6801      	ldr	r1, [r0, #0]
 8002934:	6ac4      	ldr	r4, [r0, #44]	; 0x2c
 8002936:	684a      	ldr	r2, [r1, #4]
 8002938:	f422 3280 	bic.w	r2, r2, #65536	; 0x10000
 800293c:	4322      	orrs	r2, r4
 800293e:	604a      	str	r2, [r1, #4]
 8002940:	0759      	lsls	r1, r3, #29
 8002942:	d506      	bpl.n	8002952 <UART_AdvFeatureConfig+0x3a>
 8002944:	6801      	ldr	r1, [r0, #0]
 8002946:	6b04      	ldr	r4, [r0, #48]	; 0x30
 8002948:	684a      	ldr	r2, [r1, #4]
 800294a:	f422 2280 	bic.w	r2, r2, #262144	; 0x40000
 800294e:	4322      	orrs	r2, r4
 8002950:	604a      	str	r2, [r1, #4]
 8002952:	071a      	lsls	r2, r3, #28
 8002954:	d506      	bpl.n	8002964 <UART_AdvFeatureConfig+0x4c>
 8002956:	6801      	ldr	r1, [r0, #0]
 8002958:	6b44      	ldr	r4, [r0, #52]	; 0x34
 800295a:	684a      	ldr	r2, [r1, #4]
 800295c:	f422 4200 	bic.w	r2, r2, #32768	; 0x8000
 8002960:	4322      	orrs	r2, r4
 8002962:	604a      	str	r2, [r1, #4]
 8002964:	06dc      	lsls	r4, r3, #27
 8002966:	d506      	bpl.n	8002976 <UART_AdvFeatureConfig+0x5e>
 8002968:	6801      	ldr	r1, [r0, #0]
 800296a:	6b84      	ldr	r4, [r0, #56]	; 0x38
 800296c:	688a      	ldr	r2, [r1, #8]
 800296e:	f422 5280 	bic.w	r2, r2, #4096	; 0x1000
 8002972:	4322      	orrs	r2, r4
 8002974:	608a      	str	r2, [r1, #8]
 8002976:	0699      	lsls	r1, r3, #26
 8002978:	d506      	bpl.n	8002988 <UART_AdvFeatureConfig+0x70>
 800297a:	6801      	ldr	r1, [r0, #0]
 800297c:	6bc4      	ldr	r4, [r0, #60]	; 0x3c
 800297e:	688a      	ldr	r2, [r1, #8]
 8002980:	f422 5200 	bic.w	r2, r2, #8192	; 0x2000
 8002984:	4322      	orrs	r2, r4
 8002986:	608a      	str	r2, [r1, #8]
 8002988:	065a      	lsls	r2, r3, #25
 800298a:	d50f      	bpl.n	80029ac <UART_AdvFeatureConfig+0x94>
 800298c:	6801      	ldr	r1, [r0, #0]
 800298e:	6c04      	ldr	r4, [r0, #64]	; 0x40
 8002990:	684a      	ldr	r2, [r1, #4]
 8002992:	f422 1280 	bic.w	r2, r2, #1048576	; 0x100000
 8002996:	4322      	orrs	r2, r4
 8002998:	f5b4 1f80 	cmp.w	r4, #1048576	; 0x100000
 800299c:	604a      	str	r2, [r1, #4]
 800299e:	d105      	bne.n	80029ac <UART_AdvFeatureConfig+0x94>
 80029a0:	684a      	ldr	r2, [r1, #4]
 80029a2:	6c44      	ldr	r4, [r0, #68]	; 0x44
 80029a4:	f422 02c0 	bic.w	r2, r2, #6291456	; 0x600000
 80029a8:	4322      	orrs	r2, r4
 80029aa:	604a      	str	r2, [r1, #4]
 80029ac:	061b      	lsls	r3, r3, #24
 80029ae:	d506      	bpl.n	80029be <UART_AdvFeatureConfig+0xa6>
 80029b0:	6802      	ldr	r2, [r0, #0]
 80029b2:	6c81      	ldr	r1, [r0, #72]	; 0x48
 80029b4:	6853      	ldr	r3, [r2, #4]
 80029b6:	f423 2300 	bic.w	r3, r3, #524288	; 0x80000
 80029ba:	430b      	orrs	r3, r1
 80029bc:	6053      	str	r3, [r2, #4]
 80029be:	bd10      	pop	{r4, pc}

080029c0 <UART_WaitOnFlagUntilTimeout>:
 80029c0:	e92d 41f0 	stmdb	sp!, {r4, r5, r6, r7, r8, lr}
 80029c4:	f8dd 8018 	ldr.w	r8, [sp, #24]
 80029c8:	4604      	mov	r4, r0
 80029ca:	460e      	mov	r6, r1
 80029cc:	4615      	mov	r5, r2
 80029ce:	461f      	mov	r7, r3
 80029d0:	6822      	ldr	r2, [r4, #0]
 80029d2:	69d3      	ldr	r3, [r2, #28]
 80029d4:	ea36 0303 	bics.w	r3, r6, r3
 80029d8:	bf0c      	ite	eq
 80029da:	2301      	moveq	r3, #1
 80029dc:	2300      	movne	r3, #0
 80029de:	42ab      	cmp	r3, r5
 80029e0:	d001      	beq.n	80029e6 <UART_WaitOnFlagUntilTimeout+0x26>
 80029e2:	2000      	movs	r0, #0
 80029e4:	e01a      	b.n	8002a1c <UART_WaitOnFlagUntilTimeout+0x5c>
 80029e6:	f1b8 3fff 	cmp.w	r8, #4294967295
 80029ea:	d0f2      	beq.n	80029d2 <UART_WaitOnFlagUntilTimeout+0x12>
 80029ec:	f7fe f8aa 	bl	8000b44 <HAL_GetTick>
 80029f0:	1bc0      	subs	r0, r0, r7
 80029f2:	4540      	cmp	r0, r8
 80029f4:	6820      	ldr	r0, [r4, #0]
 80029f6:	6803      	ldr	r3, [r0, #0]
 80029f8:	d802      	bhi.n	8002a00 <UART_WaitOnFlagUntilTimeout+0x40>
 80029fa:	f1b8 0f00 	cmp.w	r8, #0
 80029fe:	d10f      	bne.n	8002a20 <UART_WaitOnFlagUntilTimeout+0x60>
 8002a00:	f423 73d0 	bic.w	r3, r3, #416	; 0x1a0
 8002a04:	6003      	str	r3, [r0, #0]
 8002a06:	6883      	ldr	r3, [r0, #8]
 8002a08:	f023 0301 	bic.w	r3, r3, #1
 8002a0c:	6083      	str	r3, [r0, #8]
 8002a0e:	2320      	movs	r3, #32
 8002a10:	67a3      	str	r3, [r4, #120]	; 0x78
 8002a12:	67e3      	str	r3, [r4, #124]	; 0x7c
 8002a14:	2300      	movs	r3, #0
 8002a16:	f884 3074 	strb.w	r3, [r4, #116]	; 0x74
 8002a1a:	2003      	movs	r0, #3
 8002a1c:	e8bd 81f0 	ldmia.w	sp!, {r4, r5, r6, r7, r8, pc}
 8002a20:	075a      	lsls	r2, r3, #29
 8002a22:	d5d5      	bpl.n	80029d0 <UART_WaitOnFlagUntilTimeout+0x10>
 8002a24:	69c3      	ldr	r3, [r0, #28]
 8002a26:	051b      	lsls	r3, r3, #20
 8002a28:	d5d2      	bpl.n	80029d0 <UART_WaitOnFlagUntilTimeout+0x10>
 8002a2a:	f44f 6300 	mov.w	r3, #2048	; 0x800
 8002a2e:	6203      	str	r3, [r0, #32]
 8002a30:	6803      	ldr	r3, [r0, #0]
 8002a32:	f423 73d0 	bic.w	r3, r3, #416	; 0x1a0
 8002a36:	6003      	str	r3, [r0, #0]
 8002a38:	6883      	ldr	r3, [r0, #8]
 8002a3a:	f023 0301 	bic.w	r3, r3, #1
 8002a3e:	6083      	str	r3, [r0, #8]
 8002a40:	2320      	movs	r3, #32
 8002a42:	67a3      	str	r3, [r4, #120]	; 0x78
 8002a44:	67e3      	str	r3, [r4, #124]	; 0x7c
 8002a46:	f8c4 3080 	str.w	r3, [r4, #128]	; 0x80
 8002a4a:	e7e3      	b.n	8002a14 <UART_WaitOnFlagUntilTimeout+0x54>

08002a4c <UART_CheckIdleState>:
 8002a4c:	b530      	push	{r4, r5, lr}
 8002a4e:	4604      	mov	r4, r0
 8002a50:	2500      	movs	r5, #0
 8002a52:	b085      	sub	sp, #20
 8002a54:	f8c0 5080 	str.w	r5, [r0, #128]	; 0x80
 8002a58:	f7fe f874 	bl	8000b44 <HAL_GetTick>
 8002a5c:	6822      	ldr	r2, [r4, #0]
 8002a5e:	6812      	ldr	r2, [r2, #0]
 8002a60:	0711      	lsls	r1, r2, #28
 8002a62:	4603      	mov	r3, r0
 8002a64:	d415      	bmi.n	8002a92 <UART_CheckIdleState+0x46>
 8002a66:	6822      	ldr	r2, [r4, #0]
 8002a68:	6812      	ldr	r2, [r2, #0]
 8002a6a:	0752      	lsls	r2, r2, #29
 8002a6c:	d509      	bpl.n	8002a82 <UART_CheckIdleState+0x36>
 8002a6e:	f06f 427e 	mvn.w	r2, #4261412864	; 0xfe000000
 8002a72:	9200      	str	r2, [sp, #0]
 8002a74:	f44f 0180 	mov.w	r1, #4194304	; 0x400000
 8002a78:	2200      	movs	r2, #0
 8002a7a:	4620      	mov	r0, r4
 8002a7c:	f7ff ffa0 	bl	80029c0 <UART_WaitOnFlagUntilTimeout>
 8002a80:	b9a0      	cbnz	r0, 8002aac <UART_CheckIdleState+0x60>
 8002a82:	2320      	movs	r3, #32
 8002a84:	2000      	movs	r0, #0
 8002a86:	67a3      	str	r3, [r4, #120]	; 0x78
 8002a88:	f884 0074 	strb.w	r0, [r4, #116]	; 0x74
 8002a8c:	67e3      	str	r3, [r4, #124]	; 0x7c
 8002a8e:	6620      	str	r0, [r4, #96]	; 0x60
 8002a90:	e00d      	b.n	8002aae <UART_CheckIdleState+0x62>
 8002a92:	f06f 427e 	mvn.w	r2, #4261412864	; 0xfe000000
 8002a96:	9200      	str	r2, [sp, #0]
 8002a98:	9003      	str	r0, [sp, #12]
 8002a9a:	462a      	mov	r2, r5
 8002a9c:	f44f 1100 	mov.w	r1, #2097152	; 0x200000
 8002aa0:	4620      	mov	r0, r4
 8002aa2:	f7ff ff8d 	bl	80029c0 <UART_WaitOnFlagUntilTimeout>
 8002aa6:	9b03      	ldr	r3, [sp, #12]
 8002aa8:	2800      	cmp	r0, #0
 8002aaa:	d0dc      	beq.n	8002a66 <UART_CheckIdleState+0x1a>
 8002aac:	2003      	movs	r0, #3
 8002aae:	b005      	add	sp, #20
 8002ab0:	bd30      	pop	{r4, r5, pc}

08002ab2 <HAL_UART_Init>:
 8002ab2:	b510      	push	{r4, lr}
 8002ab4:	4604      	mov	r4, r0
 8002ab6:	b340      	cbz	r0, 8002b0a <HAL_UART_Init+0x58>
 8002ab8:	6f83      	ldr	r3, [r0, #120]	; 0x78
 8002aba:	b91b      	cbnz	r3, 8002ac4 <HAL_UART_Init+0x12>
 8002abc:	f880 3074 	strb.w	r3, [r0, #116]	; 0x74
 8002ac0:	f7fd ff58 	bl	8000974 <HAL_UART_MspInit>
 8002ac4:	6822      	ldr	r2, [r4, #0]
 8002ac6:	2324      	movs	r3, #36	; 0x24
 8002ac8:	67a3      	str	r3, [r4, #120]	; 0x78
 8002aca:	6813      	ldr	r3, [r2, #0]
 8002acc:	f023 0301 	bic.w	r3, r3, #1
 8002ad0:	6013      	str	r3, [r2, #0]
 8002ad2:	4620      	mov	r0, r4
 8002ad4:	f7ff fddc 	bl	8002690 <UART_SetConfig>
 8002ad8:	2801      	cmp	r0, #1
 8002ada:	d016      	beq.n	8002b0a <HAL_UART_Init+0x58>
 8002adc:	6a63      	ldr	r3, [r4, #36]	; 0x24
 8002ade:	b113      	cbz	r3, 8002ae6 <HAL_UART_Init+0x34>
 8002ae0:	4620      	mov	r0, r4
 8002ae2:	f7ff ff19 	bl	8002918 <UART_AdvFeatureConfig>
 8002ae6:	6823      	ldr	r3, [r4, #0]
 8002ae8:	685a      	ldr	r2, [r3, #4]
 8002aea:	f422 4290 	bic.w	r2, r2, #18432	; 0x4800
 8002aee:	605a      	str	r2, [r3, #4]
 8002af0:	689a      	ldr	r2, [r3, #8]
 8002af2:	f022 022a 	bic.w	r2, r2, #42	; 0x2a
 8002af6:	609a      	str	r2, [r3, #8]
 8002af8:	681a      	ldr	r2, [r3, #0]
 8002afa:	f042 0201 	orr.w	r2, r2, #1
 8002afe:	4620      	mov	r0, r4
 8002b00:	601a      	str	r2, [r3, #0]
 8002b02:	e8bd 4010 	ldmia.w	sp!, {r4, lr}
 8002b06:	f7ff bfa1 	b.w	8002a4c <UART_CheckIdleState>
 8002b0a:	2001      	movs	r0, #1
 8002b0c:	bd10      	pop	{r4, pc}
	...

08002b10 <__libc_init_array>:
 8002b10:	b570      	push	{r4, r5, r6, lr}
 8002b12:	4d0d      	ldr	r5, [pc, #52]	; (8002b48 <__libc_init_array+0x38>)
 8002b14:	4c0d      	ldr	r4, [pc, #52]	; (8002b4c <__libc_init_array+0x3c>)
 8002b16:	1b64      	subs	r4, r4, r5
 8002b18:	10a4      	asrs	r4, r4, #2
 8002b1a:	2600      	movs	r6, #0
 8002b1c:	42a6      	cmp	r6, r4
 8002b1e:	d109      	bne.n	8002b34 <__libc_init_array+0x24>
 8002b20:	4d0b      	ldr	r5, [pc, #44]	; (8002b50 <__libc_init_array+0x40>)
 8002b22:	4c0c      	ldr	r4, [pc, #48]	; (8002b54 <__libc_init_array+0x44>)
 8002b24:	f000 f820 	bl	8002b68 <_init>
 8002b28:	1b64      	subs	r4, r4, r5
 8002b2a:	10a4      	asrs	r4, r4, #2
 8002b2c:	2600      	movs	r6, #0
 8002b2e:	42a6      	cmp	r6, r4
 8002b30:	d105      	bne.n	8002b3e <__libc_init_array+0x2e>
 8002b32:	bd70      	pop	{r4, r5, r6, pc}
 8002b34:	f855 3b04 	ldr.w	r3, [r5], #4
 8002b38:	4798      	blx	r3
 8002b3a:	3601      	adds	r6, #1
 8002b3c:	e7ee      	b.n	8002b1c <__libc_init_array+0xc>
 8002b3e:	f855 3b04 	ldr.w	r3, [r5], #4
 8002b42:	4798      	blx	r3
 8002b44:	3601      	adds	r6, #1
 8002b46:	e7f2      	b.n	8002b2e <__libc_init_array+0x1e>
 8002b48:	08002be0 	.word	0x08002be0
 8002b4c:	08002be0 	.word	0x08002be0
 8002b50:	08002be0 	.word	0x08002be0
 8002b54:	08002be4 	.word	0x08002be4

08002b58 <memset>:
 8002b58:	4402      	add	r2, r0
 8002b5a:	4603      	mov	r3, r0
 8002b5c:	4293      	cmp	r3, r2
 8002b5e:	d100      	bne.n	8002b62 <memset+0xa>
 8002b60:	4770      	bx	lr
 8002b62:	f803 1b01 	strb.w	r1, [r3], #1
 8002b66:	e7f9      	b.n	8002b5c <memset+0x4>

08002b68 <_init>:
 8002b68:	b5f8      	push	{r3, r4, r5, r6, r7, lr}
 8002b6a:	bf00      	nop
 8002b6c:	bcf8      	pop	{r3, r4, r5, r6, r7}
 8002b6e:	bc08      	pop	{r3}
 8002b70:	469e      	mov	lr, r3
 8002b72:	4770      	bx	lr

08002b74 <_fini>:
 8002b74:	b5f8      	push	{r3, r4, r5, r6, r7, lr}
 8002b76:	bf00      	nop
 8002b78:	bcf8      	pop	{r3, r4, r5, r6, r7}
 8002b7a:	bc08      	pop	{r3}
 8002b7c:	469e      	mov	lr, r3
 8002b7e:	4770      	bx	lr
